
hello_world:     file format elf32-littleriscv


Disassembly of section .bootloader:

80000000 <boot_loader>:
80000000:	0000006f          	j	0x80000000 <boot_loader>
80000004:	000007b7          	lui	a5,0x0
80000008:	0ec78793          	addi	a5,a5,236 # 0xec <__loader_lmaend>
8000000c:	00378713          	addi	a4,a5,3
80000010:	000007b7          	lui	a5,0x0
80000014:	07878793          	addi	a5,a5,120 # 0x78 <NDS_SAG_LMA_LDSECTION>
80000018:	40f707b3          	sub	a5,a4,a5
8000001c:	0027d913          	srli	s2,a5,0x2
80000020:	800007b7          	lui	a5,0x80000
80000024:	00078713          	mv	a4,a5
80000028:	000007b7          	lui	a5,0x0
8000002c:	07878793          	addi	a5,a5,120 # 0x78 <NDS_SAG_LMA_LDSECTION>
80000030:	00f707b3          	add	a5,a4,a5
80000034:	00078993          	mv	s3,a5
80000038:	0ff007b7          	lui	a5,0xff00
8000003c:	00078493          	mv	s1,a5
80000040:	00000413          	li	s0,0
80000044:	0200006f          	j	0x80000064 <boot_loader+0x64>
80000048:	00098713          	mv	a4,s3
8000004c:	00470993          	addi	s3,a4,4
80000050:	00048793          	mv	a5,s1
80000054:	00478493          	addi	s1,a5,4 # 0xff00004 <loader+0x4>
80000058:	00072703          	lw	a4,0(a4)
8000005c:	00e7a023          	sw	a4,0(a5)
80000060:	00140413          	addi	s0,s0,1
80000064:	ff2462e3          	bltu	s0,s2,0x80000048 <boot_loader+0x48>
80000068:	0ff007b7          	lui	a5,0xff00
8000006c:	00078413          	mv	s0,a5
80000070:	000400e7          	jalr	s0
80000074:	00000013          	nop

Disassembly of section .loader:

0ff00000 <loader>:
 ff00000:	0000006f          	j	0xff00000 <loader>
 ff00004:	000027b7          	lui	a5,0x2
 ff00008:	ca078793          	addi	a5,a5,-864 # 0x1ca0 <__bss_start>
 ff0000c:	00378713          	addi	a4,a5,3
 ff00010:	000007b7          	lui	a5,0x0
 ff00014:	00078793          	mv	a5,a5
 ff00018:	40f707b3          	sub	a5,a4,a5
 ff0001c:	0027d913          	srli	s2,a5,0x2
 ff00020:	800007b7          	lui	a5,0x80000
 ff00024:	00078713          	mv	a4,a5
 ff00028:	000007b7          	lui	a5,0x0
 ff0002c:	10078793          	addi	a5,a5,256 # 0x100 <NDS_SAG_LMA_MEM>
 ff00030:	00f707b3          	add	a5,a4,a5
 ff00034:	00078993          	mv	s3,a5
 ff00038:	000007b7          	lui	a5,0x0
 ff0003c:	00078493          	mv	s1,a5
 ff00040:	00000413          	li	s0,0
 ff00044:	0200006f          	j	0xff00064 <loader+0x64>
 ff00048:	00098713          	mv	a4,s3
 ff0004c:	00470993          	addi	s3,a4,4
 ff00050:	00048793          	mv	a5,s1
 ff00054:	00478493          	addi	s1,a5,4 # 0x4 <_start+0x4>
 ff00058:	00072703          	lw	a4,0(a4)
 ff0005c:	00e7a023          	sw	a4,0(a5)
 ff00060:	00140413          	addi	s0,s0,1
 ff00064:	ff2462e3          	bltu	s0,s2,0xff00048 <loader+0x48>
 ff00068:	f0100097          	auipc	ra,0xf0100
 ff0006c:	f98080e7          	jalr	-104(ra) # 0x0 <_start>
 ff00070:	00000013          	nop

Disassembly of section .nds_vector:

00000000 <_start>:
   0:	00002197          	auipc	gp,0x2
   4:	49818193          	addi	gp,gp,1176 # 0x2498 <__global_pointer$>
   8:	08000297          	auipc	t0,0x8000
   c:	ff828293          	addi	t0,t0,-8 # 0x8000000 <_stack>
  10:	00028113          	mv	sp,t0
  14:	88cd928b          	addigp	t0,-8052 # 0x524 <trap_entry>
  18:	30529073          	csrw	mtvec,t0
  1c:	00000097          	auipc	ra,0x0
  20:	7c0080e7          	jalr	1984(ra) # 0x7dc <__platform_init>
  24:	00000097          	auipc	ra,0x0
  28:	364080e7          	jalr	868(ra) # 0x388 <reset_handler>
  2c:	0000006f          	j	0x2c <_start+0x2c>
  30:	00008067          	ret

00000034 <nmi_handler>:
  34:	0000006f          	j	0x34 <nmi_handler>

00000038 <trap_handler>:
  38:	0000006f          	j	0x38 <trap_handler>

Disassembly of section .text:

00000040 <__nds__rotr>:
      40:	fe010113          	addi	sp,sp,-32
      44:	00a12623          	sw	a0,12(sp)
      48:	00b12423          	sw	a1,8(sp)
      4c:	00812783          	lw	a5,8(sp)
      50:	01f7f793          	andi	a5,a5,31
      54:	00f12e23          	sw	a5,28(sp)
      58:	00c12783          	lw	a5,12(sp)
      5c:	01c12703          	lw	a4,28(sp)
      60:	00e7d733          	srl	a4,a5,a4
      64:	01c12683          	lw	a3,28(sp)
      68:	40d006b3          	neg	a3,a3
      6c:	01f6f693          	andi	a3,a3,31
      70:	00d797b3          	sll	a5,a5,a3
      74:	00e7e7b3          	or	a5,a5,a4
      78:	00078513          	mv	a0,a5
      7c:	02010113          	addi	sp,sp,32
      80:	00008067          	ret

00000084 <__nds__wsbh>:
      84:	fe010113          	addi	sp,sp,-32
      88:	00a12623          	sw	a0,12(sp)
      8c:	00c12783          	lw	a5,12(sp)
      90:	0ff7f793          	zext.b	a5,a5
      94:	00f12e23          	sw	a5,28(sp)
      98:	00c12783          	lw	a5,12(sp)
      9c:	0087d793          	srli	a5,a5,0x8
      a0:	0ff7f793          	zext.b	a5,a5
      a4:	00f12c23          	sw	a5,24(sp)
      a8:	00c12783          	lw	a5,12(sp)
      ac:	0107d793          	srli	a5,a5,0x10
      b0:	0ff7f793          	zext.b	a5,a5
      b4:	00f12a23          	sw	a5,20(sp)
      b8:	00c12783          	lw	a5,12(sp)
      bc:	0187d793          	srli	a5,a5,0x18
      c0:	00f12823          	sw	a5,16(sp)
      c4:	01c12783          	lw	a5,28(sp)
      c8:	00879713          	slli	a4,a5,0x8
      cc:	01812783          	lw	a5,24(sp)
      d0:	00f76733          	or	a4,a4,a5
      d4:	01412783          	lw	a5,20(sp)
      d8:	01879793          	slli	a5,a5,0x18
      dc:	00f76733          	or	a4,a4,a5
      e0:	01012783          	lw	a5,16(sp)
      e4:	01079793          	slli	a5,a5,0x10
      e8:	00f767b3          	or	a5,a4,a5
      ec:	00078513          	mv	a0,a5
      f0:	02010113          	addi	sp,sp,32
      f4:	00008067          	ret

000000f8 <main>:
      f8:	ff010113          	addi	sp,sp,-16
      fc:	00112623          	sw	ra,12(sp)
     100:	000027b7          	lui	a5,0x2
     104:	58078513          	addi	a0,a5,1408 # 0x2580 <__global_pointer$+0xe8>
     108:	1c9000ef          	jal	ra,0xad0 <uart_init>
     10c:	bb8f950b          	addigp	a0,-3144 # 0x1850 <__riscv_restore_0+0xe>
     110:	23c010ef          	jal	ra,0x134c <printf>
     114:	040000ef          	jal	ra,0x154 <amoswapw_func>
     118:	07c000ef          	jal	ra,0x194 <amoaddw_func>
     11c:	0b4000ef          	jal	ra,0x1d0 <amoxorw_func>
     120:	0f0000ef          	jal	ra,0x210 <amoandw_func>
     124:	12c000ef          	jal	ra,0x250 <amoorw_func>
     128:	168000ef          	jal	ra,0x290 <amominw_func>
     12c:	1a0000ef          	jal	ra,0x2cc <amomaxw_func>
     130:	1d8000ef          	jal	ra,0x308 <amominuw_func>
     134:	214000ef          	jal	ra,0x348 <amomaxuw_func>
     138:	be0f950b          	addigp	a0,-3104 # 0x1878 <__riscv_restore_0+0x36>
     13c:	210010ef          	jal	ra,0x134c <printf>
     140:	00000793          	li	a5,0
     144:	00078513          	mv	a0,a5
     148:	00c12083          	lw	ra,12(sp)
     14c:	01010113          	addi	sp,sp,16
     150:	00008067          	ret

00000154 <amoswapw_func>:
     154:	fe010113          	addi	sp,sp,-32
     158:	00112e23          	sw	ra,28(sp)
     15c:	00a00793          	li	a5,10
     160:	00f12623          	sw	a5,12(sp)
     164:	bfcf950b          	addigp	a0,-3076 # 0x1894 <__riscv_restore_0+0x52>
     168:	1e4010ef          	jal	ra,0x134c <printf>
     16c:	00c12783          	lw	a5,12(sp)
     170:	00410713          	addi	a4,sp,4
     174:	08f727af          	amoswap.w	a5,a5,(a4)
     178:	00f12423          	sw	a5,8(sp)
     17c:	c10f950b          	addigp	a0,-3056 # 0x18a8 <__riscv_restore_0+0x66>
     180:	1cc010ef          	jal	ra,0x134c <printf>
     184:	00000013          	nop
     188:	01c12083          	lw	ra,28(sp)
     18c:	02010113          	addi	sp,sp,32
     190:	00008067          	ret

00000194 <amoaddw_func>:
     194:	fe010113          	addi	sp,sp,-32
     198:	00112e23          	sw	ra,28(sp)
     19c:	00a00793          	li	a5,10
     1a0:	00f12623          	sw	a5,12(sp)
     1a4:	00c12703          	lw	a4,12(sp)
     1a8:	00410793          	addi	a5,sp,4
     1ac:	00e7a7af          	amoadd.w	a5,a4,(a5)
     1b0:	00f12423          	sw	a5,8(sp)
     1b4:	00812583          	lw	a1,8(sp)
     1b8:	c20f950b          	addigp	a0,-3040 # 0x18b8 <__riscv_restore_0+0x76>
     1bc:	190010ef          	jal	ra,0x134c <printf>
     1c0:	00000013          	nop
     1c4:	01c12083          	lw	ra,28(sp)
     1c8:	02010113          	addi	sp,sp,32
     1cc:	00008067          	ret

000001d0 <amoxorw_func>:
     1d0:	fe010113          	addi	sp,sp,-32
     1d4:	00112e23          	sw	ra,28(sp)
     1d8:	223347b7          	lui	a5,0x22334
     1dc:	45578793          	addi	a5,a5,1109 # 0x22334455 <loader+0x12434455>
     1e0:	00f12623          	sw	a5,12(sp)
     1e4:	00c12703          	lw	a4,12(sp)
     1e8:	00410793          	addi	a5,sp,4
     1ec:	20e7a7af          	amoxor.w	a5,a4,(a5)
     1f0:	00f12423          	sw	a5,8(sp)
     1f4:	00812583          	lw	a1,8(sp)
     1f8:	c3cf950b          	addigp	a0,-3012 # 0x18d4 <__riscv_restore_0+0x92>
     1fc:	150010ef          	jal	ra,0x134c <printf>
     200:	00000013          	nop
     204:	01c12083          	lw	ra,28(sp)
     208:	02010113          	addi	sp,sp,32
     20c:	00008067          	ret

00000210 <amoandw_func>:
     210:	fe010113          	addi	sp,sp,-32
     214:	00112e23          	sw	ra,28(sp)
     218:	223347b7          	lui	a5,0x22334
     21c:	45578793          	addi	a5,a5,1109 # 0x22334455 <loader+0x12434455>
     220:	00f12623          	sw	a5,12(sp)
     224:	00c12703          	lw	a4,12(sp)
     228:	00410793          	addi	a5,sp,4
     22c:	60e7a7af          	amoand.w	a5,a4,(a5)
     230:	00f12423          	sw	a5,8(sp)
     234:	00812583          	lw	a1,8(sp)
     238:	c58f950b          	addigp	a0,-2984 # 0x18f0 <__riscv_restore_0+0xae>
     23c:	110010ef          	jal	ra,0x134c <printf>
     240:	00000013          	nop
     244:	01c12083          	lw	ra,28(sp)
     248:	02010113          	addi	sp,sp,32
     24c:	00008067          	ret

00000250 <amoorw_func>:
     250:	fe010113          	addi	sp,sp,-32
     254:	00112e23          	sw	ra,28(sp)
     258:	223347b7          	lui	a5,0x22334
     25c:	45578793          	addi	a5,a5,1109 # 0x22334455 <loader+0x12434455>
     260:	00f12623          	sw	a5,12(sp)
     264:	00c12703          	lw	a4,12(sp)
     268:	00410793          	addi	a5,sp,4
     26c:	40e7a7af          	amoor.w	a5,a4,(a5)
     270:	00f12423          	sw	a5,8(sp)
     274:	00812583          	lw	a1,8(sp)
     278:	c74f950b          	addigp	a0,-2956 # 0x190c <__riscv_restore_0+0xca>
     27c:	0d0010ef          	jal	ra,0x134c <printf>
     280:	00000013          	nop
     284:	01c12083          	lw	ra,28(sp)
     288:	02010113          	addi	sp,sp,32
     28c:	00008067          	ret

00000290 <amominw_func>:
     290:	fe010113          	addi	sp,sp,-32
     294:	00112e23          	sw	ra,28(sp)
     298:	00a00793          	li	a5,10
     29c:	00f12623          	sw	a5,12(sp)
     2a0:	00c12703          	lw	a4,12(sp)
     2a4:	00410793          	addi	a5,sp,4
     2a8:	80e7a7af          	amomin.w	a5,a4,(a5)
     2ac:	00f12423          	sw	a5,8(sp)
     2b0:	00812583          	lw	a1,8(sp)
     2b4:	c8cf950b          	addigp	a0,-2932 # 0x1924 <__riscv_restore_0+0xe2>
     2b8:	094010ef          	jal	ra,0x134c <printf>
     2bc:	00000013          	nop
     2c0:	01c12083          	lw	ra,28(sp)
     2c4:	02010113          	addi	sp,sp,32
     2c8:	00008067          	ret

000002cc <amomaxw_func>:
     2cc:	fe010113          	addi	sp,sp,-32
     2d0:	00112e23          	sw	ra,28(sp)
     2d4:	00a00793          	li	a5,10
     2d8:	00f12623          	sw	a5,12(sp)
     2dc:	00c12703          	lw	a4,12(sp)
     2e0:	00410793          	addi	a5,sp,4
     2e4:	a0e7a7af          	amomax.w	a5,a4,(a5)
     2e8:	00f12423          	sw	a5,8(sp)
     2ec:	00812583          	lw	a1,8(sp)
     2f0:	ca8f950b          	addigp	a0,-2904 # 0x1940 <__riscv_restore_0+0xfe>
     2f4:	058010ef          	jal	ra,0x134c <printf>
     2f8:	00000013          	nop
     2fc:	01c12083          	lw	ra,28(sp)
     300:	02010113          	addi	sp,sp,32
     304:	00008067          	ret

00000308 <amominuw_func>:
     308:	fe010113          	addi	sp,sp,-32
     30c:	00112e23          	sw	ra,28(sp)
     310:	223347b7          	lui	a5,0x22334
     314:	45578793          	addi	a5,a5,1109 # 0x22334455 <loader+0x12434455>
     318:	00f12623          	sw	a5,12(sp)
     31c:	00c12703          	lw	a4,12(sp)
     320:	00410793          	addi	a5,sp,4
     324:	c0e7a7af          	amominu.w	a5,a4,(a5)
     328:	00f12423          	sw	a5,8(sp)
     32c:	00812583          	lw	a1,8(sp)
     330:	cc4f950b          	addigp	a0,-2876 # 0x195c <__riscv_restore_0+0x11a>
     334:	018010ef          	jal	ra,0x134c <printf>
     338:	00000013          	nop
     33c:	01c12083          	lw	ra,28(sp)
     340:	02010113          	addi	sp,sp,32
     344:	00008067          	ret

00000348 <amomaxuw_func>:
     348:	fe010113          	addi	sp,sp,-32
     34c:	00112e23          	sw	ra,28(sp)
     350:	223347b7          	lui	a5,0x22334
     354:	45578793          	addi	a5,a5,1109 # 0x22334455 <loader+0x12434455>
     358:	00f12623          	sw	a5,12(sp)
     35c:	00c12703          	lw	a4,12(sp)
     360:	00410793          	addi	a5,sp,4
     364:	e0e7a7af          	amomaxu.w	a5,a4,(a5)
     368:	00f12423          	sw	a5,8(sp)
     36c:	00812583          	lw	a1,8(sp)
     370:	ce0f950b          	addigp	a0,-2848 # 0x1978 <__riscv_restore_0+0x136>
     374:	7d9000ef          	jal	ra,0x134c <printf>
     378:	00000013          	nop
     37c:	01c12083          	lw	ra,28(sp)
     380:	02010113          	addi	sp,sp,32
     384:	00008067          	ret

00000388 <reset_handler>:
     388:	ff010113          	addi	sp,sp,-16
     38c:	00112623          	sw	ra,12(sp)
     390:	48c000ef          	jal	ra,0x81c <c_startup>
     394:	4c8000ef          	jal	ra,0x85c <system_init>
     398:	402010ef          	jal	ra,0x179a <__libc_init_array>
     39c:	d5dff0ef          	jal	ra,0xf8 <main>
     3a0:	00000013          	nop
     3a4:	00c12083          	lw	ra,12(sp)
     3a8:	01010113          	addi	sp,sp,16
     3ac:	00008067          	ret

000003b0 <__cxa_atexit>:
     3b0:	ff010113          	addi	sp,sp,-16
     3b4:	00a12623          	sw	a0,12(sp)
     3b8:	00b12423          	sw	a1,8(sp)
     3bc:	00c12223          	sw	a2,4(sp)
     3c0:	00000013          	nop
     3c4:	01010113          	addi	sp,sp,16
     3c8:	00008067          	ret

000003cc <__nds__rotr>:
     3cc:	fe010113          	addi	sp,sp,-32
     3d0:	00a12623          	sw	a0,12(sp)
     3d4:	00b12423          	sw	a1,8(sp)
     3d8:	00812783          	lw	a5,8(sp)
     3dc:	01f7f793          	andi	a5,a5,31
     3e0:	00f12e23          	sw	a5,28(sp)
     3e4:	00c12783          	lw	a5,12(sp)
     3e8:	01c12703          	lw	a4,28(sp)
     3ec:	00e7d733          	srl	a4,a5,a4
     3f0:	01c12683          	lw	a3,28(sp)
     3f4:	40d006b3          	neg	a3,a3
     3f8:	01f6f693          	andi	a3,a3,31
     3fc:	00d797b3          	sll	a5,a5,a3
     400:	00e7e7b3          	or	a5,a5,a4
     404:	00078513          	mv	a0,a5
     408:	02010113          	addi	sp,sp,32
     40c:	00008067          	ret

00000410 <__nds__wsbh>:
     410:	fe010113          	addi	sp,sp,-32
     414:	00a12623          	sw	a0,12(sp)
     418:	00c12783          	lw	a5,12(sp)
     41c:	0ff7f793          	zext.b	a5,a5
     420:	00f12e23          	sw	a5,28(sp)
     424:	00c12783          	lw	a5,12(sp)
     428:	0087d793          	srli	a5,a5,0x8
     42c:	0ff7f793          	zext.b	a5,a5
     430:	00f12c23          	sw	a5,24(sp)
     434:	00c12783          	lw	a5,12(sp)
     438:	0107d793          	srli	a5,a5,0x10
     43c:	0ff7f793          	zext.b	a5,a5
     440:	00f12a23          	sw	a5,20(sp)
     444:	00c12783          	lw	a5,12(sp)
     448:	0187d793          	srli	a5,a5,0x18
     44c:	00f12823          	sw	a5,16(sp)
     450:	01c12783          	lw	a5,28(sp)
     454:	00879713          	slli	a4,a5,0x8
     458:	01812783          	lw	a5,24(sp)
     45c:	00f76733          	or	a4,a4,a5
     460:	01412783          	lw	a5,20(sp)
     464:	01879793          	slli	a5,a5,0x18
     468:	00f76733          	or	a4,a4,a5
     46c:	01012783          	lw	a5,16(sp)
     470:	01079793          	slli	a5,a5,0x10
     474:	00f767b3          	or	a5,a4,a5
     478:	00078513          	mv	a0,a5
     47c:	02010113          	addi	sp,sp,32
     480:	00008067          	ret

00000484 <mtime_handler>:
     484:	08000793          	li	a5,128
     488:	3047b7f3          	csrrc	a5,mie,a5
     48c:	00000013          	nop
     490:	00008067          	ret

00000494 <mswi_handler>:
     494:	304477f3          	csrrci	a5,mie,8
     498:	00000013          	nop
     49c:	00008067          	ret

000004a0 <syscall_handler>:
     4a0:	fd010113          	addi	sp,sp,-48
     4a4:	02112623          	sw	ra,44(sp)
     4a8:	00a12e23          	sw	a0,28(sp)
     4ac:	00b12c23          	sw	a1,24(sp)
     4b0:	00c12a23          	sw	a2,20(sp)
     4b4:	00d12823          	sw	a3,16(sp)
     4b8:	00e12623          	sw	a4,12(sp)
     4bc:	00c12783          	lw	a5,12(sp)
     4c0:	01012703          	lw	a4,16(sp)
     4c4:	01412683          	lw	a3,20(sp)
     4c8:	01812603          	lw	a2,24(sp)
     4cc:	01c12583          	lw	a1,28(sp)
     4d0:	cfcf950b          	addigp	a0,-2820 # 0x1994 <__riscv_restore_0+0x152>
     4d4:	679000ef          	jal	ra,0x134c <printf>
     4d8:	00000013          	nop
     4dc:	02c12083          	lw	ra,44(sp)
     4e0:	03010113          	addi	sp,sp,48
     4e4:	00008067          	ret

000004e8 <except_handler>:
     4e8:	fe010113          	addi	sp,sp,-32
     4ec:	00112e23          	sw	ra,28(sp)
     4f0:	00a12623          	sw	a0,12(sp)
     4f4:	00b12423          	sw	a1,8(sp)
     4f8:	00c12783          	lw	a5,12(sp)
     4fc:	00812703          	lw	a4,8(sp)
     500:	00070613          	mv	a2,a4
     504:	00078593          	mv	a1,a5
     508:	d34f950b          	addigp	a0,-2764 # 0x19cc <__riscv_restore_0+0x18a>
     50c:	641000ef          	jal	ra,0x134c <printf>
     510:	00812783          	lw	a5,8(sp)
     514:	00078513          	mv	a0,a5
     518:	01c12083          	lw	ra,28(sp)
     51c:	02010113          	addi	sp,sp,32
     520:	00008067          	ret

00000524 <trap_entry>:
     524:	f9010113          	addi	sp,sp,-112
     528:	06112623          	sw	ra,108(sp)
     52c:	06512423          	sw	t0,104(sp)
     530:	06612223          	sw	t1,100(sp)
     534:	06712023          	sw	t2,96(sp)
     538:	04a12e23          	sw	a0,92(sp)
     53c:	04b12c23          	sw	a1,88(sp)
     540:	04c12a23          	sw	a2,84(sp)
     544:	04d12823          	sw	a3,80(sp)
     548:	04e12623          	sw	a4,76(sp)
     54c:	04f12423          	sw	a5,72(sp)
     550:	05012223          	sw	a6,68(sp)
     554:	05112023          	sw	a7,64(sp)
     558:	03c12e23          	sw	t3,60(sp)
     55c:	03d12c23          	sw	t4,56(sp)
     560:	03e12a23          	sw	t5,52(sp)
     564:	03f12823          	sw	t6,48(sp)
     568:	342027f3          	csrr	a5,mcause
     56c:	02f12423          	sw	a5,40(sp)
     570:	341027f3          	csrr	a5,mepc
     574:	02f12623          	sw	a5,44(sp)
     578:	300027f3          	csrr	a5,mstatus
     57c:	02f12223          	sw	a5,36(sp)
     580:	7c4027f3          	csrr	a5,mxstatus
     584:	02f12023          	sw	a5,32(sp)
     588:	02812783          	lw	a5,40(sp)
     58c:	0407d863          	bgez	a5,0x5dc <trap_entry+0xb8>
     590:	02812703          	lw	a4,40(sp)
     594:	800007b7          	lui	a5,0x80000
     598:	fff78793          	addi	a5,a5,-1 # 0x7fffffff <boot_loader+0xffffffff>
     59c:	00f77733          	and	a4,a4,a5
     5a0:	00b00793          	li	a5,11
     5a4:	02f71c63          	bne	a4,a5,0x5dc <trap_entry+0xb8>
     5a8:	f14027f3          	csrr	a5,mhartid
     5ac:	00f12e23          	sw	a5,28(sp)
     5b0:	01c12783          	lw	a5,28(sp)
     5b4:	00c79713          	slli	a4,a5,0xc
     5b8:	e42007b7          	lui	a5,0xe4200
     5bc:	00478793          	addi	a5,a5,4 # 0xe4200004 <boot_loader+0x64200004>
     5c0:	00f707b3          	add	a5,a4,a5
     5c4:	00f12c23          	sw	a5,24(sp)
     5c8:	01812783          	lw	a5,24(sp)
     5cc:	0007a783          	lw	a5,0(a5)
     5d0:	00078513          	mv	a0,a5
     5d4:	3d0000ef          	jal	ra,0x9a4 <mext_interrupt>
     5d8:	0e80006f          	j	0x6c0 <trap_entry+0x19c>
     5dc:	02812783          	lw	a5,40(sp)
     5e0:	0207d263          	bgez	a5,0x604 <trap_entry+0xe0>
     5e4:	02812703          	lw	a4,40(sp)
     5e8:	800007b7          	lui	a5,0x80000
     5ec:	fff78793          	addi	a5,a5,-1 # 0x7fffffff <boot_loader+0xffffffff>
     5f0:	00f77733          	and	a4,a4,a5
     5f4:	00700793          	li	a5,7
     5f8:	00f71663          	bne	a4,a5,0x604 <trap_entry+0xe0>
     5fc:	e89ff0ef          	jal	ra,0x484 <mtime_handler>
     600:	0c00006f          	j	0x6c0 <trap_entry+0x19c>
     604:	02812783          	lw	a5,40(sp)
     608:	0607d063          	bgez	a5,0x668 <trap_entry+0x144>
     60c:	02812703          	lw	a4,40(sp)
     610:	800007b7          	lui	a5,0x80000
     614:	fff78793          	addi	a5,a5,-1 # 0x7fffffff <boot_loader+0xffffffff>
     618:	00f77733          	and	a4,a4,a5
     61c:	00300793          	li	a5,3
     620:	04f71463          	bne	a4,a5,0x668 <trap_entry+0x144>
     624:	e71ff0ef          	jal	ra,0x494 <mswi_handler>
     628:	f14027f3          	csrr	a5,mhartid
     62c:	00178793          	addi	a5,a5,1
     630:	00f12a23          	sw	a5,20(sp)
     634:	f14027f3          	csrr	a5,mhartid
     638:	00f12823          	sw	a5,16(sp)
     63c:	01012783          	lw	a5,16(sp)
     640:	00c79713          	slli	a4,a5,0xc
     644:	e66007b7          	lui	a5,0xe6600
     648:	00478793          	addi	a5,a5,4 # 0xe6600004 <boot_loader+0x66600004>
     64c:	00f707b3          	add	a5,a4,a5
     650:	00f12623          	sw	a5,12(sp)
     654:	00c12783          	lw	a5,12(sp)
     658:	01412703          	lw	a4,20(sp)
     65c:	00e7a023          	sw	a4,0(a5)
     660:	00000013          	nop
     664:	05c0006f          	j	0x6c0 <trap_entry+0x19c>
     668:	02812783          	lw	a5,40(sp)
     66c:	0407c263          	bltz	a5,0x6b0 <trap_entry+0x18c>
     670:	02812703          	lw	a4,40(sp)
     674:	800007b7          	lui	a5,0x80000
     678:	fff78793          	addi	a5,a5,-1 # 0x7fffffff <boot_loader+0xffffffff>
     67c:	00f77733          	and	a4,a4,a5
     680:	00b00793          	li	a5,11
     684:	02f71663          	bne	a4,a5,0x6b0 <trap_entry+0x18c>
     688:	00068713          	mv	a4,a3
     68c:	00060693          	mv	a3,a2
     690:	00058613          	mv	a2,a1
     694:	00050593          	mv	a1,a0
     698:	00088513          	mv	a0,a7
     69c:	e05ff0ef          	jal	ra,0x4a0 <syscall_handler>
     6a0:	02c12783          	lw	a5,44(sp)
     6a4:	00478793          	addi	a5,a5,4
     6a8:	02f12623          	sw	a5,44(sp)
     6ac:	0140006f          	j	0x6c0 <trap_entry+0x19c>
     6b0:	02c12583          	lw	a1,44(sp)
     6b4:	02812503          	lw	a0,40(sp)
     6b8:	e31ff0ef          	jal	ra,0x4e8 <except_handler>
     6bc:	02a12623          	sw	a0,44(sp)
     6c0:	02412783          	lw	a5,36(sp)
     6c4:	30079073          	csrw	mstatus,a5
     6c8:	02c12783          	lw	a5,44(sp)
     6cc:	34179073          	csrw	mepc,a5
     6d0:	02012783          	lw	a5,32(sp)
     6d4:	7c479073          	csrw	mxstatus,a5
     6d8:	00000013          	nop
     6dc:	06c12083          	lw	ra,108(sp)
     6e0:	06812283          	lw	t0,104(sp)
     6e4:	06412303          	lw	t1,100(sp)
     6e8:	06012383          	lw	t2,96(sp)
     6ec:	05c12503          	lw	a0,92(sp)
     6f0:	05812583          	lw	a1,88(sp)
     6f4:	05412603          	lw	a2,84(sp)
     6f8:	05012683          	lw	a3,80(sp)
     6fc:	04c12703          	lw	a4,76(sp)
     700:	04812783          	lw	a5,72(sp)
     704:	04412803          	lw	a6,68(sp)
     708:	04012883          	lw	a7,64(sp)
     70c:	03c12e03          	lw	t3,60(sp)
     710:	03812e83          	lw	t4,56(sp)
     714:	03412f03          	lw	t5,52(sp)
     718:	03012f83          	lw	t6,48(sp)
     71c:	07010113          	addi	sp,sp,112
     720:	30200073          	mret

00000724 <__nds__rotr>:
     724:	fe010113          	addi	sp,sp,-32
     728:	00a12623          	sw	a0,12(sp)
     72c:	00b12423          	sw	a1,8(sp)
     730:	00812783          	lw	a5,8(sp)
     734:	01f7f793          	andi	a5,a5,31
     738:	00f12e23          	sw	a5,28(sp)
     73c:	00c12783          	lw	a5,12(sp)
     740:	01c12703          	lw	a4,28(sp)
     744:	00e7d733          	srl	a4,a5,a4
     748:	01c12683          	lw	a3,28(sp)
     74c:	40d006b3          	neg	a3,a3
     750:	01f6f693          	andi	a3,a3,31
     754:	00d797b3          	sll	a5,a5,a3
     758:	00e7e7b3          	or	a5,a5,a4
     75c:	00078513          	mv	a0,a5
     760:	02010113          	addi	sp,sp,32
     764:	00008067          	ret

00000768 <__nds__wsbh>:
     768:	fe010113          	addi	sp,sp,-32
     76c:	00a12623          	sw	a0,12(sp)
     770:	00c12783          	lw	a5,12(sp)
     774:	0ff7f793          	zext.b	a5,a5
     778:	00f12e23          	sw	a5,28(sp)
     77c:	00c12783          	lw	a5,12(sp)
     780:	0087d793          	srli	a5,a5,0x8
     784:	0ff7f793          	zext.b	a5,a5
     788:	00f12c23          	sw	a5,24(sp)
     78c:	00c12783          	lw	a5,12(sp)
     790:	0107d793          	srli	a5,a5,0x10
     794:	0ff7f793          	zext.b	a5,a5
     798:	00f12a23          	sw	a5,20(sp)
     79c:	00c12783          	lw	a5,12(sp)
     7a0:	0187d793          	srli	a5,a5,0x18
     7a4:	00f12823          	sw	a5,16(sp)
     7a8:	01c12783          	lw	a5,28(sp)
     7ac:	00879713          	slli	a4,a5,0x8
     7b0:	01812783          	lw	a5,24(sp)
     7b4:	00f76733          	or	a4,a4,a5
     7b8:	01412783          	lw	a5,20(sp)
     7bc:	01879793          	slli	a5,a5,0x18
     7c0:	00f76733          	or	a4,a4,a5
     7c4:	01012783          	lw	a5,16(sp)
     7c8:	01079793          	slli	a5,a5,0x10
     7cc:	00f767b3          	or	a5,a4,a5
     7d0:	00078513          	mv	a0,a5
     7d4:	02010113          	addi	sp,sp,32
     7d8:	00008067          	ret

000007dc <__platform_init>:
     7dc:	000067b7          	lui	a5,0x6
     7e0:	7ca7b7f3          	csrrc	a5,mcache_ctl,a5
     7e4:	000827b7          	lui	a5,0x82
     7e8:	60378793          	addi	a5,a5,1539 # 0x82603 <__global_pointer$+0x8016b>
     7ec:	7ca7a7f3          	csrrs	a5,mcache_ctl,a5
     7f0:	7ca02773          	csrr	a4,mcache_ctl
     7f4:	000807b7          	lui	a5,0x80
     7f8:	00f777b3          	and	a5,a4,a5
     7fc:	00078c63          	beqz	a5,0x814 <__platform_init+0x38>
     800:	00000013          	nop
     804:	7ca02773          	csrr	a4,mcache_ctl
     808:	001007b7          	lui	a5,0x100
     80c:	00f777b3          	and	a5,a4,a5
     810:	fe078ae3          	beqz	a5,0x804 <__platform_init+0x28>
     814:	00008067          	ret
     818:	00000013          	nop

0000081c <c_startup>:
     81c:	fe010113          	addi	sp,sp,-32
     820:	00112e23          	sw	ra,28(sp)
     824:	80818713          	addi	a4,gp,-2040 # 0x1ca0 <__bss_start>
     828:	80818793          	addi	a5,gp,-2040 # 0x1ca0 <__bss_start>
     82c:	40f707b3          	sub	a5,a4,a5
     830:	00f12623          	sw	a5,12(sp)
     834:	80818793          	addi	a5,gp,-2040 # 0x1ca0 <__bss_start>
     838:	00c12703          	lw	a4,12(sp)
     83c:	00070613          	mv	a2,a4
     840:	00000593          	li	a1,0
     844:	00078513          	mv	a0,a5
     848:	6cd000ef          	jal	ra,0x1714 <memset>
     84c:	00000013          	nop
     850:	01c12083          	lw	ra,28(sp)
     854:	02010113          	addi	sp,sp,32
     858:	00008067          	ret

0000085c <system_init>:
     85c:	ff010113          	addi	sp,sp,-16
     860:	f01007b7          	lui	a5,0xf0100
     864:	b69b970b          	addigp	a4,-9368 # 0x0 <_start>
     868:	04e7a823          	sw	a4,80(a5) # 0xf0100050 <boot_loader+0x70100050>
     86c:	7d0027f3          	csrr	a5,mmisc_ctl
     870:	0027f793          	andi	a5,a5,2
     874:	02078263          	beqz	a5,0x898 <system_init+0x3c>
     878:	00300793          	li	a5,3
     87c:	00f12623          	sw	a5,12(sp)
     880:	e40007b7          	lui	a5,0xe4000
     884:	00f12423          	sw	a5,8(sp)
     888:	00812783          	lw	a5,8(sp)
     88c:	00c12703          	lw	a4,12(sp)
     890:	00e7a023          	sw	a4,0(a5) # 0xe4000000 <boot_loader+0x64000000>
     894:	0240006f          	j	0x8b8 <system_init+0x5c>
     898:	00100793          	li	a5,1
     89c:	00f12223          	sw	a5,4(sp)
     8a0:	e40007b7          	lui	a5,0xe4000
     8a4:	00f12023          	sw	a5,0(sp)
     8a8:	00012783          	lw	a5,0(sp)
     8ac:	00412703          	lw	a4,4(sp)
     8b0:	00e7a023          	sw	a4,0(a5) # 0xe4000000 <boot_loader+0x64000000>
     8b4:	00000013          	nop
     8b8:	14000793          	li	a5,320
     8bc:	7d07a7f3          	csrrs	a5,mmisc_ctl,a5
     8c0:	00000013          	nop
     8c4:	01010113          	addi	sp,sp,16
     8c8:	00008067          	ret

000008cc <__nds__rotr>:
     8cc:	fe010113          	addi	sp,sp,-32
     8d0:	00a12623          	sw	a0,12(sp)
     8d4:	00b12423          	sw	a1,8(sp)
     8d8:	00812783          	lw	a5,8(sp)
     8dc:	01f7f793          	andi	a5,a5,31
     8e0:	00f12e23          	sw	a5,28(sp)
     8e4:	00c12783          	lw	a5,12(sp)
     8e8:	01c12703          	lw	a4,28(sp)
     8ec:	00e7d733          	srl	a4,a5,a4
     8f0:	01c12683          	lw	a3,28(sp)
     8f4:	40d006b3          	neg	a3,a3
     8f8:	01f6f693          	andi	a3,a3,31
     8fc:	00d797b3          	sll	a5,a5,a3
     900:	00e7e7b3          	or	a5,a5,a4
     904:	00078513          	mv	a0,a5
     908:	02010113          	addi	sp,sp,32
     90c:	00008067          	ret

00000910 <__nds__wsbh>:
     910:	fe010113          	addi	sp,sp,-32
     914:	00a12623          	sw	a0,12(sp)
     918:	00c12783          	lw	a5,12(sp)
     91c:	0ff7f793          	zext.b	a5,a5
     920:	00f12e23          	sw	a5,28(sp)
     924:	00c12783          	lw	a5,12(sp)
     928:	0087d793          	srli	a5,a5,0x8
     92c:	0ff7f793          	zext.b	a5,a5
     930:	00f12c23          	sw	a5,24(sp)
     934:	00c12783          	lw	a5,12(sp)
     938:	0107d793          	srli	a5,a5,0x10
     93c:	0ff7f793          	zext.b	a5,a5
     940:	00f12a23          	sw	a5,20(sp)
     944:	00c12783          	lw	a5,12(sp)
     948:	0187d793          	srli	a5,a5,0x18
     94c:	00f12823          	sw	a5,16(sp)
     950:	01c12783          	lw	a5,28(sp)
     954:	00879713          	slli	a4,a5,0x8
     958:	01812783          	lw	a5,24(sp)
     95c:	00f76733          	or	a4,a4,a5
     960:	01412783          	lw	a5,20(sp)
     964:	01879793          	slli	a5,a5,0x18
     968:	00f76733          	or	a4,a4,a5
     96c:	01012783          	lw	a5,16(sp)
     970:	01079793          	slli	a5,a5,0x10
     974:	00f767b3          	or	a5,a4,a5
     978:	00078513          	mv	a0,a5
     97c:	02010113          	addi	sp,sp,32
     980:	00008067          	ret

00000984 <default_irq_handler>:
     984:	ff010113          	addi	sp,sp,-16
     988:	00112623          	sw	ra,12(sp)
     98c:	d64f950b          	addigp	a0,-2716 # 0x19fc <__riscv_restore_0+0x1ba>
     990:	1bd000ef          	jal	ra,0x134c <printf>
     994:	00000013          	nop
     998:	00c12083          	lw	ra,12(sp)
     99c:	01010113          	addi	sp,sp,16
     9a0:	00008067          	ret

000009a4 <mext_interrupt>:
     9a4:	fd010113          	addi	sp,sp,-48
     9a8:	02112623          	sw	ra,44(sp)
     9ac:	00a12623          	sw	a0,12(sp)
     9b0:	300467f3          	csrrsi	a5,mstatus,8
     9b4:	d80f970b          	addigp	a4,-2688 # 0x1a18 <irq_handler>
     9b8:	00c12783          	lw	a5,12(sp)
     9bc:	00279793          	slli	a5,a5,0x2
     9c0:	00f707b3          	add	a5,a4,a5
     9c4:	0007a783          	lw	a5,0(a5)
     9c8:	000780e7          	jalr	a5
     9cc:	00c12783          	lw	a5,12(sp)
     9d0:	00f12e23          	sw	a5,28(sp)
     9d4:	f14027f3          	csrr	a5,mhartid
     9d8:	00f12c23          	sw	a5,24(sp)
     9dc:	01812783          	lw	a5,24(sp)
     9e0:	00c79713          	slli	a4,a5,0xc
     9e4:	e42007b7          	lui	a5,0xe4200
     9e8:	00478793          	addi	a5,a5,4 # 0xe4200004 <boot_loader+0x64200004>
     9ec:	00f707b3          	add	a5,a4,a5
     9f0:	00f12a23          	sw	a5,20(sp)
     9f4:	01412783          	lw	a5,20(sp)
     9f8:	01c12703          	lw	a4,28(sp)
     9fc:	00e7a023          	sw	a4,0(a5)
     a00:	00000013          	nop
     a04:	300477f3          	csrrci	a5,mstatus,8
     a08:	00000013          	nop
     a0c:	02c12083          	lw	ra,44(sp)
     a10:	03010113          	addi	sp,sp,48
     a14:	00008067          	ret

00000a18 <__nds__rotr>:
     a18:	fe010113          	addi	sp,sp,-32
     a1c:	00a12623          	sw	a0,12(sp)
     a20:	00b12423          	sw	a1,8(sp)
     a24:	00812783          	lw	a5,8(sp)
     a28:	01f7f793          	andi	a5,a5,31
     a2c:	00f12e23          	sw	a5,28(sp)
     a30:	00c12783          	lw	a5,12(sp)
     a34:	01c12703          	lw	a4,28(sp)
     a38:	00e7d733          	srl	a4,a5,a4
     a3c:	01c12683          	lw	a3,28(sp)
     a40:	40d006b3          	neg	a3,a3
     a44:	01f6f693          	andi	a3,a3,31
     a48:	00d797b3          	sll	a5,a5,a3
     a4c:	00e7e7b3          	or	a5,a5,a4
     a50:	00078513          	mv	a0,a5
     a54:	02010113          	addi	sp,sp,32
     a58:	00008067          	ret

00000a5c <__nds__wsbh>:
     a5c:	fe010113          	addi	sp,sp,-32
     a60:	00a12623          	sw	a0,12(sp)
     a64:	00c12783          	lw	a5,12(sp)
     a68:	0ff7f793          	zext.b	a5,a5
     a6c:	00f12e23          	sw	a5,28(sp)
     a70:	00c12783          	lw	a5,12(sp)
     a74:	0087d793          	srli	a5,a5,0x8
     a78:	0ff7f793          	zext.b	a5,a5
     a7c:	00f12c23          	sw	a5,24(sp)
     a80:	00c12783          	lw	a5,12(sp)
     a84:	0107d793          	srli	a5,a5,0x10
     a88:	0ff7f793          	zext.b	a5,a5
     a8c:	00f12a23          	sw	a5,20(sp)
     a90:	00c12783          	lw	a5,12(sp)
     a94:	0187d793          	srli	a5,a5,0x18
     a98:	00f12823          	sw	a5,16(sp)
     a9c:	01c12783          	lw	a5,28(sp)
     aa0:	00879713          	slli	a4,a5,0x8
     aa4:	01812783          	lw	a5,24(sp)
     aa8:	00f76733          	or	a4,a4,a5
     aac:	01412783          	lw	a5,20(sp)
     ab0:	01879793          	slli	a5,a5,0x18
     ab4:	00f76733          	or	a4,a4,a5
     ab8:	01012783          	lw	a5,16(sp)
     abc:	01079793          	slli	a5,a5,0x10
     ac0:	00f767b3          	or	a5,a4,a5
     ac4:	00078513          	mv	a0,a5
     ac8:	02010113          	addi	sp,sp,32
     acc:	00008067          	ret

00000ad0 <uart_init>:
     ad0:	ff010113          	addi	sp,sp,-16
     ad4:	00a12623          	sw	a0,12(sp)
     ad8:	f03007b7          	lui	a5,0xf0300
     adc:	02c7a703          	lw	a4,44(a5) # 0xf030002c <boot_loader+0x7030002c>
     ae0:	f03007b7          	lui	a5,0xf0300
     ae4:	08076713          	ori	a4,a4,128
     ae8:	02e7a623          	sw	a4,44(a5) # 0xf030002c <boot_loader+0x7030002c>
     aec:	00c12703          	lw	a4,12(sp)
     af0:	00bec7b7          	lui	a5,0xbec
     af4:	c2078793          	addi	a5,a5,-992 # 0xbebc20 <__global_pointer$+0xbe9788>
     af8:	00f707b3          	add	a5,a4,a5
     afc:	00379713          	slli	a4,a5,0x3
     b00:	00c12783          	lw	a5,12(sp)
     b04:	00479793          	slli	a5,a5,0x4
     b08:	02f75733          	divu	a4,a4,a5
     b0c:	f03007b7          	lui	a5,0xf0300
     b10:	0ff77713          	zext.b	a4,a4
     b14:	02e7a023          	sw	a4,32(a5) # 0xf0300020 <boot_loader+0x70300020>
     b18:	00c12703          	lw	a4,12(sp)
     b1c:	00bec7b7          	lui	a5,0xbec
     b20:	c2078793          	addi	a5,a5,-992 # 0xbebc20 <__global_pointer$+0xbe9788>
     b24:	00f707b3          	add	a5,a4,a5
     b28:	00379713          	slli	a4,a5,0x3
     b2c:	00c12783          	lw	a5,12(sp)
     b30:	00479793          	slli	a5,a5,0x4
     b34:	02f757b3          	divu	a5,a4,a5
     b38:	0087d713          	srli	a4,a5,0x8
     b3c:	f03007b7          	lui	a5,0xf0300
     b40:	0ff77713          	zext.b	a4,a4
     b44:	02e7a223          	sw	a4,36(a5) # 0xf0300024 <boot_loader+0x70300024>
     b48:	f03007b7          	lui	a5,0xf0300
     b4c:	00300713          	li	a4,3
     b50:	02e7a623          	sw	a4,44(a5) # 0xf030002c <boot_loader+0x7030002c>
     b54:	f03007b7          	lui	a5,0xf0300
     b58:	00700713          	li	a4,7
     b5c:	02e7a423          	sw	a4,40(a5) # 0xf0300028 <boot_loader+0x70300028>
     b60:	00000013          	nop
     b64:	01010113          	addi	sp,sp,16
     b68:	00008067          	ret

00000b6c <uart_getc>:
     b6c:	00000013          	nop
     b70:	f03007b7          	lui	a5,0xf0300
     b74:	0347a783          	lw	a5,52(a5) # 0xf0300034 <boot_loader+0x70300034>
     b78:	0017f793          	andi	a5,a5,1
     b7c:	fe078ae3          	beqz	a5,0xb70 <uart_getc+0x4>
     b80:	f03007b7          	lui	a5,0xf0300
     b84:	0207a783          	lw	a5,32(a5) # 0xf0300020 <boot_loader+0x70300020>
     b88:	00078513          	mv	a0,a5
     b8c:	00008067          	ret

00000b90 <uart_putc>:
     b90:	ff010113          	addi	sp,sp,-16
     b94:	00a12623          	sw	a0,12(sp)
     b98:	00000013          	nop
     b9c:	f03007b7          	lui	a5,0xf0300
     ba0:	0347a783          	lw	a5,52(a5) # 0xf0300034 <boot_loader+0x70300034>
     ba4:	0207f793          	andi	a5,a5,32
     ba8:	fe078ae3          	beqz	a5,0xb9c <uart_putc+0xc>
     bac:	f03007b7          	lui	a5,0xf0300
     bb0:	00c12703          	lw	a4,12(sp)
     bb4:	02e7a023          	sw	a4,32(a5) # 0xf0300020 <boot_loader+0x70300020>
     bb8:	00000013          	nop
     bbc:	01010113          	addi	sp,sp,16
     bc0:	00008067          	ret

00000bc4 <uart_puts>:
     bc4:	fd010113          	addi	sp,sp,-48
     bc8:	02112623          	sw	ra,44(sp)
     bcc:	00a12623          	sw	a0,12(sp)
     bd0:	00012e23          	sw	zero,28(sp)
     bd4:	0440006f          	j	0xc18 <uart_puts+0x54>
     bd8:	00c12783          	lw	a5,12(sp)
     bdc:	0007c783          	lbu	a5,0(a5)
     be0:	00078513          	mv	a0,a5
     be4:	fadff0ef          	jal	ra,0xb90 <uart_putc>
     be8:	00c12783          	lw	a5,12(sp)
     bec:	0007c703          	lbu	a4,0(a5)
     bf0:	00a00793          	li	a5,10
     bf4:	00f71663          	bne	a4,a5,0xc00 <uart_puts+0x3c>
     bf8:	00d00513          	li	a0,13
     bfc:	f95ff0ef          	jal	ra,0xb90 <uart_putc>
     c00:	00c12783          	lw	a5,12(sp)
     c04:	00178793          	addi	a5,a5,1
     c08:	00f12623          	sw	a5,12(sp)
     c0c:	01c12783          	lw	a5,28(sp)
     c10:	00178793          	addi	a5,a5,1
     c14:	00f12e23          	sw	a5,28(sp)
     c18:	00c12783          	lw	a5,12(sp)
     c1c:	0007c783          	lbu	a5,0(a5)
     c20:	fa079ce3          	bnez	a5,0xbd8 <uart_puts+0x14>
     c24:	01c12783          	lw	a5,28(sp)
     c28:	00078513          	mv	a0,a5
     c2c:	02c12083          	lw	ra,44(sp)
     c30:	03010113          	addi	sp,sp,48
     c34:	00008067          	ret

00000c38 <outbyte>:
     c38:	fe010113          	addi	sp,sp,-32
     c3c:	00112e23          	sw	ra,28(sp)
     c40:	00a12623          	sw	a0,12(sp)
     c44:	00c12503          	lw	a0,12(sp)
     c48:	f49ff0ef          	jal	ra,0xb90 <uart_putc>
     c4c:	00c12703          	lw	a4,12(sp)
     c50:	00a00793          	li	a5,10
     c54:	00f71663          	bne	a4,a5,0xc60 <outbyte+0x28>
     c58:	00d00513          	li	a0,13
     c5c:	f35ff0ef          	jal	ra,0xb90 <uart_putc>
     c60:	00c12783          	lw	a5,12(sp)
     c64:	00078513          	mv	a0,a5
     c68:	01c12083          	lw	ra,28(sp)
     c6c:	02010113          	addi	sp,sp,32
     c70:	00008067          	ret

00000c74 <__nds__rotr>:
     c74:	fe010113          	addi	sp,sp,-32
     c78:	00a12623          	sw	a0,12(sp)
     c7c:	00b12423          	sw	a1,8(sp)
     c80:	00812783          	lw	a5,8(sp)
     c84:	01f7f793          	andi	a5,a5,31
     c88:	00f12e23          	sw	a5,28(sp)
     c8c:	00c12783          	lw	a5,12(sp)
     c90:	01c12703          	lw	a4,28(sp)
     c94:	00e7d733          	srl	a4,a5,a4
     c98:	01c12683          	lw	a3,28(sp)
     c9c:	40d006b3          	neg	a3,a3
     ca0:	01f6f693          	andi	a3,a3,31
     ca4:	00d797b3          	sll	a5,a5,a3
     ca8:	00e7e7b3          	or	a5,a5,a4
     cac:	00078513          	mv	a0,a5
     cb0:	02010113          	addi	sp,sp,32
     cb4:	00008067          	ret

00000cb8 <__nds__wsbh>:
     cb8:	fe010113          	addi	sp,sp,-32
     cbc:	00a12623          	sw	a0,12(sp)
     cc0:	00c12783          	lw	a5,12(sp)
     cc4:	0ff7f793          	zext.b	a5,a5
     cc8:	00f12e23          	sw	a5,28(sp)
     ccc:	00c12783          	lw	a5,12(sp)
     cd0:	0087d793          	srli	a5,a5,0x8
     cd4:	0ff7f793          	zext.b	a5,a5
     cd8:	00f12c23          	sw	a5,24(sp)
     cdc:	00c12783          	lw	a5,12(sp)
     ce0:	0107d793          	srli	a5,a5,0x10
     ce4:	0ff7f793          	zext.b	a5,a5
     ce8:	00f12a23          	sw	a5,20(sp)
     cec:	00c12783          	lw	a5,12(sp)
     cf0:	0187d793          	srli	a5,a5,0x18
     cf4:	00f12823          	sw	a5,16(sp)
     cf8:	01c12783          	lw	a5,28(sp)
     cfc:	00879713          	slli	a4,a5,0x8
     d00:	01812783          	lw	a5,24(sp)
     d04:	00f76733          	or	a4,a4,a5
     d08:	01412783          	lw	a5,20(sp)
     d0c:	01879793          	slli	a5,a5,0x18
     d10:	00f76733          	or	a4,a4,a5
     d14:	01012783          	lw	a5,16(sp)
     d18:	01079793          	slli	a5,a5,0x10
     d1c:	00f767b3          	or	a5,a4,a5
     d20:	00078513          	mv	a0,a5
     d24:	02010113          	addi	sp,sp,32
     d28:	00008067          	ret

00000d2c <get_core_freq>:
     d2c:	32000793          	li	a5,800
     d30:	00078513          	mv	a0,a5
     d34:	00008067          	ret

00000d38 <rdmcycle>:
     d38:	ff010113          	addi	sp,sp,-16
     d3c:	b8002373          	csrr	t1,mcycleh
     d40:	00612623          	sw	t1,12(sp)
     d44:	b0002373          	csrr	t1,mcycle
     d48:	00612423          	sw	t1,8(sp)
     d4c:	b8002373          	csrr	t1,mcycleh
     d50:	00c12e03          	lw	t3,12(sp)
     d54:	fe6e14e3          	bne	t3,t1,0xd3c <rdmcycle+0x4>
     d58:	00c12303          	lw	t1,12(sp)
     d5c:	00030813          	mv	a6,t1
     d60:	00000893          	li	a7,0
     d64:	00081793          	slli	a5,a6,0x0
     d68:	00000713          	li	a4,0
     d6c:	00812803          	lw	a6,8(sp)
     d70:	00080613          	mv	a2,a6
     d74:	00000693          	li	a3,0
     d78:	00c76533          	or	a0,a4,a2
     d7c:	00d7e5b3          	or	a1,a5,a3
     d80:	00050713          	mv	a4,a0
     d84:	00058793          	mv	a5,a1
     d88:	00070513          	mv	a0,a4
     d8c:	00078593          	mv	a1,a5
     d90:	01010113          	addi	sp,sp,16
     d94:	00008067          	ret

00000d98 <time>:
     d98:	ff010113          	addi	sp,sp,-16
     d9c:	00112623          	sw	ra,12(sp)
     da0:	00812423          	sw	s0,8(sp)
     da4:	f95ff0ef          	jal	ra,0xd38 <rdmcycle>
     da8:	00050713          	mv	a4,a0
     dac:	00058793          	mv	a5,a1
     db0:	00070513          	mv	a0,a4
     db4:	00078593          	mv	a1,a5
     db8:	06d000ef          	jal	ra,0x1624 <__floatundisf>
     dbc:	00050413          	mv	s0,a0
     dc0:	f6dff0ef          	jal	ra,0xd2c <get_core_freq>
     dc4:	00050793          	mv	a5,a0
     dc8:	00078513          	mv	a0,a5
     dcc:	01d000ef          	jal	ra,0x15e8 <__floatunsisf>
     dd0:	00050793          	mv	a5,a0
     dd4:	00078593          	mv	a1,a5
     dd8:	00040513          	mv	a0,s0
     ddc:	660000ef          	jal	ra,0x143c <__divsf3>
     de0:	00050793          	mv	a5,a0
     de4:	00078513          	mv	a0,a5
     de8:	7ac000ef          	jal	ra,0x1594 <__fixsfsi>
     dec:	00050793          	mv	a5,a0
     df0:	00078513          	mv	a0,a5
     df4:	00c12083          	lw	ra,12(sp)
     df8:	00812403          	lw	s0,8(sp)
     dfc:	01010113          	addi	sp,sp,16
     e00:	00008067          	ret

00000e04 <simple_delay_ms>:
     e04:	ff010113          	addi	sp,sp,-16
     e08:	00a12623          	sw	a0,12(sp)
     e0c:	00c12703          	lw	a4,12(sp)
     e10:	000017b7          	lui	a5,0x1
     e14:	beb78793          	addi	a5,a5,-1045 # 0xbeb <uart_puts+0x27>
     e18:	02f707b3          	mul	a5,a4,a5
     e1c:	00f12623          	sw	a5,12(sp)
     e20:	0100006f          	j	0xe30 <simple_delay_ms+0x2c>
     e24:	00c12783          	lw	a5,12(sp)
     e28:	fff78793          	addi	a5,a5,-1
     e2c:	00f12623          	sw	a5,12(sp)
     e30:	00c12783          	lw	a5,12(sp)
     e34:	fe0798e3          	bnez	a5,0xe24 <simple_delay_ms+0x20>
     e38:	00000013          	nop
     e3c:	00000013          	nop
     e40:	01010113          	addi	sp,sp,16
     e44:	00008067          	ret

00000e48 <printchar>:
     e48:	1101                	c.addi	sp,-32
     e4a:	ce06                	c.swsp	ra,28(sp)
     e4c:	cc22                	c.swsp	s0,24(sp)
     e4e:	1000                	c.addi4spn	s0,sp,32
     e50:	fea42623          	sw	a0,-20(s0)
     e54:	feb42423          	sw	a1,-24(s0)
     e58:	fec42783          	lw	a5,-20(s0)
     e5c:	c785                	c.beqz	a5,0xe84 <printchar+0x3c>
     e5e:	fec42783          	lw	a5,-20(s0)
     e62:	439c                	c.lw	a5,0(a5)
     e64:	fe842703          	lw	a4,-24(s0)
     e68:	0ff77713          	zext.b	a4,a4
     e6c:	00e78023          	sb	a4,0(a5)
     e70:	fec42783          	lw	a5,-20(s0)
     e74:	439c                	c.lw	a5,0(a5)
     e76:	00178713          	addi	a4,a5,1
     e7a:	fec42783          	lw	a5,-20(s0)
     e7e:	c398                	c.sw	a4,0(a5)
     e80:	00c0006f          	j	0xe8c <printchar+0x44>
     e84:	fe842503          	lw	a0,-24(s0)
     e88:	db1ff0ef          	jal	ra,0xc38 <outbyte>
     e8c:	0001                	c.nop
     e8e:	40f2                	c.lwsp	ra,28(sp)
     e90:	4462                	c.lwsp	s0,24(sp)
     e92:	6105                	c.addi16sp	sp,32
     e94:	00008067          	ret

00000e98 <prints>:
     e98:	7179                	c.addi16sp	sp,-48
     e9a:	d606                	c.swsp	ra,44(sp)
     e9c:	d422                	c.swsp	s0,40(sp)
     e9e:	d226                	c.swsp	s1,36(sp)
     ea0:	d04a                	c.swsp	s2,32(sp)
     ea2:	ce4e                	c.swsp	s3,28(sp)
     ea4:	cc52                	c.swsp	s4,24(sp)
     ea6:	1800                	c.addi4spn	s0,sp,48
     ea8:	fca42e23          	sw	a0,-36(s0)
     eac:	fcb42c23          	sw	a1,-40(s0)
     eb0:	fcc42a23          	sw	a2,-44(s0)
     eb4:	fcd42823          	sw	a3,-48(s0)
     eb8:	4481                	c.li	s1,0
     eba:	02000a13          	li	s4,32
     ebe:	fd442783          	lw	a5,-44(s0)
     ec2:	02f05f63          	blez	a5,0xf00 <prints+0x68>
     ec6:	4901                	c.li	s2,0
     ec8:	fd842983          	lw	s3,-40(s0)
     ecc:	0080006f          	j	0xed4 <prints+0x3c>
     ed0:	0905                	c.addi	s2,1
     ed2:	0985                	c.addi	s3,1
     ed4:	0009c783          	lbu	a5,0(s3)
     ed8:	ffe5                	c.bnez	a5,0xed0 <prints+0x38>
     eda:	fd442783          	lw	a5,-44(s0)
     ede:	00f94563          	blt	s2,a5,0xee8 <prints+0x50>
     ee2:	fc042a23          	sw	zero,-44(s0)
     ee6:	a039                	c.j	0xef4 <prints+0x5c>
     ee8:	fd442783          	lw	a5,-44(s0)
     eec:	412787b3          	sub	a5,a5,s2
     ef0:	fcf42a23          	sw	a5,-44(s0)
     ef4:	fd042783          	lw	a5,-48(s0)
     ef8:	8b89                	c.andi	a5,2
     efa:	c399                	c.beqz	a5,0xf00 <prints+0x68>
     efc:	03000a13          	li	s4,48
     f00:	fd042783          	lw	a5,-48(s0)
     f04:	8b85                	c.andi	a5,1
     f06:	e3a9                	c.bnez	a5,0xf48 <prints+0xb0>
     f08:	0180006f          	j	0xf20 <prints+0x88>
     f0c:	85d2                	c.mv	a1,s4
     f0e:	fdc42503          	lw	a0,-36(s0)
     f12:	3f1d                	c.jal	0xe48 <printchar>
     f14:	0485                	c.addi	s1,1
     f16:	fd442783          	lw	a5,-44(s0)
     f1a:	17fd                	c.addi	a5,-1
     f1c:	fcf42a23          	sw	a5,-44(s0)
     f20:	fd442783          	lw	a5,-44(s0)
     f24:	fef044e3          	bgtz	a5,0xf0c <prints+0x74>
     f28:	0200006f          	j	0xf48 <prints+0xb0>
     f2c:	fd842783          	lw	a5,-40(s0)
     f30:	0007c783          	lbu	a5,0(a5)
     f34:	85be                	c.mv	a1,a5
     f36:	fdc42503          	lw	a0,-36(s0)
     f3a:	3739                	c.jal	0xe48 <printchar>
     f3c:	0485                	c.addi	s1,1
     f3e:	fd842783          	lw	a5,-40(s0)
     f42:	0785                	c.addi	a5,1
     f44:	fcf42c23          	sw	a5,-40(s0)
     f48:	fd842783          	lw	a5,-40(s0)
     f4c:	0007c783          	lbu	a5,0(a5)
     f50:	fff1                	c.bnez	a5,0xf2c <prints+0x94>
     f52:	a819                	c.j	0xf68 <prints+0xd0>
     f54:	85d2                	c.mv	a1,s4
     f56:	fdc42503          	lw	a0,-36(s0)
     f5a:	35fd                	c.jal	0xe48 <printchar>
     f5c:	0485                	c.addi	s1,1
     f5e:	fd442783          	lw	a5,-44(s0)
     f62:	17fd                	c.addi	a5,-1
     f64:	fcf42a23          	sw	a5,-44(s0)
     f68:	fd442783          	lw	a5,-44(s0)
     f6c:	fef044e3          	bgtz	a5,0xf54 <prints+0xbc>
     f70:	87a6                	c.mv	a5,s1
     f72:	853e                	c.mv	a0,a5
     f74:	50b2                	c.lwsp	ra,44(sp)
     f76:	5422                	c.lwsp	s0,40(sp)
     f78:	5492                	c.lwsp	s1,36(sp)
     f7a:	5902                	c.lwsp	s2,32(sp)
     f7c:	49f2                	c.lwsp	s3,28(sp)
     f7e:	4a62                	c.lwsp	s4,24(sp)
     f80:	6145                	c.addi16sp	sp,48
     f82:	8082                	c.jr	ra

00000f84 <printi>:
     f84:	715d                	c.addi16sp	sp,-80
     f86:	c686                	c.swsp	ra,76(sp)
     f88:	c4a2                	c.swsp	s0,72(sp)
     f8a:	c2a6                	c.swsp	s1,68(sp)
     f8c:	c0ca                	c.swsp	s2,64(sp)
     f8e:	de4e                	c.swsp	s3,60(sp)
     f90:	dc52                	c.swsp	s4,56(sp)
     f92:	da56                	c.swsp	s5,52(sp)
     f94:	0880                	c.addi4spn	s0,sp,80
     f96:	fca42623          	sw	a0,-52(s0)
     f9a:	fcb42423          	sw	a1,-56(s0)
     f9e:	fcc42223          	sw	a2,-60(s0)
     fa2:	fcd42023          	sw	a3,-64(s0)
     fa6:	fae42e23          	sw	a4,-68(s0)
     faa:	faf42c23          	sw	a5,-72(s0)
     fae:	fb042a23          	sw	a6,-76(s0)
     fb2:	4a81                	c.li	s5,0
     fb4:	4a01                	c.li	s4,0
     fb6:	fc842903          	lw	s2,-56(s0)
     fba:	fc842783          	lw	a5,-56(s0)
     fbe:	e39d                	c.bnez	a5,0xfe4 <printi+0x60>
     fc0:	03000793          	li	a5,48
     fc4:	fcf40a23          	sb	a5,-44(s0)
     fc8:	fc040aa3          	sb	zero,-43(s0)
     fcc:	fd440793          	addi	a5,s0,-44
     fd0:	fb842683          	lw	a3,-72(s0)
     fd4:	fbc42603          	lw	a2,-68(s0)
     fd8:	85be                	c.mv	a1,a5
     fda:	fcc42503          	lw	a0,-52(s0)
     fde:	3d6d                	c.jal	0xe98 <prints>
     fe0:	87aa                	c.mv	a5,a0
     fe2:	a86d                	c.j	0x109c <printi+0x118>
     fe4:	fc042783          	lw	a5,-64(s0)
     fe8:	c385                	c.beqz	a5,0x1008 <printi+0x84>
     fea:	fc442703          	lw	a4,-60(s0)
     fee:	47a9                	c.li	a5,10
     ff0:	00f71c63          	bne	a4,a5,0x1008 <printi+0x84>
     ff4:	fc842783          	lw	a5,-56(s0)
     ff8:	0007d863          	bgez	a5,0x1008 <printi+0x84>
     ffc:	4a85                	c.li	s5,1
     ffe:	fc842783          	lw	a5,-56(s0)
    1002:	40f007b3          	neg	a5,a5
    1006:	893e                	c.mv	s2,a5
    1008:	fd440493          	addi	s1,s0,-44
    100c:	04ad                	c.addi	s1,11
    100e:	00048023          	sb	zero,0(s1)
    1012:	a82d                	c.j	0x104c <printi+0xc8>
    1014:	fc442783          	lw	a5,-60(s0)
    1018:	02f977b3          	remu	a5,s2,a5
    101c:	89be                	c.mv	s3,a5
    101e:	47a5                	c.li	a5,9
    1020:	0137d863          	bge	a5,s3,0x1030 <printi+0xac>
    1024:	fb442783          	lw	a5,-76(s0)
    1028:	fc678793          	addi	a5,a5,-58
    102c:	00f989b3          	add	s3,s3,a5
    1030:	0ff9f793          	zext.b	a5,s3
    1034:	fff48493          	addi	s1,s1,-1
    1038:	03078793          	addi	a5,a5,48
    103c:	0ff7f793          	zext.b	a5,a5
    1040:	00f48023          	sb	a5,0(s1)
    1044:	fc442783          	lw	a5,-60(s0)
    1048:	02f95933          	divu	s2,s2,a5
    104c:	fc0914e3          	bnez	s2,0x1014 <printi+0x90>
    1050:	020a8c63          	beqz	s5,0x1088 <printi+0x104>
    1054:	fbc42783          	lw	a5,-68(s0)
    1058:	c395                	c.beqz	a5,0x107c <printi+0xf8>
    105a:	fb842783          	lw	a5,-72(s0)
    105e:	8b89                	c.andi	a5,2
    1060:	cf91                	c.beqz	a5,0x107c <printi+0xf8>
    1062:	02d00593          	li	a1,45
    1066:	fcc42503          	lw	a0,-52(s0)
    106a:	3bf9                	c.jal	0xe48 <printchar>
    106c:	0a05                	c.addi	s4,1
    106e:	fbc42783          	lw	a5,-68(s0)
    1072:	17fd                	c.addi	a5,-1
    1074:	faf42e23          	sw	a5,-68(s0)
    1078:	0100006f          	j	0x1088 <printi+0x104>
    107c:	fff48493          	addi	s1,s1,-1
    1080:	02d00793          	li	a5,45
    1084:	00f48023          	sb	a5,0(s1)
    1088:	fb842683          	lw	a3,-72(s0)
    108c:	fbc42603          	lw	a2,-68(s0)
    1090:	85a6                	c.mv	a1,s1
    1092:	fcc42503          	lw	a0,-52(s0)
    1096:	3509                	c.jal	0xe98 <prints>
    1098:	87aa                	c.mv	a5,a0
    109a:	97d2                	c.add	a5,s4
    109c:	853e                	c.mv	a0,a5
    109e:	40b6                	c.lwsp	ra,76(sp)
    10a0:	4426                	c.lwsp	s0,72(sp)
    10a2:	4496                	c.lwsp	s1,68(sp)
    10a4:	4906                	c.lwsp	s2,64(sp)
    10a6:	59f2                	c.lwsp	s3,60(sp)
    10a8:	5a62                	c.lwsp	s4,56(sp)
    10aa:	5ad2                	c.lwsp	s5,52(sp)
    10ac:	6161                	c.addi16sp	sp,80
    10ae:	8082                	c.jr	ra

000010b0 <print>:
    10b0:	7139                	c.addi16sp	sp,-64
    10b2:	de06                	c.swsp	ra,60(sp)
    10b4:	dc22                	c.swsp	s0,56(sp)
    10b6:	da26                	c.swsp	s1,52(sp)
    10b8:	d84a                	c.swsp	s2,48(sp)
    10ba:	d64e                	c.swsp	s3,44(sp)
    10bc:	d452                	c.swsp	s4,40(sp)
    10be:	0080                	c.addi4spn	s0,sp,64
    10c0:	fca42623          	sw	a0,-52(s0)
    10c4:	fcb42423          	sw	a1,-56(s0)
    10c8:	fcc42223          	sw	a2,-60(s0)
    10cc:	4481                	c.li	s1,0
    10ce:	a499                	c.j	0x1314 <print+0x264>
    10d0:	fc842783          	lw	a5,-56(s0)
    10d4:	0007c703          	lbu	a4,0(a5)
    10d8:	02500793          	li	a5,37
    10dc:	20f71863          	bne	a4,a5,0x12ec <print+0x23c>
    10e0:	fc842783          	lw	a5,-56(s0)
    10e4:	0785                	c.addi	a5,1
    10e6:	fcf42423          	sw	a5,-56(s0)
    10ea:	4981                	c.li	s3,0
    10ec:	894e                	c.mv	s2,s3
    10ee:	fc842783          	lw	a5,-56(s0)
    10f2:	0007c783          	lbu	a5,0(a5)
    10f6:	22078763          	beqz	a5,0x1324 <print+0x274>
    10fa:	fc842783          	lw	a5,-56(s0)
    10fe:	0007c703          	lbu	a4,0(a5)
    1102:	02500793          	li	a5,37
    1106:	1ef70563          	beq	a4,a5,0x12f0 <print+0x240>
    110a:	fc842783          	lw	a5,-56(s0)
    110e:	0007c703          	lbu	a4,0(a5)
    1112:	02d00793          	li	a5,45
    1116:	02f71163          	bne	a4,a5,0x1138 <print+0x88>
    111a:	fc842783          	lw	a5,-56(s0)
    111e:	0785                	c.addi	a5,1
    1120:	fcf42423          	sw	a5,-56(s0)
    1124:	4985                	c.li	s3,1
    1126:	a809                	c.j	0x1138 <print+0x88>
    1128:	fc842783          	lw	a5,-56(s0)
    112c:	00178793          	addi	a5,a5,1
    1130:	fcf42423          	sw	a5,-56(s0)
    1134:	0029e993          	ori	s3,s3,2
    1138:	fc842783          	lw	a5,-56(s0)
    113c:	0007c703          	lbu	a4,0(a5)
    1140:	03000793          	li	a5,48
    1144:	fef702e3          	beq	a4,a5,0x1128 <print+0x78>
    1148:	0240006f          	j	0x116c <print+0xbc>
    114c:	47a9                	c.li	a5,10
    114e:	02f90933          	mul	s2,s2,a5
    1152:	fc842783          	lw	a5,-56(s0)
    1156:	0007c783          	lbu	a5,0(a5)
    115a:	fd078793          	addi	a5,a5,-48
    115e:	993e                	c.add	s2,a5
    1160:	fc842783          	lw	a5,-56(s0)
    1164:	00178793          	addi	a5,a5,1
    1168:	fcf42423          	sw	a5,-56(s0)
    116c:	fc842783          	lw	a5,-56(s0)
    1170:	0007c703          	lbu	a4,0(a5)
    1174:	02f00793          	li	a5,47
    1178:	00e7fa63          	bgeu	a5,a4,0x118c <print+0xdc>
    117c:	fc842783          	lw	a5,-56(s0)
    1180:	0007c703          	lbu	a4,0(a5)
    1184:	03900793          	li	a5,57
    1188:	fce7f2e3          	bgeu	a5,a4,0x114c <print+0x9c>
    118c:	fc842783          	lw	a5,-56(s0)
    1190:	0007c703          	lbu	a4,0(a5)
    1194:	07300793          	li	a5,115
    1198:	02f71a63          	bne	a4,a5,0x11cc <print+0x11c>
    119c:	fc442783          	lw	a5,-60(s0)
    11a0:	00478713          	addi	a4,a5,4
    11a4:	fce42223          	sw	a4,-60(s0)
    11a8:	439c                	c.lw	a5,0(a5)
    11aa:	8a3e                	c.mv	s4,a5
    11ac:	000a0463          	beqz	s4,0x11b4 <print+0x104>
    11b0:	87d2                	c.mv	a5,s4
    11b2:	a019                	c.j	0x11b8 <print+0x108>
    11b4:	e00f978b          	addigp	a5,-2560 # 0x1a98 <irq_handler+0x80>
    11b8:	86ce                	c.mv	a3,s3
    11ba:	864a                	c.mv	a2,s2
    11bc:	85be                	c.mv	a1,a5
    11be:	fcc42503          	lw	a0,-52(s0)
    11c2:	39d9                	c.jal	0xe98 <prints>
    11c4:	87aa                	c.mv	a5,a0
    11c6:	94be                	c.add	s1,a5
    11c8:	1400006f          	j	0x1308 <print+0x258>
    11cc:	fc842783          	lw	a5,-56(s0)
    11d0:	0007c703          	lbu	a4,0(a5)
    11d4:	06400793          	li	a5,100
    11d8:	02f71663          	bne	a4,a5,0x1204 <print+0x154>
    11dc:	fc442783          	lw	a5,-60(s0)
    11e0:	00478713          	addi	a4,a5,4
    11e4:	fce42223          	sw	a4,-60(s0)
    11e8:	438c                	c.lw	a1,0(a5)
    11ea:	06100813          	li	a6,97
    11ee:	87ce                	c.mv	a5,s3
    11f0:	874a                	c.mv	a4,s2
    11f2:	4685                	c.li	a3,1
    11f4:	4629                	c.li	a2,10
    11f6:	fcc42503          	lw	a0,-52(s0)
    11fa:	3369                	c.jal	0xf84 <printi>
    11fc:	87aa                	c.mv	a5,a0
    11fe:	94be                	c.add	s1,a5
    1200:	1080006f          	j	0x1308 <print+0x258>
    1204:	fc842783          	lw	a5,-56(s0)
    1208:	0007c703          	lbu	a4,0(a5)
    120c:	07800793          	li	a5,120
    1210:	02f71663          	bne	a4,a5,0x123c <print+0x18c>
    1214:	fc442783          	lw	a5,-60(s0)
    1218:	00478713          	addi	a4,a5,4
    121c:	fce42223          	sw	a4,-60(s0)
    1220:	438c                	c.lw	a1,0(a5)
    1222:	06100813          	li	a6,97
    1226:	87ce                	c.mv	a5,s3
    1228:	874a                	c.mv	a4,s2
    122a:	4681                	c.li	a3,0
    122c:	4641                	c.li	a2,16
    122e:	fcc42503          	lw	a0,-52(s0)
    1232:	3b89                	c.jal	0xf84 <printi>
    1234:	87aa                	c.mv	a5,a0
    1236:	94be                	c.add	s1,a5
    1238:	0d00006f          	j	0x1308 <print+0x258>
    123c:	fc842783          	lw	a5,-56(s0)
    1240:	0007c703          	lbu	a4,0(a5)
    1244:	05800793          	li	a5,88
    1248:	02f71663          	bne	a4,a5,0x1274 <print+0x1c4>
    124c:	fc442783          	lw	a5,-60(s0)
    1250:	00478713          	addi	a4,a5,4
    1254:	fce42223          	sw	a4,-60(s0)
    1258:	438c                	c.lw	a1,0(a5)
    125a:	04100813          	li	a6,65
    125e:	87ce                	c.mv	a5,s3
    1260:	874a                	c.mv	a4,s2
    1262:	4681                	c.li	a3,0
    1264:	4641                	c.li	a2,16
    1266:	fcc42503          	lw	a0,-52(s0)
    126a:	3b29                	c.jal	0xf84 <printi>
    126c:	87aa                	c.mv	a5,a0
    126e:	94be                	c.add	s1,a5
    1270:	0980006f          	j	0x1308 <print+0x258>
    1274:	fc842783          	lw	a5,-56(s0)
    1278:	0007c703          	lbu	a4,0(a5)
    127c:	07500793          	li	a5,117
    1280:	02f71663          	bne	a4,a5,0x12ac <print+0x1fc>
    1284:	fc442783          	lw	a5,-60(s0)
    1288:	00478713          	addi	a4,a5,4
    128c:	fce42223          	sw	a4,-60(s0)
    1290:	438c                	c.lw	a1,0(a5)
    1292:	06100813          	li	a6,97
    1296:	87ce                	c.mv	a5,s3
    1298:	874a                	c.mv	a4,s2
    129a:	4681                	c.li	a3,0
    129c:	4629                	c.li	a2,10
    129e:	fcc42503          	lw	a0,-52(s0)
    12a2:	31cd                	c.jal	0xf84 <printi>
    12a4:	87aa                	c.mv	a5,a0
    12a6:	94be                	c.add	s1,a5
    12a8:	0600006f          	j	0x1308 <print+0x258>
    12ac:	fc842783          	lw	a5,-56(s0)
    12b0:	0007c703          	lbu	a4,0(a5)
    12b4:	06300793          	li	a5,99
    12b8:	04f71863          	bne	a4,a5,0x1308 <print+0x258>
    12bc:	fc442783          	lw	a5,-60(s0)
    12c0:	00478713          	addi	a4,a5,4
    12c4:	fce42223          	sw	a4,-60(s0)
    12c8:	439c                	c.lw	a5,0(a5)
    12ca:	0ff7f793          	zext.b	a5,a5
    12ce:	fcf40e23          	sb	a5,-36(s0)
    12d2:	fc040ea3          	sb	zero,-35(s0)
    12d6:	fdc40793          	addi	a5,s0,-36
    12da:	86ce                	c.mv	a3,s3
    12dc:	864a                	c.mv	a2,s2
    12de:	85be                	c.mv	a1,a5
    12e0:	fcc42503          	lw	a0,-52(s0)
    12e4:	3e55                	c.jal	0xe98 <prints>
    12e6:	87aa                	c.mv	a5,a0
    12e8:	94be                	c.add	s1,a5
    12ea:	a839                	c.j	0x1308 <print+0x258>
    12ec:	0001                	c.nop
    12ee:	a019                	c.j	0x12f4 <print+0x244>
    12f0:	00000013          	nop
    12f4:	fc842783          	lw	a5,-56(s0)
    12f8:	0007c783          	lbu	a5,0(a5)
    12fc:	85be                	c.mv	a1,a5
    12fe:	fcc42503          	lw	a0,-52(s0)
    1302:	3699                	c.jal	0xe48 <printchar>
    1304:	00148493          	addi	s1,s1,1
    1308:	fc842783          	lw	a5,-56(s0)
    130c:	00178793          	addi	a5,a5,1
    1310:	fcf42423          	sw	a5,-56(s0)
    1314:	fc842783          	lw	a5,-56(s0)
    1318:	0007c783          	lbu	a5,0(a5)
    131c:	da079ae3          	bnez	a5,0x10d0 <print+0x20>
    1320:	0080006f          	j	0x1328 <print+0x278>
    1324:	00000013          	nop
    1328:	fcc42783          	lw	a5,-52(s0)
    132c:	c791                	c.beqz	a5,0x1338 <print+0x288>
    132e:	fcc42783          	lw	a5,-52(s0)
    1332:	439c                	c.lw	a5,0(a5)
    1334:	00078023          	sb	zero,0(a5)
    1338:	87a6                	c.mv	a5,s1
    133a:	853e                	c.mv	a0,a5
    133c:	50f2                	c.lwsp	ra,60(sp)
    133e:	5462                	c.lwsp	s0,56(sp)
    1340:	54d2                	c.lwsp	s1,52(sp)
    1342:	5942                	c.lwsp	s2,48(sp)
    1344:	59b2                	c.lwsp	s3,44(sp)
    1346:	5a22                	c.lwsp	s4,40(sp)
    1348:	6121                	c.addi16sp	sp,64
    134a:	8082                	c.jr	ra

0000134c <printf>:
    134c:	715d                	c.addi16sp	sp,-80
    134e:	d606                	c.swsp	ra,44(sp)
    1350:	d422                	c.swsp	s0,40(sp)
    1352:	1800                	c.addi4spn	s0,sp,48
    1354:	fca42e23          	sw	a0,-36(s0)
    1358:	c04c                	c.sw	a1,4(s0)
    135a:	c410                	c.sw	a2,8(s0)
    135c:	c454                	c.sw	a3,12(s0)
    135e:	c818                	c.sw	a4,16(s0)
    1360:	c85c                	c.sw	a5,20(s0)
    1362:	01042c23          	sw	a6,24(s0)
    1366:	01142e23          	sw	a7,28(s0)
    136a:	02040793          	addi	a5,s0,32
    136e:	fcf42c23          	sw	a5,-40(s0)
    1372:	fd842783          	lw	a5,-40(s0)
    1376:	1791                	c.addi	a5,-28
    1378:	fef42623          	sw	a5,-20(s0)
    137c:	fec42783          	lw	a5,-20(s0)
    1380:	863e                	c.mv	a2,a5
    1382:	fdc42583          	lw	a1,-36(s0)
    1386:	4501                	c.li	a0,0
    1388:	3325                	c.jal	0x10b0 <print>
    138a:	87aa                	c.mv	a5,a0
    138c:	853e                	c.mv	a0,a5
    138e:	50b2                	c.lwsp	ra,44(sp)
    1390:	5422                	c.lwsp	s0,40(sp)
    1392:	6161                	c.addi16sp	sp,80
    1394:	00008067          	ret

00001398 <sprintf>:
    1398:	715d                	c.addi16sp	sp,-80
    139a:	d606                	c.swsp	ra,44(sp)
    139c:	d422                	c.swsp	s0,40(sp)
    139e:	1800                	c.addi4spn	s0,sp,48
    13a0:	fca42e23          	sw	a0,-36(s0)
    13a4:	fcb42c23          	sw	a1,-40(s0)
    13a8:	c410                	c.sw	a2,8(s0)
    13aa:	c454                	c.sw	a3,12(s0)
    13ac:	c818                	c.sw	a4,16(s0)
    13ae:	c85c                	c.sw	a5,20(s0)
    13b0:	01042c23          	sw	a6,24(s0)
    13b4:	01142e23          	sw	a7,28(s0)
    13b8:	02040793          	addi	a5,s0,32
    13bc:	fcf42a23          	sw	a5,-44(s0)
    13c0:	fd442783          	lw	a5,-44(s0)
    13c4:	17a1                	c.addi	a5,-24
    13c6:	fef42623          	sw	a5,-20(s0)
    13ca:	fec42703          	lw	a4,-20(s0)
    13ce:	fdc40793          	addi	a5,s0,-36
    13d2:	863a                	c.mv	a2,a4
    13d4:	fd842583          	lw	a1,-40(s0)
    13d8:	853e                	c.mv	a0,a5
    13da:	39d9                	c.jal	0x10b0 <print>
    13dc:	87aa                	c.mv	a5,a0
    13de:	853e                	c.mv	a0,a5
    13e0:	50b2                	c.lwsp	ra,44(sp)
    13e2:	5422                	c.lwsp	s0,40(sp)
    13e4:	6161                	c.addi16sp	sp,80
    13e6:	8082                	c.jr	ra

000013e8 <snprintf>:
    13e8:	715d                	c.addi16sp	sp,-80
    13ea:	d606                	c.swsp	ra,44(sp)
    13ec:	d422                	c.swsp	s0,40(sp)
    13ee:	1800                	c.addi4spn	s0,sp,48
    13f0:	fca42e23          	sw	a0,-36(s0)
    13f4:	fcb42c23          	sw	a1,-40(s0)
    13f8:	fcc42a23          	sw	a2,-44(s0)
    13fc:	c454                	c.sw	a3,12(s0)
    13fe:	c818                	c.sw	a4,16(s0)
    1400:	c85c                	c.sw	a5,20(s0)
    1402:	01042c23          	sw	a6,24(s0)
    1406:	01142e23          	sw	a7,28(s0)
    140a:	02040793          	addi	a5,s0,32
    140e:	fcf42823          	sw	a5,-48(s0)
    1412:	fd042783          	lw	a5,-48(s0)
    1416:	17b1                	c.addi	a5,-20
    1418:	fef42623          	sw	a5,-20(s0)
    141c:	fec42703          	lw	a4,-20(s0)
    1420:	fdc40793          	addi	a5,s0,-36
    1424:	863a                	c.mv	a2,a4
    1426:	fd442583          	lw	a1,-44(s0)
    142a:	853e                	c.mv	a0,a5
    142c:	3151                	c.jal	0x10b0 <print>
    142e:	87aa                	c.mv	a5,a0
    1430:	853e                	c.mv	a0,a5
    1432:	50b2                	c.lwsp	ra,44(sp)
    1434:	5422                	c.lwsp	s0,40(sp)
    1436:	6161                	c.addi16sp	sp,80
    1438:	8082                	c.jr	ra
    143a:	0001                	c.nop

0000143c <__divsf3>:
    143c:	00a5ce33          	xor	t3,a1,a0
    1440:	80000737          	lui	a4,0x80000
    1444:	00ee7e33          	and	t3,t3,a4
    1448:	00151613          	slli	a2,a0,0x1
    144c:	0586                	c.slli	a1,0x1
    144e:	01865293          	srli	t0,a2,0x18
    1452:	0185d393          	srli	t2,a1,0x18
    1456:	061e                	c.slli	a2,0x7
    1458:	00759693          	slli	a3,a1,0x7
    145c:	0a028a63          	beqz	t0,0x1510 <__divsf3+0xd4>
    1460:	0ff00893          	li	a7,255
    1464:	0d128863          	beq	t0,a7,0x1534 <__divsf3+0xf8>
    1468:	8e59                	c.or	a2,a4
    146a:	0e038363          	beqz	t2,0x1550 <__divsf3+0x114>
    146e:	0ff00893          	li	a7,255
    1472:	0d138a63          	beq	t2,a7,0x1546 <__divsf3+0x10a>
    1476:	8ed9                	c.or	a3,a4
    1478:	00d63fb3          	sltu	t6,a2,a3
    147c:	000f9463          	bnez	t6,0x1484 <__divsf3+0x48>
    1480:	8205                	c.srli	a2,0x1
    1482:	0285                	c.addi	t0,1
    1484:	00e6d793          	srli	a5,a3,0xe
    1488:	6891                	c.lui	a7,0x4
    148a:	18fd                	c.addi	a7,-1 # 0x3fff <__global_pointer$+0x1b67>
    148c:	0116feb3          	and	t4,a3,a7
    1490:	02f655b3          	divu	a1,a2,a5
    1494:	02f67533          	remu	a0,a2,a5
    1498:	02be8633          	mul	a2,t4,a1
    149c:	053a                	c.slli	a0,0xe
    149e:	00c53fb3          	sltu	t6,a0,a2
    14a2:	000f8463          	beqz	t6,0x14aa <__divsf3+0x6e>
    14a6:	15fd                	c.addi	a1,-1
    14a8:	9536                	c.add	a0,a3
    14aa:	8d11                	c.sub	a0,a2
    14ac:	02f55633          	divu	a2,a0,a5
    14b0:	02f57533          	remu	a0,a0,a5
    14b4:	02ce8eb3          	mul	t4,t4,a2
    14b8:	053a                	c.slli	a0,0xe
    14ba:	01d53fb3          	sltu	t6,a0,t4
    14be:	000f8463          	beqz	t6,0x14c6 <__divsf3+0x8a>
    14c2:	167d                	c.addi	a2,-1
    14c4:	9536                	c.add	a0,a3
    14c6:	41d50533          	sub	a0,a0,t4
    14ca:	00e59e93          	slli	t4,a1,0xe
    14ce:	9676                	c.add	a2,t4
    14d0:	0612                	c.slli	a2,0x4
    14d2:	c119                	c.beqz	a0,0x14d8 <__divsf3+0x9c>
    14d4:	00166613          	ori	a2,a2,1
    14d8:	07e00893          	li	a7,126
    14dc:	407887b3          	sub	a5,a7,t2
    14e0:	92be                	c.add	t0,a5
    14e2:	08505063          	blez	t0,0x1562 <__divsf3+0x126>
    14e6:	0ff2bf93          	sltiu	t6,t0,255
    14ea:	040f8963          	beqz	t6,0x153c <__divsf3+0x100>
    14ee:	08060613          	addi	a2,a2,128
    14f2:	08063f93          	sltiu	t6,a2,128
    14f6:	92fe                	c.add	t0,t6
    14f8:	00865793          	srli	a5,a2,0x8
    14fc:	8b85                	c.andi	a5,1
    14fe:	8e1d                	c.sub	a2,a5
    1500:	0606                	c.slli	a2,0x1
    1502:	8225                	c.srli	a2,0x9
    1504:	01729513          	slli	a0,t0,0x17
    1508:	8d51                	c.or	a0,a2
    150a:	01c56533          	or	a0,a0,t3
    150e:	8082                	c.jr	ra
    1510:	e219                	c.bnez	a2,0x1516 <__divsf3+0xda>
    1512:	a801                	c.j	0x1522 <__divsf3+0xe6>
    1514:	12fd                	c.addi	t0,-1
    1516:	9632                	c.add	a2,a2
    1518:	00e63fb3          	sltu	t6,a2,a4
    151c:	fe0f9ce3          	bnez	t6,0x1514 <__divsf3+0xd8>
    1520:	b7a9                	c.j	0x146a <__divsf3+0x2e>
    1522:	c585                	c.beqz	a1,0x154a <__divsf3+0x10e>
    1524:	ff0007b7          	lui	a5,0xff000
    1528:	00b7bfb3          	sltu	t6,a5,a1
    152c:	000f9f63          	bnez	t6,0x154a <__divsf3+0x10e>
    1530:	8572                	c.mv	a0,t3
    1532:	bff1                	c.j	0x150e <__divsf3+0xd2>
    1534:	00e61b63          	bne	a2,a4,0x154a <__divsf3+0x10e>
    1538:	00538963          	beq	t2,t0,0x154a <__divsf3+0x10e>
    153c:	7f800537          	lui	a0,0x7f800
    1540:	01c56533          	or	a0,a0,t3
    1544:	b7e9                	c.j	0x150e <__divsf3+0xd2>
    1546:	fee685e3          	beq	a3,a4,0x1530 <__divsf3+0xf4>
    154a:	ffc00537          	lui	a0,0xffc00
    154e:	b7c1                	c.j	0x150e <__divsf3+0xd2>
    1550:	e299                	c.bnez	a3,0x1556 <__divsf3+0x11a>
    1552:	b7ed                	c.j	0x153c <__divsf3+0x100>
    1554:	13fd                	c.addi	t2,-1
    1556:	96b6                	c.add	a3,a3
    1558:	00e6bfb3          	sltu	t6,a3,a4
    155c:	fe0f9ce3          	bnez	t6,0x1554 <__divsf3+0x118>
    1560:	bf21                	c.j	0x1478 <__divsf3+0x3c>
    1562:	4885                	c.li	a7,1
    1564:	405885b3          	sub	a1,a7,t0
    1568:	0205bf93          	sltiu	t6,a1,32
    156c:	fc0f82e3          	beqz	t6,0x1530 <__divsf3+0xf4>
    1570:	02000893          	li	a7,32
    1574:	40b887b3          	sub	a5,a7,a1
    1578:	00f612b3          	sll	t0,a2,a5
    157c:	00b65633          	srl	a2,a2,a1
    1580:	00028463          	beqz	t0,0x1588 <__divsf3+0x14c>
    1584:	00266613          	ori	a2,a2,2
    1588:	08060793          	addi	a5,a2,128
    158c:	0007a293          	slti	t0,a5,0
    1590:	bfb9                	c.j	0x14ee <__divsf3+0xb2>
    1592:	0001                	c.nop

00001594 <__fixsfsi>:
    1594:	00151593          	slli	a1,a0,0x1
    1598:	00759613          	slli	a2,a1,0x7
    159c:	81e1                	c.srli	a1,0x18
    159e:	09e00893          	li	a7,158
    15a2:	40b885b3          	sub	a1,a7,a1
    15a6:	800007b7          	lui	a5,0x80000
    15aa:	02b05363          	blez	a1,0x15d0 <__fixsfsi+0x3c>
    15ae:	0205af93          	slti	t6,a1,32
    15b2:	000f8d63          	beqz	t6,0x15cc <__fixsfsi+0x38>
    15b6:	8e5d                	c.or	a2,a5
    15b8:	00b65633          	srl	a2,a2,a1
    15bc:	00052f93          	slti	t6,a0,0
    15c0:	40c00533          	neg	a0,a2
    15c4:	000f9363          	bnez	t6,0x15ca <__fixsfsi+0x36>
    15c8:	8532                	c.mv	a0,a2
    15ca:	8082                	c.jr	ra
    15cc:	4501                	c.li	a0,0
    15ce:	8082                	c.jr	ra
    15d0:	7f800737          	lui	a4,0x7f800
    15d4:	00a73fb3          	sltu	t6,a4,a0
    15d8:	000f8463          	beqz	t6,0x15e0 <__fixsfsi+0x4c>
    15dc:	853e                	c.mv	a0,a5
    15de:	8082                	c.jr	ra
    15e0:	fff78513          	addi	a0,a5,-1 # 0x7fffffff <boot_loader+0xffffffff>
    15e4:	8082                	c.jr	ra
    15e6:	0001                	c.nop

000015e8 <__floatunsisf>:
    15e8:	cd0d                	c.beqz	a0,0x1622 <__floatunsisf+0x3a>
    15ea:	09e00593          	li	a1,158
    15ee:	47c1                	c.li	a5,16
    15f0:	4681                	c.li	a3,0
    15f2:	96be                	c.add	a3,a5
    15f4:	00d55fb3          	srl	t6,a0,a3
    15f8:	000f9563          	bnez	t6,0x1602 <__floatunsisf+0x1a>
    15fc:	00f51533          	sll	a0,a0,a5
    1600:	8d9d                	c.sub	a1,a5
    1602:	8385                	c.srli	a5,0x1
    1604:	f7fd                	c.bnez	a5,0x15f2 <__floatunsisf+0xa>
    1606:	08050513          	addi	a0,a0,128 # 0xffc00080 <boot_loader+0x7fc00080>
    160a:	08053f93          	sltiu	t6,a0,128
    160e:	95fe                	c.add	a1,t6
    1610:	00855713          	srli	a4,a0,0x8
    1614:	8b05                	c.andi	a4,1
    1616:	8d19                	c.sub	a0,a4
    1618:	0506                	c.slli	a0,0x1
    161a:	8125                	c.srli	a0,0x9
    161c:	01759713          	slli	a4,a1,0x17
    1620:	8d59                	c.or	a0,a4
    1622:	8082                	c.jr	ra

00001624 <__floatundisf>:
    1624:	1141                	c.addi	sp,-16
    1626:	c026                	c.swsp	s1,0(sp)
    1628:	c206                	c.swsp	ra,4(sp)
    162a:	86ae                	c.mv	a3,a1
    162c:	862a                	c.mv	a2,a0
    162e:	00a5e4b3          	or	s1,a1,a0
    1632:	c8b5                	c.beqz	s1,0x16a6 <__floatundisf+0x82>
    1634:	0be00713          	li	a4,190
    1638:	ea89                	c.bnez	a3,0x164a <__floatundisf+0x26>
    163a:	e219                	c.bnez	a2,0x1640 <__floatundisf+0x1c>
    163c:	4701                	c.li	a4,0
    163e:	a091                	c.j	0x1682 <__floatundisf+0x5e>
    1640:	86b2                	c.mv	a3,a2
    1642:	4601                	c.li	a2,0
    1644:	02000793          	li	a5,32
    1648:	8f1d                	c.sub	a4,a5
    164a:	1101                	c.addi	sp,-32
    164c:	c02a                	c.swsp	a0,0(sp)
    164e:	c22e                	c.swsp	a1,4(sp)
    1650:	c432                	c.swsp	a2,8(sp)
    1652:	c636                	c.swsp	a3,12(sp)
    1654:	c83a                	c.swsp	a4,16(sp)
    1656:	8536                	c.mv	a0,a3
    1658:	28a1                	c.jal	0x16b0 <__clzsi2>
    165a:	87aa                	c.mv	a5,a0
    165c:	4502                	c.lwsp	a0,0(sp)
    165e:	4592                	c.lwsp	a1,4(sp)
    1660:	4622                	c.lwsp	a2,8(sp)
    1662:	46b2                	c.lwsp	a3,12(sp)
    1664:	4742                	c.lwsp	a4,16(sp)
    1666:	6105                	c.addi16sp	sp,32
    1668:	cf89                	c.beqz	a5,0x1682 <__floatundisf+0x5e>
    166a:	8f1d                	c.sub	a4,a5
    166c:	02000893          	li	a7,32
    1670:	40f88533          	sub	a0,a7,a5
    1674:	00a65533          	srl	a0,a2,a0
    1678:	00f61633          	sll	a2,a2,a5
    167c:	00f696b3          	sll	a3,a3,a5
    1680:	8ec9                	c.or	a3,a0
    1682:	c219                	c.beqz	a2,0x1688 <__floatundisf+0x64>
    1684:	0016e693          	ori	a3,a3,1
    1688:	08000f93          	li	t6,128
    168c:	96fe                	c.add	a3,t6
    168e:	01f6bfb3          	sltu	t6,a3,t6
    1692:	977e                	c.add	a4,t6
    1694:	0086d493          	srli	s1,a3,0x8
    1698:	8885                	c.andi	s1,1
    169a:	8e85                	c.sub	a3,s1
    169c:	0686                	c.slli	a3,0x1
    169e:	82a5                	c.srli	a3,0x9
    16a0:	01771493          	slli	s1,a4,0x17
    16a4:	8ec5                	c.or	a3,s1
    16a6:	8536                	c.mv	a0,a3
    16a8:	4482                	c.lwsp	s1,0(sp)
    16aa:	4092                	c.lwsp	ra,4(sp)
    16ac:	0141                	c.addi	sp,16
    16ae:	8082                	c.jr	ra

000016b0 <__clzsi2>:
    16b0:	67c1                	c.lui	a5,0x10
    16b2:	02f57563          	bgeu	a0,a5,0x16dc <__clzsi2+0x2c>
    16b6:	10053713          	sltiu	a4,a0,256
    16ba:	00174713          	xori	a4,a4,1
    16be:	070e                	c.slli	a4,0x3
    16c0:	00e55533          	srl	a0,a0,a4
    16c4:	e08f978b          	addigp	a5,-2552 # 0x1aa0 <__clz_tab>
    16c8:	97aa                	c.add	a5,a0
    16ca:	0007c503          	lbu	a0,0(a5) # 0x10000 <__global_pointer$+0xdb68>
    16ce:	02000693          	li	a3,32
    16d2:	8e99                	c.sub	a3,a4
    16d4:	40a68533          	sub	a0,a3,a0
    16d8:	00008067          	ret
    16dc:	010007b7          	lui	a5,0x1000
    16e0:	00f57e63          	bgeu	a0,a5,0x16fc <__clzsi2+0x4c>
    16e4:	4741                	c.li	a4,16
    16e6:	00e55533          	srl	a0,a0,a4
    16ea:	e08f978b          	addigp	a5,-2552 # 0x1aa0 <__clz_tab>
    16ee:	97aa                	c.add	a5,a0
    16f0:	0007c503          	lbu	a0,0(a5) # 0x1000000 <__global_pointer$+0xffdb68>
    16f4:	46c1                	c.li	a3,16
    16f6:	40a68533          	sub	a0,a3,a0
    16fa:	8082                	c.jr	ra
    16fc:	4761                	c.li	a4,24
    16fe:	00e55533          	srl	a0,a0,a4
    1702:	e08f978b          	addigp	a5,-2552 # 0x1aa0 <__clz_tab>
    1706:	97aa                	c.add	a5,a0
    1708:	0007c503          	lbu	a0,0(a5)
    170c:	46a1                	c.li	a3,8
    170e:	40a68533          	sub	a0,a3,a0
    1712:	8082                	c.jr	ra

00001714 <memset>:
    1714:	832a                	c.mv	t1,a0
    1716:	00c503b3          	add	t2,a0,a2
    171a:	00357693          	andi	a3,a0,3
    171e:	ce81                	c.beqz	a3,0x1736 <memset+0x22>
    1720:	ffc68693          	addi	a3,a3,-4
    1724:	40d507b3          	sub	a5,a0,a3
    1728:	06f3e463          	bltu	t2,a5,0x1790 <memset+0x7c>
    172c:	00b50023          	sb	a1,0(a0)
    1730:	0505                	c.addi	a0,1
    1732:	fea79de3          	bne	a5,a0,0x172c <memset+0x18>
    1736:	04750d63          	beq	a0,t2,0x1790 <memset+0x7c>
    173a:	05e2                	c.slli	a1,0x18
    173c:	0085d793          	srli	a5,a1,0x8
    1740:	95be                	c.add	a1,a5
    1742:	0105d793          	srli	a5,a1,0x10
    1746:	95be                	c.add	a1,a5
    1748:	40a38633          	sub	a2,t2,a0
    174c:	02000713          	li	a4,32
    1750:	fe067693          	andi	a3,a2,-32
    1754:	00a687b3          	add	a5,a3,a0
    1758:	e285                	c.bnez	a3,0x1778 <memset+0x64>
    175a:	ffc67693          	andi	a3,a2,-4
    175e:	ca8d                	c.beqz	a3,0x1790 <memset+0x7c>
    1760:	40d70633          	sub	a2,a4,a3
    1764:	00a687b3          	add	a5,a3,a0
    1768:	8736                	c.mv	a4,a3
    176a:	8205                	c.srli	a2,0x1
    176c:	00000697          	auipc	a3,0x0
    1770:	00c686b3          	add	a3,a3,a2
    1774:	00c68067          	jr	12(a3) # 0x1778 <memset+0x64>
    1778:	cd4c                	c.sw	a1,28(a0)
    177a:	cd0c                	c.sw	a1,24(a0)
    177c:	c94c                	c.sw	a1,20(a0)
    177e:	c90c                	c.sw	a1,16(a0)
    1780:	c54c                	c.sw	a1,12(a0)
    1782:	c50c                	c.sw	a1,8(a0)
    1784:	c14c                	c.sw	a1,4(a0)
    1786:	c10c                	c.sw	a1,0(a0)
    1788:	953a                	c.add	a0,a4
    178a:	fef517e3          	bne	a0,a5,0x1778 <memset+0x64>
    178e:	bf6d                	c.j	0x1748 <memset+0x34>
    1790:	879e                	c.mv	a5,t2
    1792:	f8751de3          	bne	a0,t2,0x172c <memset+0x18>
    1796:	851a                	c.mv	a0,t1
    1798:	8082                	c.jr	ra

0000179a <__libc_init_array>:
    179a:	084002ef          	jal	t0,0x181e <__riscv_save_0>
    179e:	801f978b          	addigp	a5,-2048 # 0x1c98 <__dso_handle>
    17a2:	801f940b          	addigp	s0,-2048 # 0x1c98 <__dso_handle>
    17a6:	8c1d                	c.sub	s0,a5
    17a8:	8409                	c.srai	s0,0x2
    17aa:	801f948b          	addigp	s1,-2048 # 0x1c98 <__dso_handle>
    17ae:	4901                	c.li	s2,0
    17b0:	02891563          	bne	s2,s0,0x17da <__libc_init_array+0x40>
    17b4:	00000793          	li	a5,0
    17b8:	c789                	c.beqz	a5,0x17c2 <__libc_init_array+0x28>
    17ba:	00000097          	auipc	ra,0x0
    17be:	000000e7          	jalr	zero # 0x0 <_start>
    17c2:	801f978b          	addigp	a5,-2048 # 0x1c98 <__dso_handle>
    17c6:	801f940b          	addigp	s0,-2048 # 0x1c98 <__dso_handle>
    17ca:	8c1d                	c.sub	s0,a5
    17cc:	8409                	c.srai	s0,0x2
    17ce:	801f948b          	addigp	s1,-2048 # 0x1c98 <__dso_handle>
    17d2:	4901                	c.li	s2,0
    17d4:	00891863          	bne	s2,s0,0x17e4 <__libc_init_array+0x4a>
    17d8:	a0ad                	c.j	0x1842 <__riscv_restore_0>
    17da:	409c                	c.lw	a5,0(s1)
    17dc:	0905                	c.addi	s2,1
    17de:	0491                	c.addi	s1,4
    17e0:	9782                	c.jalr	a5
    17e2:	b7f9                	c.j	0x17b0 <__libc_init_array+0x16>
    17e4:	409c                	c.lw	a5,0(s1)
    17e6:	0905                	c.addi	s2,1
    17e8:	0491                	c.addi	s1,4
    17ea:	9782                	c.jalr	a5
    17ec:	b7e5                	c.j	0x17d4 <__libc_init_array+0x3a>

000017ee <__riscv_save_12>:
    17ee:	7139                	c.addi16sp	sp,-64
    17f0:	4301                	c.li	t1,0
    17f2:	c66e                	c.swsp	s11,12(sp)
    17f4:	a019                	c.j	0x17fa <__riscv_save_10+0x4>

000017f6 <__riscv_save_10>:
    17f6:	7139                	c.addi16sp	sp,-64
    17f8:	5341                	c.li	t1,-16
    17fa:	c86a                	c.swsp	s10,16(sp)
    17fc:	ca66                	c.swsp	s9,20(sp)
    17fe:	cc62                	c.swsp	s8,24(sp)
    1800:	ce5e                	c.swsp	s7,28(sp)
    1802:	a019                	c.j	0x1808 <__riscv_save_4+0x4>

00001804 <__riscv_save_4>:
    1804:	7139                	c.addi16sp	sp,-64
    1806:	5301                	c.li	t1,-32
    1808:	d05a                	c.swsp	s6,32(sp)
    180a:	d256                	c.swsp	s5,36(sp)
    180c:	d452                	c.swsp	s4,40(sp)
    180e:	d64e                	c.swsp	s3,44(sp)
    1810:	d84a                	c.swsp	s2,48(sp)
    1812:	da26                	c.swsp	s1,52(sp)
    1814:	dc22                	c.swsp	s0,56(sp)
    1816:	de06                	c.swsp	ra,60(sp)
    1818:	40610133          	sub	sp,sp,t1
    181c:	8282                	c.jr	t0

0000181e <__riscv_save_0>:
    181e:	1141                	c.addi	sp,-16
    1820:	c04a                	c.swsp	s2,0(sp)
    1822:	c226                	c.swsp	s1,4(sp)
    1824:	c422                	c.swsp	s0,8(sp)
    1826:	c606                	c.swsp	ra,12(sp)
    1828:	8282                	c.jr	t0

0000182a <__riscv_restore_12>:
    182a:	4db2                	c.lwsp	s11,12(sp)
    182c:	0141                	c.addi	sp,16

0000182e <__riscv_restore_10>:
    182e:	4d02                	c.lwsp	s10,0(sp)
    1830:	4c92                	c.lwsp	s9,4(sp)
    1832:	4c22                	c.lwsp	s8,8(sp)
    1834:	4bb2                	c.lwsp	s7,12(sp)
    1836:	0141                	c.addi	sp,16

00001838 <__riscv_restore_4>:
    1838:	4b02                	c.lwsp	s6,0(sp)
    183a:	4a92                	c.lwsp	s5,4(sp)
    183c:	4a22                	c.lwsp	s4,8(sp)
    183e:	49b2                	c.lwsp	s3,12(sp)
    1840:	0141                	c.addi	sp,16

00001842 <__riscv_restore_0>:
    1842:	4902                	c.lwsp	s2,0(sp)
    1844:	4492                	c.lwsp	s1,4(sp)
    1846:	4422                	c.lwsp	s0,8(sp)
    1848:	40b2                	c.lwsp	ra,12(sp)
    184a:	0141                	c.addi	sp,16
    184c:	8082                	c.jr	ra
    184e:	0001                	c.nop
