
hello_world:     file format elf32-littleriscv


Disassembly of section .bootloader:

80000000 <boot_loader>:
80000000:	0000006f          	j	0x80000000 <boot_loader>
80000004:	000007b7          	lui	a5,0x0
80000008:	0ec78793          	addi	a5,a5,236 # 0xec <__loader_lmaend>
8000000c:	00378713          	addi	a4,a5,3
80000010:	000007b7          	lui	a5,0x0
80000014:	07878793          	addi	a5,a5,120 # 0x78 <NDS_SAG_LMA_LDSECTION>
80000018:	40f707b3          	sub	a5,a4,a5
8000001c:	0027d913          	srli	s2,a5,0x2
80000020:	800007b7          	lui	a5,0x80000
80000024:	00078713          	mv	a4,a5
80000028:	000007b7          	lui	a5,0x0
8000002c:	07878793          	addi	a5,a5,120 # 0x78 <NDS_SAG_LMA_LDSECTION>
80000030:	00f707b3          	add	a5,a4,a5
80000034:	00078993          	mv	s3,a5
80000038:	0ff007b7          	lui	a5,0xff00
8000003c:	00078493          	mv	s1,a5
80000040:	00000413          	li	s0,0
80000044:	0200006f          	j	0x80000064 <boot_loader+0x64>
80000048:	00098713          	mv	a4,s3
8000004c:	00470993          	addi	s3,a4,4
80000050:	00048793          	mv	a5,s1
80000054:	00478493          	addi	s1,a5,4 # 0xff00004 <loader+0x4>
80000058:	00072703          	lw	a4,0(a4)
8000005c:	00e7a023          	sw	a4,0(a5)
80000060:	00140413          	addi	s0,s0,1
80000064:	ff2462e3          	bltu	s0,s2,0x80000048 <boot_loader+0x48>
80000068:	0ff007b7          	lui	a5,0xff00
8000006c:	00078413          	mv	s0,a5
80000070:	000400e7          	jalr	s0
80000074:	00000013          	nop

Disassembly of section .loader:

0ff00000 <loader>:
 ff00000:	0000006f          	j	0xff00000 <loader>
 ff00004:	000027b7          	lui	a5,0x2
 ff00008:	ca078793          	addi	a5,a5,-864 # 0x1ca0 <__bss_start>
 ff0000c:	00378713          	addi	a4,a5,3
 ff00010:	000007b7          	lui	a5,0x0
 ff00014:	00078793          	mv	a5,a5
 ff00018:	40f707b3          	sub	a5,a4,a5
 ff0001c:	0027d913          	srli	s2,a5,0x2
 ff00020:	800007b7          	lui	a5,0x80000
 ff00024:	00078713          	mv	a4,a5
 ff00028:	000007b7          	lui	a5,0x0
 ff0002c:	10078793          	addi	a5,a5,256 # 0x100 <NDS_SAG_LMA_MEM>
 ff00030:	00f707b3          	add	a5,a4,a5
 ff00034:	00078993          	mv	s3,a5
 ff00038:	000007b7          	lui	a5,0x0
 ff0003c:	00078493          	mv	s1,a5
 ff00040:	00000413          	li	s0,0
 ff00044:	0200006f          	j	0xff00064 <loader+0x64>
 ff00048:	00098713          	mv	a4,s3
 ff0004c:	00470993          	addi	s3,a4,4
 ff00050:	00048793          	mv	a5,s1
 ff00054:	00478493          	addi	s1,a5,4 # 0x4 <_start+0x4>
 ff00058:	00072703          	lw	a4,0(a4)
 ff0005c:	00e7a023          	sw	a4,0(a5)
 ff00060:	00140413          	addi	s0,s0,1
 ff00064:	ff2462e3          	bltu	s0,s2,0xff00048 <loader+0x48>
 ff00068:	f0100097          	auipc	ra,0xf0100
 ff0006c:	f98080e7          	jalr	-104(ra) # 0x0 <_start>
 ff00070:	00000013          	nop

Disassembly of section .nds_vector:

00000000 <_start>:
   0:	00002197          	auipc	gp,0x2
   4:	49818193          	addi	gp,gp,1176 # 0x2498 <__global_pointer$>
   8:	08000297          	auipc	t0,0x8000
   c:	ff828293          	addi	t0,t0,-8 # 0x8000000 <_stack>
  10:	00028113          	mv	sp,t0
  14:	88cd928b          	addigp	t0,-8052 # 0x524 <trap_entry>
  18:	30529073          	csrw	mtvec,t0
  1c:	00000097          	auipc	ra,0x0
  20:	7c0080e7          	jalr	1984(ra) # 0x7dc <__platform_init>
  24:	00000097          	auipc	ra,0x0
  28:	364080e7          	jalr	868(ra) # 0x388 <reset_handler>
  2c:	0000006f          	j	0x2c <_start+0x2c>
  30:	00008067          	ret

00000034 <nmi_handler>:
  34:	0000006f          	j	0x34 <nmi_handler>

00000038 <trap_handler>:
  38:	0000006f          	j	0x38 <trap_handler>

Disassembly of section .text:

00000040 <__nds__rotr>:
      40:	fe010113          	addi	sp,sp,-32
      44:	00a12623          	sw	a0,12(sp)
      48:	00b12423          	sw	a1,8(sp)
      4c:	00812783          	lw	a5,8(sp)
      50:	01f7f793          	andi	a5,a5,31
      54:	00f12e23          	sw	a5,28(sp)
      58:	00c12783          	lw	a5,12(sp)
      5c:	01c12703          	lw	a4,28(sp)
      60:	00e7d733          	srl	a4,a5,a4
      64:	01c12683          	lw	a3,28(sp)
      68:	40d006b3          	neg	a3,a3
      6c:	01f6f693          	andi	a3,a3,31
      70:	00d797b3          	sll	a5,a5,a3
      74:	00e7e7b3          	or	a5,a5,a4
      78:	00078513          	mv	a0,a5
      7c:	02010113          	addi	sp,sp,32
      80:	00008067          	ret

00000084 <__nds__wsbh>:
      84:	fe010113          	addi	sp,sp,-32
      88:	00a12623          	sw	a0,12(sp)
      8c:	00c12783          	lw	a5,12(sp)
      90:	0ff7f793          	zext.b	a5,a5
      94:	00f12e23          	sw	a5,28(sp)
      98:	00c12783          	lw	a5,12(sp)
      9c:	0087d793          	srli	a5,a5,0x8
      a0:	0ff7f793          	zext.b	a5,a5
      a4:	00f12c23          	sw	a5,24(sp)
      a8:	00c12783          	lw	a5,12(sp)
      ac:	0107d793          	srli	a5,a5,0x10
      b0:	0ff7f793          	zext.b	a5,a5
      b4:	00f12a23          	sw	a5,20(sp)
      b8:	00c12783          	lw	a5,12(sp)
      bc:	0187d793          	srli	a5,a5,0x18
      c0:	00f12823          	sw	a5,16(sp)
      c4:	01c12783          	lw	a5,28(sp)
      c8:	00879713          	slli	a4,a5,0x8
      cc:	01812783          	lw	a5,24(sp)
      d0:	00f76733          	or	a4,a4,a5
      d4:	01412783          	lw	a5,20(sp)
      d8:	01879793          	slli	a5,a5,0x18
      dc:	00f76733          	or	a4,a4,a5
      e0:	01012783          	lw	a5,16(sp)
      e4:	01079793          	slli	a5,a5,0x10
      e8:	00f767b3          	or	a5,a4,a5
      ec:	00078513          	mv	a0,a5
      f0:	02010113          	addi	sp,sp,32
      f4:	00008067          	ret

000000f8 <main>:
      f8:	ff010113          	addi	sp,sp,-16
      fc:	00112623          	sw	ra,12(sp)
     100:	000027b7          	lui	a5,0x2
     104:	58078513          	addi	a0,a5,1408 # 0x2580 <__global_pointer$+0xe8>
     108:	1c9000ef          	jal	ra,0xad0 <uart_init>
     10c:	bb8f950b          	addigp	a0,-3144 # 0x1850 <__riscv_restore_0+0xe>
     110:	23c010ef          	jal	ra,0x134c <printf>
     114:	040000ef          	jal	ra,0x154 <amoswapw_func>
     118:	07c000ef          	jal	ra,0x194 <amoaddw_func>
     11c:	0b4000ef          	jal	ra,0x1d0 <amoxorw_func>
     120:	0f0000ef          	jal	ra,0x210 <amoandw_func>
     124:	12c000ef          	jal	ra,0x250 <amoorw_func>
     128:	168000ef          	jal	ra,0x290 <amominw_func>
     12c:	1a0000ef          	jal	ra,0x2cc <amomaxw_func>
     130:	1d8000ef          	jal	ra,0x308 <amominuw_func>
     134:	214000ef          	jal	ra,0x348 <amomaxuw_func>
     138:	be0f950b          	addigp	a0,-3104 # 0x1878 <__riscv_restore_0+0x36>
     13c:	210010ef          	jal	ra,0x134c <printf>
     140:	00000793          	li	a5,0
     144:	00078513          	mv	a0,a5
     148:	00c12083          	lw	ra,12(sp)
     14c:	01010113          	addi	sp,sp,16
     150:	00008067          	ret

00000154 <amoswapw_func>:
     154:	fe010113          	addi	sp,sp,-32
     158:	00112e23          	sw	ra,28(sp)
     15c:	00a00793          	li	a5,10
     160:	00f12623          	sw	a5,12(sp)
     164:	bfcf950b          	addigp	a0,-3076 # 0x1894 <__riscv_restore_0+0x52>
     168:	1e4010ef          	jal	ra,0x134c <printf>
     16c:	00c12783          	lw	a5,12(sp)
     170:	00410713          	addi	a4,sp,4
     174:	08f727af          	amoswap.w	a5,a5,(a4)
     178:	00f12423          	sw	a5,8(sp)
     17c:	c10f950b          	addigp	a0,-3056 # 0x18a8 <__riscv_restore_0+0x66>
     180:	1cc010ef          	jal	ra,0x134c <printf>
     184:	00000013          	nop
     188:	01c12083          	lw	ra,28(sp)
     18c:	02010113          	addi	sp,sp,32
     190:	00008067          	ret

00000194 <amoaddw_func>:
     194:	fe010113          	addi	sp,sp,-32
     198:	00112e23          	sw	ra,28(sp)
     19c:	00a00793          	li	a5,10
     1a0:	00f12623          	sw	a5,12(sp)
     1a4:	00c12703          	lw	a4,12(sp)
     1a8:	00410793          	addi	a5,sp,4
     1ac:	00e7a7af          	amoadd.w	a5,a4,(a5)
     1b0:	00f12423          	sw	a5,8(sp)
     1b4:	00812583          	lw	a1,8(sp)
     1b8:	c20f950b          	addigp	a0,-3040 # 0x18b8 <__riscv_restore_0+0x76>
     1bc:	190010ef          	jal	ra,0x134c <printf>
     1c0:	00000013          	nop
     1c4:	01c12083          	lw	ra,28(sp)
     1c8:	02010113          	addi	sp,sp,32
     1cc:	00008067          	ret

000001d0 <amoxorw_func>:
     1d0:	fe010113          	addi	sp,sp,-32
     1d4:	00112e23          	sw	ra,28(sp)
     1d8:	223347b7          	lui	a5,0x22334
     1dc:	45578793          	addi	a5,a5,1109 # 0x22334455 <loader+0x12434455>
     1e0:	00f12623          	sw	a5,12(sp)
     1e4:	00c12703          	lw	a4,12(sp)
     1e8:	00410793          	addi	a5,sp,4
     1ec:	20e7a7af          	amoxor.w	a5,a4,(a5)
     1f0:	00f12423          	sw	a5,8(sp)
     1f4:	00812583          	lw	a1,8(sp)
     1f8:	c3cf950b          	addigp	a0,-3012 # 0x18d4 <__riscv_restore_0+0x92>
     1fc:	150010ef          	jal	ra,0x134c <printf>
     200:	00000013          	nop
     204:	01c12083          	lw	ra,28(sp)
     208:	02010113          	addi	sp,sp,32
     20c:	00008067          	ret

00000210 <amoandw_func>:
     210:	fe010113          	addi	sp,sp,-32
     214:	00112e23          	sw	ra,28(sp)
     218:	223347b7          	lui	a5,0x22334
     21c:	45578793          	addi	a5,a5,1109 # 0x22334455 <loader+0x12434455>
     220:	00f12623          	sw	a5,12(sp)
     224:	00c12703          	lw	a4,12(sp)
     228:	00410793          	addi	a5,sp,4
     22c:	60e7a7af          	amoand.w	a5,a4,(a5)
     230:	00f12423          	sw	a5,8(sp)
     234:	00812583          	lw	a1,8(sp)
     238:	c58f950b          	addigp	a0,-2984 # 0x18f0 <__riscv_restore_0+0xae>
     23c:	110010ef          	jal	ra,0x134c <printf>
     240:	00000013          	nop
     244:	01c12083          	lw	ra,28(sp)
     248:	02010113          	addi	sp,sp,32
     24c:	00008067          	ret

00000250 <amoorw_func>:
     250:	fe010113          	addi	sp,sp,-32
     254:	00112e23          	sw	ra,28(sp)
     258:	223347b7          	lui	a5,0x22334
     25c:	45578793          	addi	a5,a5,1109 # 0x22334455 <loader+0x12434455>
     260:	00f12623          	sw	a5,12(sp)
     264:	00c12703          	lw	a4,12(sp)
     268:	00410793          	addi	a5,sp,4
     26c:	40e7a7af          	amoor.w	a5,a4,(a5)
     270:	00f12423          	sw	a5,8(sp)
     274:	00812583          	lw	a1,8(sp)
     278:	c74f950b          	addigp	a0,-2956 # 0x190c <__riscv_restore_0+0xca>
     27c:	0d0010ef          	jal	ra,0x134c <printf>
     280:	00000013          	nop
     284:	01c12083          	lw	ra,28(sp)
     288:	02010113          	addi	sp,sp,32
     28c:	00008067          	ret

00000290 <amominw_func>:
     290:	fe010113          	addi	sp,sp,-32
     294:	00112e23          	sw	ra,28(sp)
     298:	00a00793          	li	a5,10
     29c:	00f12623          	sw	a5,12(sp)
     2a0:	00c12703          	lw	a4,12(sp)
     2a4:	00410793          	addi	a5,sp,4
     2a8:	80e7a7af          	amomin.w	a5,a4,(a5)
     2ac:	00f12423          	sw	a5,8(sp)
     2b0:	00812583          	lw	a1,8(sp)
     2b4:	c8cf950b          	addigp	a0,-2932 # 0x1924 <__riscv_restore_0+0xe2>
     2b8:	094010ef          	jal	ra,0x134c <printf>
     2bc:	00000013          	nop
     2c0:	01c12083          	lw	ra,28(sp)
     2c4:	02010113          	addi	sp,sp,32
     2c8:	00008067          	ret

000002cc <amomaxw_func>:
     2cc:	fe010113          	addi	sp,sp,-32
     2d0:	00112e23          	sw	ra,28(sp)
     2d4:	00a00793          	li	a5,10
     2d8:	00f12623          	sw	a5,12(sp)
     2dc:	00c12703          	lw	a4,12(sp)
     2e0:	00410793          	addi	a5,sp,4
     2e4:	a0e7a7af          	amomax.w	a5,a4,(a5)
     2e8:	00f12423          	sw	a5,8(sp)
     2ec:	00812583          	lw	a1,8(sp)
     2f0:	ca8f950b          	addigp	a0,-2904 # 0x1940 <__riscv_restore_0+0xfe>
     2f4:	058010ef          	jal	ra,0x134c <printf>
     2f8:	00000013          	nop
     2fc:	01c12083          	lw	ra,28(sp)
     300:	02010113          	addi	sp,sp,32
     304:	00008067          	ret

00000308 <amominuw_func>:
     308:	fe010113          	addi	sp,sp,-32
     30c:	00112e23          	sw	ra,28(sp)
     310:	223347b7          	lui	a5,0x22334
     314:	45578793          	addi	a5,a5,1109 # 0x22334455 <loader+0x12434455>
     318:	00f12623          	sw	a5,12(sp)
     31c:	00c12703          	lw	a4,12(sp)
     320:	00410793          	addi	a5,sp,4
     324:	c0e7a7af          	amominu.w	a5,a4,(a5)
     328:	00f12423          	sw	a5,8(sp)
     32c:	00812583          	lw	a1,8(sp)
     330:	cc4f950b          	addigp	a0,-2876 # 0x195c <__riscv_restore_0+0x11a>
     334:	018010ef          	jal	ra,0x134c <printf>
     338:	00000013          	nop
     33c:	01c12083          	lw	ra,28(sp)
     340:	02010113          	addi	sp,sp,32
     344:	00008067          	ret

00000348 <amomaxuw_func>:
     348:	fe010113          	addi	sp,sp,-32
     34c:	00112e23          	sw	ra,28(sp)
     350:	223347b7          	lui	a5,0x22334
     354:	45578793          	addi	a5,a5,1109 # 0x22334455 <loader+0x12434455>
     358:	00f12623          	sw	a5,12(sp)
     35c:	00c12703          	lw	a4,12(sp)
     360:	00410793          	addi	a5,sp,4
     364:	e0e7a7af          	amomaxu.w	a5,a4,(a5)
     368:	00f12423          	sw	a5,8(sp)
     36c:	00812583          	lw	a1,8(sp)
     370:	ce0f950b          	addigp	a0,-2848 # 0x1978 <__riscv_restore_0+0x136>
     374:	7d9000ef          	jal	ra,0x134c <printf>
     378:	00000013          	nop
     37c:	01c12083          	lw	ra,28(sp)
     380:	02010113          	addi	sp,sp,32
     384:	00008067          	ret

00000388 <reset_handler>:
     388:	ff010113          	addi	sp,sp,-16
     38c:	00112623          	sw	ra,12(sp)
     390:	48c000ef          	jal	ra,0x81c <c_startup>
     394:	4c8000ef          	jal	ra,0x85c <system_init>
     398:	402010ef          	jal	ra,0x179a <__libc_init_array>
     39c:	d5dff0ef          	jal	ra,0xf8 <main>
     3a0:	00000013          	nop
     3a4:	00c12083          	lw	ra,12(sp)
     3a8:	01010113          	addi	sp,sp,16
     3ac:	00008067          	ret

000003b0 <__cxa_atexit>:
     3b0:	ff010113          	addi	sp,sp,-16
     3b4:	00a12623          	sw	a0,12(sp)
     3b8:	00b12423          	sw	a1,8(sp)
     3bc:	00c12223          	sw	a2,4(sp)
     3c0:	00000013          	nop
     3c4:	01010113          	addi	sp,sp,16
     3c8:	00008067          	ret

000003cc <__nds__rotr>:
     3cc:	fe010113          	addi	sp,sp,-32
     3d0:	00a12623          	sw	a0,12(sp)
     3d4:	00b12423          	sw	a1,8(sp)
     3d8:	00812783          	lw	a5,8(sp)
     3dc:	01f7f793          	andi	a5,a5,31
     3e0:	00f12e23          	sw	a5,28(sp)
     3e4:	00c12783          	lw	a5,12(sp)
     3e8:	01c12703          	lw	a4,28(sp)
     3ec:	00e7d733          	srl	a4,a5,a4
     3f0:	01c12683          	lw	a3,28(sp)
     3f4:	40d006b3          	neg	a3,a3
     3f8:	01f6f693          	andi	a3,a3,31
     3fc:	00d797b3          	sll	a5,a5,a3
     400:	00e7e7b3          	or	a5,a5,a4
     404:	00078513          	mv	a0,a5
     408:	02010113          	addi	sp,sp,32
     40c:	00008067          	ret

00000410 <__nds__wsbh>:
     410:	fe010113          	addi	sp,sp,-32
     414:	00a12623          	sw	a0,12(sp)
     418:	00c12783          	lw	a5,12(sp)
     41c:	0ff7f793          	zext.b	a5,a5
     420:	00f12e23          	sw	a5,28(sp)
     424:	00c12783          	lw	a5,12(sp)
     428:	0087d793          	srli	a5,a5,0x8
     42c:	0ff7f793          	zext.b	a5,a5
     430:	00f12c23          	sw	a5,24(sp)
     434:	00c12783          	lw	a5,12(sp)
     438:	0107d793          	srli	a5,a5,0x10
     43c:	0ff7f793          	zext.b	a5,a5
     440:	00f12a23          	sw	a5,20(sp)
     444:	00c12783          	lw	a5,12(sp)
     448:	0187d793          	srli	a5,a5,0x18
     44c:	00f12823          	sw	a5,16(sp)
     450:	01c12783          	lw	a5,28(sp)
     454:	00879713          	slli	a4,a5,0x8
     458:	01812783          	lw	a5,24(sp)
     45c:	00f76733          	or	a4,a4,a5
     460:	01412783          	lw	a5,20(sp)
     464:	01879793          	slli	a5,a5,0x18
     468:	00f76733          	or	a4,a4,a5
     46c:	01012783          	lw	a5,16(sp)
     470:	01079793          	slli	a5,a5,0x10
     474:	00f767b3          	or	a5,a4,a5
     478:	00078513          	mv	a0,a5
     47c:	02010113          	addi	sp,sp,32
     480:	00008067          	ret

00000484 <mtime_handler>:
     484:	08000793          	li	a5,128
     488:	3047b7f3          	csrrc	a5,mie,a5
     48c:	00000013          	nop
     490:	00008067          	ret

00000494 <mswi_handler>:
     494:	304477f3          	csrrci	a5,mie,8
     498:	00000013          	nop
     49c:	00008067          	ret

000004a0 <syscall_handler>:
     4a0:	fd010113          	addi	sp,sp,-48
     4a4:	02112623          	sw	ra,44(sp)
     4a8:	00a12e23          	sw	a0,28(sp)
     4ac:	00b12c23          	sw	a1,24(sp)
     4b0:	00c12a23          	sw	a2,20(sp)
     4b4:	00d12823          	sw	a3,16(sp)
     4b8:	00e12623          	sw	a4,12(sp)
     4bc:	00c12783          	lw	a5,12(sp)
     4c0:	01012703          	lw	a4,16(sp)
     4c4:	01412683          	lw	a3,20(sp)
     4c8:	01812603          	lw	a2,24(sp)
     4cc:	01c12583          	lw	a1,28(sp)
     4d0:	cfcf950b          	addigp	a0,-2820 # 0x1994 <__riscv_restore_0+0x152>
     4d4:	679000ef          	jal	ra,0x134c <printf>
     4d8:	00000013          	nop
     4dc:	02c12083          	lw	ra,44(sp)
     4e0:	03010113          	addi	sp,sp,48
     4e4:	00008067          	ret

000004e8 <except_handler>:
     4e8:	fe010113          	addi	sp,sp,-32
     4ec:	00112e23          	sw	ra,28(sp)
     4f0:	00a12623          	sw	a0,12(sp)
     4f4:	00b12423          	sw	a1,8(sp)
     4f8:	00c12783          	lw	a5,12(sp)
     4fc:	00812703          	lw	a4,8(sp)
     500:	00070613          	mv	a2,a4
     504:	00078593          	mv	a1,a5
     508:	d34f950b          	addigp	a0,-2764 # 0x19cc <__riscv_restore_0+0x18a>
     50c:	641000ef          	jal	ra,0x134c <printf>
     510:	00812783          	lw	a5,8(sp)
     514:	00078513          	mv	a0,a5
     518:	01c12083          	lw	ra,28(sp)
     51c:	02010113          	addi	sp,sp,32
     520:	00008067          	ret

00000524 <trap_entry>:
     524:	f9010113          	addi	sp,sp,-112
     528:	06112623          	sw	ra,108(sp)
     52c:	06512423          	sw	t0,104(sp)
     530:	06612223          	sw	t1,100(sp)
     534:	06712023          	sw	t2,96(sp)
     538:	04a12e23          	sw	a0,92(sp)
     53c:	04b12c23          	sw	a1,88(sp)
     540:	04c12a23          	sw	a2,84(sp)
     544:	04d12823          	sw	a3,80(sp)
     548:	04e12623          	sw	a4,76(sp)
     54c:	04f12423          	sw	a5,72(sp)
     550:	05012223          	sw	a6,68(sp)
     554:	05112023          	sw	a7,64(sp)
     558:	03c12e23          	sw	t3,60(sp)
     55c:	03d12c23          	sw	t4,56(sp)
     560:	03e12a23          	sw	t5,52(sp)
     564:	03f12823          	sw	t6,48(sp)
     568:	342027f3          	csrr	a5,mcause
     56c:	02f12423          	sw	a5,40(sp)
     570:	341027f3          	csrr	a5,mepc
     574:	02f12623          	sw	a5,44(sp)
     578:	300027f3          	csrr	a5,mstatus
     57c:	02f12223          	sw	a5,36(sp)
     580:	7c4027f3          	csrr	a5,mxstatus
     584:	02f12023          	sw	a5,32(sp)
     588:	02812783          	lw	a5,40(sp)
     58c:	0407d863          	bgez	a5,0x5dc <trap_entry+0xb8>
     590:	02812703          	lw	a4,40(sp)
     594:	800007b7          	lui	a5,0x80000
     598:	fff78793          	addi	a5,a5,-1 # 0x7fffffff <boot_loader+0xffffffff>
     59c:	00f77733          	and	a4,a4,a5
     5a0:	00b00793          	li	a5,11
     5a4:	02f71c63          	bne	a4,a5,0x5dc <trap_entry+0xb8>
     5a8:	f14027f3          	csrr	a5,mhartid
     5ac:	00f12e23          	sw	a5,28(sp)
     5b0:	01c12783          	lw	a5,28(sp)
     5b4:	00c79713          	slli	a4,a5,0xc
     5b8:	e42007b7          	lui	a5,0xe4200
     5bc:	00478793          	addi	a5,a5,4 # 0xe4200004 <boot_loader+0x64200004>
     5c0:	00f707b3          	add	a5,a4,a5
     5c4:	00f12c23          	sw	a5,24(sp)
     5c8:	01812783          	lw	a5,24(sp)
     5cc:	0007a783          	lw	a5,0(a5)
     5d0:	00078513          	mv	a0,a5
     5d4:	3d0000ef          	jal	ra,0x9a4 <mext_interrupt>
     5d8:	0e80006f          	j	0x6c0 <trap_entry+0x19c>
     5dc:	02812783          	lw	a5,40(sp)
     5e0:	0207d263          	bgez	a5,0x604 <trap_entry+0xe0>
     5e4:	02812703          	lw	a4,40(sp)
     5e8:	800007b7          	lui	a5,0x80000
     5ec:	fff78793          	addi	a5,a5,-1 # 0x7fffffff <boot_loader+0xffffffff>
     5f0:	00f77733          	and	a4,a4,a5
     5f4:	00700793          	li	a5,7
     5f8:	00f71663          	bne	a4,a5,0x604 <trap_entry+0xe0>
     5fc:	e89ff0ef          	jal	ra,0x484 <mtime_handler>
     600:	0c00006f          	j	0x6c0 <trap_entry+0x19c>
     604:	02812783          	lw	a5,40(sp)
     608:	0607d063          	bgez	a5,0x668 <trap_entry+0x144>
     60c:	02812703          	lw	a4,40(sp)
     610:	800007b7          	lui	a5,0x80000
     614:	fff78793          	addi	a5,a5,-1 # 0x7fffffff <boot_loader+0xffffffff>
     618:	00f77733          	and	a4,a4,a5
     61c:	00300793          	li	a5,3
     620:	04f71463          	bne	a4,a5,0x668 <trap_entry+0x144>
     624:	e71ff0ef          	jal	ra,0x494 <mswi_handler>
     628:	f14027f3          	csrr	a5,mhartid
     62c:	00178793          	addi	a5,a5,1
     630:	00f12a23          	sw	a5,20(sp)
     634:	f14027f3          	csrr	a5,mhartid
     638:	00f12823          	sw	a5,16(sp)
     63c:	01012783          	lw	a5,16(sp)
     640:	00c79713          	slli	a4,a5,0xc
     644:	e66007b7          	lui	a5,0xe6600
     648:	00478793          	addi	a5,a5,4 # 0xe6600004 <boot_loader+0x66600004>
     64c:	00f707b3          	add	a5,a4,a5
     650:	00f12623          	sw	a5,12(sp)
     654:	00c12783          	lw	a5,12(sp)
     658:	01412703          	lw	a4,20(sp)
     65c:	00e7a023          	sw	a4,0(a5)
     660:	00000013          	nop
     664:	05c0006f          	j	0x6c0 <trap_entry+0x19c>
     668:	02812783          	lw	a5,40(sp)
     66c:	0407c263          	bltz	a5,0x6b0 <trap_entry+0x18c>
     670:	02812703          	lw	a4,40(sp)
     674:	800007b7          	lui	a5,0x80000
     678:	fff78793          	addi	a5,a5,-1 # 0x7fffffff <boot_loader+0xffffffff>
     67c:	00f77733          	and	a4,a4,a5
     680:	00b00793          	li	a5,11
     684:	02f71663          	bne	a4,a5,0x6b0 <trap_entry+0x18c>
     688:	00068713          	mv	a4,a3
     68c:	00060693          	mv	a3,a2
     690:	00058613          	mv	a2,a1
     694:	00050593          	mv	a1,a0
     698:	00088513          	mv	a0,a7
     69c:	e05ff0ef          	jal	ra,0x4a0 <syscall_handler>
     6a0:	02c12783          	lw	a5,44(sp)
     6a4:	00478793          	addi	a5,a5,4
     6a8:	02f12623          	sw	a5,44(sp)
     6ac:	0140006f          	j	0x6c0 <trap_entry+0x19c>
     6b0:	02c12583          	lw	a1,44(sp)
     6b4:	02812503          	lw	a0,40(sp)
     6b8:	e31ff0ef          	jal	ra,0x4e8 <except_handler>
     6bc:	02a12623          	sw	a0,44(sp)
     6c0:	02412783          	lw	a5,36(sp)
     6c4:	30079073          	csrw	mstatus,a5
     6c8:	02c12783          	lw	a5,44(sp)
     6cc:	34179073          	csrw	mepc,a5
     6d0:	02012783          	lw	a5,32(sp)
     6d4:	7c479073          	csrw	mxstatus,a5
     6d8:	00000013          	nop
     6dc:	06c12083          	lw	ra,108(sp)
     6e0:	06812283          	lw	t0,104(sp)
     6e4:	06412303          	lw	t1,100(sp)
     6e8:	06012383          	lw	t2,96(sp)
     6ec:	05c12503          	lw	a0,92(sp)
     6f0:	05812583          	lw	a1,88(sp)
     6f4:	05412603          	lw	a2,84(sp)
     6f8:	05012683          	lw	a3,80(sp)
     6fc:	04c12703          	lw	a4,76(sp)
     700:	04812783          	lw	a5,72(sp)
     704:	04412803          	lw	a6,68(sp)
     708:	04012883          	lw	a7,64(sp)
     70c:	03c12e03          	lw	t3,60(sp)
     710:	03812e83          	lw	t4,56(sp)
     714:	03412f03          	lw	t5,52(sp)
     718:	03012f83          	lw	t6,48(sp)
     71c:	07010113          	addi	sp,sp,112
     720:	30200073          	mret

00000724 <__nds__rotr>:
     724:	fe010113          	addi	sp,sp,-32
     728:	00a12623          	sw	a0,12(sp)
     72c:	00b12423          	sw	a1,8(sp)
     730:	00812783          	lw	a5,8(sp)
     734:	01f7f793          	andi	a5,a5,31
     738:	00f12e23          	sw	a5,28(sp)
     73c:	00c12783          	lw	a5,12(sp)
     740:	01c12703          	lw	a4,28(sp)
     744:	00e7d733          	srl	a4,a5,a4
     748:	01c12683          	lw	a3,28(sp)
     74c:	40d006b3          	neg	a3,a3
     750:	01f6f693          	andi	a3,a3,31
     754:	00d797b3          	sll	a5,a5,a3
     758:	00e7e7b3          	or	a5,a5,a4
     75c:	00078513          	mv	a0,a5
     760:	02010113          	addi	sp,sp,32
     764:	00008067          	ret

00000768 <__nds__wsbh>:
     768:	fe010113          	addi	sp,sp,-32
     76c:	00a12623          	sw	a0,12(sp)
     770:	00c12783          	lw	a5,12(sp)
     774:	0ff7f793          	zext.b	a5,a5
     778:	00f12e23          	sw	a5,28(sp)
     77c:	00c12783          	lw	a5,12(sp)
     780:	0087d793          	srli	a5,a5,0x8
     784:	0ff7f793          	zext.b	a5,a5
     788:	00f12c23          	sw	a5,24(sp)
     78c:	00c12783          	lw	a5,12(sp)
     790:	0107d793          	srli	a5,a5,0x10
     794:	0ff7f793          	zext.b	a5,a5
     798:	00f12a23          	sw	a5,20(sp)
     79c:	00c12783          	lw	a5,12(sp)
     7a0:	0187d793          	srli	a5,a5,0x18
     7a4:	00f12823          	sw	a5,16(sp)
     7a8:	01c12783          	lw	a5,28(sp)
     7ac:	00879713          	slli	a4,a5,0x8
     7b0:	01812783          	lw	a5,24(sp)
     7b4:	00f76733          	or	a4,a4,a5
     7b8:	01412783          	lw	a5,20(sp)
     7bc:	01879793          	slli	a5,a5,0x18
     7c0:	00f76733          	or	a4,a4,a5
     7c4:	01012783          	lw	a5,16(sp)
     7c8:	01079793          	slli	a5,a5,0x10
     7cc:	00f767b3          	or	a5,a4,a5
     7d0:	00078513          	mv	a0,a5
     7d4:	02010113          	addi	sp,sp,32
     7d8:	00008067          	ret

000007dc <__platform_init>:
     7dc:	000067b7          	lui	a5,0x6
     7e0:	7ca7b7f3          	csrrc	a5,mcache_ctl,a5
     7e4:	000827b7          	lui	a5,0x82
     7e8:	60378793          	addi	a5,a5,1539 # 0x82603 <__global_pointer$+0x8016b>
     7ec:	7ca7a7f3          	csrrs	a5,mcache_ctl,a5
     7f0:	7ca02773          	csrr	a4,mcache_ctl
     7f4:	000807b7          	lui	a5,0x80
     7f8:	00f777b3          	and	a5,a4,a5
     7fc:	00078c63          	beqz	a5,0x814 <__platform_init+0x38>
     800:	00000013          	nop
     804:	7ca02773          	csrr	a4,mcache_ctl
     808:	001007b7          	lui	a5,0x100
     80c:	00f777b3          	and	a5,a4,a5
     810:	fe078ae3          	beqz	a5,0x804 <__platform_init+0x28>
     814:	00008067          	ret
     818:	00000013          	nop

0000081c <c_startup>:
     81c:	fe010113          	addi	sp,sp,-32
     820:	00112e23          	sw	ra,28(sp)
     824:	80818713          	addi	a4,gp,-2040 # 0x1ca0 <__bss_start>
     828:	80818793          	addi	a5,gp,-2040 # 0x1ca0 <__bss_start>
     82c:	40f707b3          	sub	a5,a4,a5
     830:	00f12623          	sw	a5,12(sp)
     834:	80818793          	addi	a5,gp,-2040 # 0x1ca0 <__bss_start>
     838:	00c12703          	lw	a4,12(sp)
     83c:	00070613          	mv	a2,a4
     840:	00000593          	li	a1,0
     844:	00078513          	mv	a0,a5
     848:	6cd000ef          	jal	ra,0x1714 <memset>
     84c:	00000013          	nop
     850:	01c12083          	lw	ra,28(sp)
     854:	02010113          	addi	sp,sp,32
     858:	00008067          	ret

0000085c <system_init>:
     85c:	ff010113          	addi	sp,sp,-16
     860:	f01007b7          	lui	a5,0xf0100
     864:	b69b970b          	addigp	a4,-9368 # 0x0 <_start>
     868:	04e7a823          	sw	a4,80(a5) # 0xf0100050 <boot_loader+0x70100050>
     86c:	7d0027f3          	csrr	a5,mmisc_ctl
     870:	0027f793          	andi	a5,a5,2
     874:	02078263          	beqz	a5,0x898 <system_init+0x3c>
     878:	00300793          	li	a5,3
     87c:	00f12623          	sw	a5,12(sp)
     880:	e40007b7          	lui	a5,0xe4000
     884:	00f12423          	sw	a5,8(sp)
     888:	00812783          	lw	a5,8(sp)
     88c:	00c12703          	lw	a4,12(sp)
     890:	00e7a023          	sw	a4,0(a5) # 0xe4000000 <boot_loader+0x64000000>
     894:	0240006f          	j	0x8b8 <system_init+0x5c>
     898:	00100793          	li	a5,1
     89c:	00f12223          	sw	a5,4(sp)
     8a0:	e40007b7          	lui	a5,0xe4000
     8a4:	00f12023          	sw	a5,0(sp)
     8a8:	00012783          	lw	a5,0(sp)
     8ac:	00412703          	lw	a4,4(sp)
     8b0:	00e7a023          	sw	a4,0(a5) # 0xe4000000 <boot_loader+0x64000000>
     8b4:	00000013          	nop
     8b8:	14000793          	li	a5,320
     8bc:	7d07a7f3          	csrrs	a5,mmisc_ctl,a5
     8c0:	00000013          	nop
     8c4:	01010113          	addi	sp,sp,16
     8c8:	00008067          	ret

000008cc <__nds__rotr>:
     8cc:	fe010113          	addi	sp,sp,-32
     8d0:	00a12623          	sw	a0,12(sp)
     8d4:	00b12423          	sw	a1,8(sp)
     8d8:	00812783          	lw	a5,8(sp)
     8dc:	01f7f793          	andi	a5,a5,31
     8e0:	00f12e23          	sw	a5,28(sp)
     8e4:	00c12783          	lw	a5,12(sp)
     8e8:	01c12703          	lw	a4,28(sp)
     8ec:	00e7d733          	srl	a4,a5,a4
     8f0:	01c12683          	lw	a3,28(sp)
     8f4:	40d006b3          	neg	a3,a3
     8f8:	01f6f693          	andi	a3,a3,31
     8fc:	00d797b3          	sll	a5,a5,a3
     900:	00e7e7b3          	or	a5,a5,a4
     904:	00078513          	mv	a0,a5
     908:	02010113          	addi	sp,sp,32
     90c:	00008067          	ret

00000910 <__nds__wsbh>:
     910:	fe010113          	addi	sp,sp,-32
     914:	00a12623          	sw	a0,12(sp)
     918:	00c12783          	lw	a5,12(sp)
     91c:	0ff7f793          	zext.b	a5,a5
     920:	00f12e23          	sw	a5,28(sp)
     924:	00c12783          	lw	a5,12(sp)
     928:	0087d793          	srli	a5,a5,0x8
     92c:	0ff7f793          	zext.b	a5,a5
     930:	00f12c23          	sw	a5,24(sp)
     934:	00c12783          	lw	a5,12(sp)
     938:	0107d793          	srli	a5,a5,0x10
     93c:	0ff7f793          	zext.b	a5,a5
     940:	00f12a23          	sw	a5,20(sp)
     944:	00c12783          	lw	a5,12(sp)
     948:	0187d793          	srli	a5,a5,0x18
     94c:	00f12823          	sw	a5,16(sp)
     950:	01c12783          	lw	a5,28(sp)
     954:	00879713          	slli	a4,a5,0x8
     958:	01812783          	lw	a5,24(sp)
     95c:	00f76733          	or	a4,a4,a5
     960:	01412783          	lw	a5,20(sp)
     964:	01879793          	slli	a5,a5,0x18
     968:	00f76733          	or	a4,a4,a5
     96c:	01012783          	lw	a5,16(sp)
     970:	01079793          	slli	a5,a5,0x10
     974:	00f767b3          	or	a5,a4,a5
     978:	00078513          	mv	a0,a5
     97c:	02010113          	addi	sp,sp,32
     980:	00008067          	ret

00000984 <default_irq_handler>:
     984:	ff010113          	addi	sp,sp,-16
     988:	00112623          	sw	ra,12(sp)
     98c:	d64f950b          	addigp	a0,-2716 # 0x19fc <__riscv_restore_0+0x1ba>
     990:	1bd000ef          	jal	ra,0x134c <printf>
     994:	00000013          	nop
     998:	00c12083          	lw	ra,12(sp)
     99c:	01010113          	addi	sp,sp,16
     9a0:	00008067          	ret

000009a4 <mext_interrupt>:
     9a4:	fd010113          	addi	sp,sp,-48
     9a8:	02112623          	sw	ra,44(sp)
     9ac:	00a12623          	sw	a0,12(sp)
     9b0:	300467f3          	csrrsi	a5,mstatus,8
     9b4:	d80f970b          	addigp	a4,-2688 # 0x1a18 <irq_handler>
     9b8:	00c12783          	lw	a5,12(sp)
     9bc:	00279793          	slli	a5,a5,0x2
     9c0:	00f707b3          	add	a5,a4,a5
     9c4:	0007a783          	lw	a5,0(a5)
     9c8:	000780e7          	jalr	a5
     9cc:	00c12783          	lw	a5,12(sp)
     9d0:	00f12e23          	sw	a5,28(sp)
     9d4:	f14027f3          	csrr	a5,mhartid
     9d8:	00f12c23          	sw	a5,24(sp)
     9dc:	01812783          	lw	a5,24(sp)
     9e0:	00c79713          	slli	a4,a5,0xc
     9e4:	e42007b7          	lui	a5,0xe4200
     9e8:	00478793          	addi	a5,a5,4 # 0xe4200004 <boot_loader+0x64200004>
     9ec:	00f707b3          	add	a5,a4,a5
     9f0:	00f12a23          	sw	a5,20(sp)
     9f4:	01412783          	lw	a5,20(sp)
     9f8:	01c12703          	lw	a4,28(sp)
     9fc:	00e7a023          	sw	a4,0(a5)
     a00:	00000013          	nop
     a04:	300477f3          	csrrci	a5,mstatus,8
     a08:	00000013          	nop
     a0c:	02c12083          	lw	ra,44(sp)
     a10:	03010113          	addi	sp,sp,48
     a14:	00008067          	ret

00000a18 <__nds__rotr>:
     a18:	fe010113          	addi	sp,sp,-32
     a1c:	00a12623          	sw	a0,12(sp)
     a20:	00b12423          	sw	a1,8(sp)
     a24:	00812783          	lw	a5,8(sp)
     a28:	01f7f793          	andi	a5,a5,31
     a2c:	00f12e23          	sw	a5,28(sp)
     a30:	00c12783          	lw	a5,12(sp)
     a34:	01c12703          	lw	a4,28(sp)
     a38:	00e7d733          	srl	a4,a5,a4
     a3c:	01c12683          	lw	a3,28(sp)
     a40:	40d006b3          	neg	a3,a3
     a44:	01f6f693          	andi	a3,a3,31
     a48:	00d797b3          	sll	a5,a5,a3
     a4c:	00e7e7b3          	or	a5,a5,a4
     a50:	00078513          	mv	a0,a5
     a54:	02010113          	addi	sp,sp,32
     a58:	00008067          	ret

00000a5c <__nds__wsbh>:
     a5c:	fe010113          	addi	sp,sp,-32
     a60:	00a12623          	sw	a0,12(sp)
     a64:	00c12783          	lw	a5,12(sp)
     a68:	0ff7f793          	zext.b	a5,a5
     a6c:	00f12e23          	sw	a5,28(sp)
     a70:	00c12783          	lw	a5,12(sp)
     a74:	0087d793          	srli	a5,a5,0x8
     a78:	0ff7f793          	zext.b	a5,a5
     a7c:	00f12c23          	sw	a5,24(sp)
     a80:	00c12783          	lw	a5,12(sp)
     a84:	0107d793          	srli	a5,a5,0x10
     a88:	0ff7f793          	zext.b	a5,a5
     a8c:	00f12a23          	sw	a5,20(sp)
     a90:	00c12783          	lw	a5,12(sp)
     a94:	0187d793          	srli	a5,a5,0x18
     a98:	00f12823          	sw	a5,16(sp)
     a9c:	01c12783          	lw	a5,28(sp)
     aa0:	00879713          	slli	a4,a5,0x8
     aa4:	01812783          	lw	a5,24(sp)
     aa8:	00f76733          	or	a4,a4,a5
     aac:	01412783          	lw	a5,20(sp)
     ab0:	01879793          	slli	a5,a5,0x18
     ab4:	00f76733          	or	a4,a4,a5
     ab8:	01012783          	lw	a5,16(sp)
     abc:	01079793          	slli	a5,a5,0x10
     ac0:	00f767b3          	or	a5,a4,a5
     ac4:	00078513          	mv	a0,a5
     ac8:	02010113          	addi	sp,sp,32
     acc:	00008067          	ret

00000ad0 <uart_init>:
     ad0:	ff010113          	addi	sp,sp,-16
     ad4:	00a12623          	sw	a0,12(sp)
     ad8:	f03007b7          	lui	a5,0xf0300
     adc:	02c7a703          	lw	a4,44(a5) # 0xf030002c <boot_loader+0x7030002c>
     ae0:	f03007b7          	lui	a5,0xf0300
     ae4:	08076713          	ori	a4,a4,128
     ae8:	02e7a623          	sw	a4,44(a5) # 0xf030002c <boot_loader+0x7030002c>
     aec:	00c12703          	lw	a4,12(sp)
     af0:	00bec7b7          	lui	a5,0xbec
     af4:	c2078793          	addi	a5,a5,-992 # 0xbebc20 <__global_pointer$+0xbe9788>
     af8:	00f707b3          	add	a5,a4,a5
     afc:	00379713          	slli	a4,a5,0x3
     b00:	00c12783          	lw	a5,12(sp)
     b04:	00479793          	slli	a5,a5,0x4
     b08:	02f75733          	divu	a4,a4,a5
     b0c:	f03007b7          	lui	a5,0xf0300
     b10:	0ff77713          	zext.b	a4,a4
     b14:	02e7a023          	sw	a4,32(a5) # 0xf0300020 <boot_loader+0x70300020>
     b18:	00c12703          	lw	a4,12(sp)
     b1c:	00bec7b7          	lui	a5,0xbec
     b20:	c2078793          	addi	a5,a5,-992 # 0xbebc20 <__global_pointer$+0xbe9788>
     b24:	00f707b3          	add	a5,a4,a5
     b28:	00379713          	slli	a4,a5,0x3
     b2c:	00c12783          	lw	a5,12(sp)
     b30:	00479793          	slli	a5,a5,0x4
     b34:	02f757b3          	divu	a5,a4,a5
     b38:	0087d713          	srli	a4,a5,0x8
     b3c:	f03007b7          	lui	a5,0xf0300
     b40:	0ff77713          	zext.b	a4,a4
     b44:	02e7a223          	sw	a4,36(a5) # 0xf0300024 <boot_loader+0x70300024>
     b48:	f03007b7          	lui	a5,0xf0300
     b4c:	00300713          	li	a4,3
     b50:	02e7a623          	sw	a4,44(a5) # 0xf030002c <boot_loader+0x7030002c>
     b54:	f03007b7          	lui	a5,0xf0300
     b58:	00700713          	li	a4,7
     b5c:	02e7a423          	sw	a4,40(a5) # 0xf0300028 <boot_loader+0x70300028>
     b60:	00000013          	nop
     b64:	01010113          	addi	sp,sp,16
     b68:	00008067          	ret

00000b6c <uart_getc>:
     b6c:	00000013          	nop
     b70:	f03007b7          	lui	a5,0xf0300
     b74:	0347a783          	lw	a5,52(a5) # 0xf0300034 <boot_loader+0x70300034>
     b78:	0017f793          	andi	a5,a5,1
     b7c:	fe078ae3          	beqz	a5,0xb70 <uart_getc+0x4>
     b80:	f03007b7          	lui	a5,0xf0300
     b84:	0207a783          	lw	a5,32(a5) # 0xf0300020 <boot_loader+0x70300020>
     b88:	00078513          	mv	a0,a5
     b8c:	00008067          	ret

00000b90 <uart_putc>:
     b90:	ff010113          	addi	sp,sp,-16
     b94:	00a12623          	sw	a0,12(sp)
     b98:	00000013          	nop
     b9c:	f03007b7          	lui	a5,0xf0300
     ba0:	0347a783          	lw	a5,52(a5) # 0xf0300034 <boot_loader+0x70300034>
     ba4:	0207f793          	andi	a5,a5,32
     ba8:	fe078ae3          	beqz	a5,0xb9c <uart_putc+0xc>
     bac:	f03007b7          	lui	a5,0xf0300
     bb0:	00c12703          	lw	a4,12(sp)
     bb4:	02e7a023          	sw	a4,32(a5) # 0xf0300020 <boot_loader+0x70300020>
     bb8:	00000013          	nop
     bbc:	01010113          	addi	sp,sp,16
     bc0:	00008067          	ret

00000bc4 <uart_puts>:
     bc4:	fd010113          	addi	sp,sp,-48
     bc8:	02112623          	sw	ra,44(sp)
     bcc:	00a12623          	sw	a0,12(sp)
     bd0:	00012e23          	sw	zero,28(sp)
     bd4:	0440006f          	j	0xc18 <uart_puts+0x54>
     bd8:	00c12783          	lw	a5,12(sp)
     bdc:	0007c783          	lbu	a5,0(a5)
     be0:	00078513          	mv	a0,a5
     be4:	fadff0ef          	jal	ra,0xb90 <uart_putc>
     be8:	00c12783          	lw	a5,12(sp)
     bec:	0007c703          	lbu	a4,0(a5)
     bf0:	00a00793          	li	a5,10
     bf4:	00f71663          	bne	a4,a5,0xc00 <uart_puts+0x3c>
     bf8:	00d00513          	li	a0,13
     bfc:	f95ff0ef          	jal	ra,0xb90 <uart_putc>
     c00:	00c12783          	lw	a5,12(sp)
     c04:	00178793          	addi	a5,a5,1
     c08:	00f12623          	sw	a5,12(sp)
     c0c:	01c12783          	lw	a5,28(sp)
     c10:	00178793          	addi	a5,a5,1
     c14:	00f12e23          	sw	a5,28(sp)
     c18:	00c12783          	lw	a5,12(sp)
     c1c:	0007c783          	lbu	a5,0(a5)
     c20:	fa079ce3          	bnez	a5,0xbd8 <uart_puts+0x14>
     c24:	01c12783          	lw	a5,28(sp)
     c28:	00078513          	mv	a0,a5
     c2c:	02c12083          	lw	ra,44(sp)
     c30:	03010113          	addi	sp,sp,48
     c34:	00008067          	ret

00000c38 <outbyte>:
     c38:	fe010113          	addi	sp,sp,-32
     c3c:	00112e23          	sw	ra,28(sp)
     c40:	00a12623          	sw	a0,12(sp)
     c44:	00c12503          	lw	a0,12(sp)
     c48:	f49ff0ef          	jal	ra,0xb90 <uart_putc>
     c4c:	00c12703          	lw	a4,12(sp)
     c50:	00a00793          	li	a5,10
     c54:	00f71663          	bne	a4,a5,0xc60 <outbyte+0x28>
     c58:	00d00513          	li	a0,13
     c5c:	f35ff0ef          	jal	ra,0xb90 <uart_putc>
     c60:	00c12783          	lw	a5,12(sp)
     c64:	00078513          	mv	a0,a5
     c68:	01c12083          	lw	ra,28(sp)
     c6c:	02010113          	addi	sp,sp,32
     c70:	00008067          	ret

00000c74 <__nds__rotr>:
     c74:	fe010113          	addi	sp,sp,-32
     c78:	00a12623          	sw	a0,12(sp)
     c7c:	00b12423          	sw	a1,8(sp)
     c80:	00812783          	lw	a5,8(sp)
     c84:	01f7f793          	andi	a5,a5,31
     c88:	00f12e23          	sw	a5,28(sp)
     c8c:	00c12783          	lw	a5,12(sp)
     c90:	01c12703          	lw	a4,28(sp)
     c94:	00e7d733          	srl	a4,a5,a4
     c98:	01c12683          	lw	a3,28(sp)
     c9c:	40d006b3          	neg	a3,a3
     ca0:	01f6f693          	andi	a3,a3,31
     ca4:	00d797b3          	sll	a5,a5,a3
     ca8:	00e7e7b3          	or	a5,a5,a4
     cac:	00078513          	mv	a0,a5
     cb0:	02010113          	addi	sp,sp,32
     cb4:	00008067          	ret

00000cb8 <__nds__wsbh>:
     cb8:	fe010113          	addi	sp,sp,-32
     cbc:	00a12623          	sw	a0,12(sp)
     cc0:	00c12783          	lw	a5,12(sp)
     cc4:	0ff7f793          	zext.b	a5,a5
     cc8:	00f12e23          	sw	a5,28(sp)
     ccc:	00c12783          	lw	a5,12(sp)
     cd0:	0087d793          	srli	a5,a5,0x8
     cd4:	0ff7f793          	zext.b	a5,a5
     cd8:	00f12c23          	sw	a5,24(sp)
     cdc:	00c12783          	lw	a5,12(sp)
     ce0:	0107d793          	srli	a5,a5,0x10
     ce4:	0ff7f793          	zext.b	a5,a5
     ce8:	00f12a23          	sw	a5,20(sp)
     cec:	00c12783          	lw	a5,12(sp)
     cf0:	0187d793          	srli	a5,a5,0x18
     cf4:	00f12823          	sw	a5,16(sp)
     cf8:	01c12783          	lw	a5,28(sp)
     cfc:	00879713          	slli	a4,a5,0x8
     d00:	01812783          	lw	a5,24(sp)
     d04:	00f76733          	or	a4,a4,a5
     d08:	01412783          	lw	a5,20(sp)
     d0c:	01879793          	slli	a5,a5,0x18
     d10:	00f76733          	or	a4,a4,a5
     d14:	01012783          	lw	a5,16(sp)
     d18:	01079793          	slli	a5,a5,0x10
     d1c:	00f767b3          	or	a5,a4,a5
     d20:	00078513          	mv	a0,a5
     d24:	02010113          	addi	sp,sp,32
     d28:	00008067          	ret

00000d2c <get_core_freq>:
     d2c:	32000793          	li	a5,800
     d30:	00078513          	mv	a0,a5
     d34:	00008067          	ret

00000d38 <rdmcycle>:
     d38:	ff010113          	addi	sp,sp,-16
     d3c:	b8002373          	csrr	t1,mcycleh
     d40:	00612623          	sw	t1,12(sp)
     d44:	b0002373          	csrr	t1,mcycle
     d48:	00612423          	sw	t1,8(sp)
     d4c:	b8002373          	csrr	t1,mcycleh
     d50:	00c12e03          	lw	t3,12(sp)
     d54:	fe6e14e3          	bne	t3,t1,0xd3c <rdmcycle+0x4>
     d58:	00c12303          	lw	t1,12(sp)
     d5c:	00030813          	mv	a6,t1
     d60:	00000893          	li	a7,0
     d64:	00081793          	slli	a5,a6,0x0
     d68:	00000713          	li	a4,0
     d6c:	00812803          	lw	a6,8(sp)
     d70:	00080613          	mv	a2,a6
     d74:	00000693          	li	a3,0
     d78:	00c76533          	or	a0,a4,a2
     d7c:	00d7e5b3          	or	a1,a5,a3
     d80:	00050713          	mv	a4,a0
     d84:	00058793          	mv	a5,a1
     d88:	00070513          	mv	a0,a4
     d8c:	00078593          	mv	a1,a5
     d90:	01010113          	addi	sp,sp,16
     d94:	00008067          	ret

00000d98 <time>:
     d98:	ff010113          	addi	sp,sp,-16
     d9c:	00112623          	sw	ra,12(sp)
     da0:	00812423          	sw	s0,8(sp)
     da4:	f95ff0ef          	jal	ra,0xd38 <rdmcycle>
     da8:	00050713          	mv	a4,a0
     dac:	00058793          	mv	a5,a1
     db0:	00070513          	mv	a0,a4
     db4:	00078593          	mv	a1,a5
     db8:	06d000ef          	jal	ra,0x1624 <__floatundisf>
     dbc:	00050413          	mv	s0,a0
     dc0:	f6dff0ef          	jal	ra,0xd2c <get_core_freq>
     dc4:	00050793          	mv	a5,a0
     dc8:	00078513          	mv	a0,a5
     dcc:	01d000ef          	jal	ra,0x15e8 <__floatunsisf>
     dd0:	00050793          	mv	a5,a0
     dd4:	00078593          	mv	a1,a5
     dd8:	00040513          	mv	a0,s0
     ddc:	660000ef          	jal	ra,0x143c <__divsf3>
     de0:	00050793          	mv	a5,a0
     de4:	00078513          	mv	a0,a5
     de8:	7ac000ef          	jal	ra,0x1594 <__fixsfsi>
     dec:	00050793          	mv	a5,a0
     df0:	00078513          	mv	a0,a5
     df4:	00c12083          	lw	ra,12(sp)
     df8:	00812403          	lw	s0,8(sp)
     dfc:	01010113          	addi	sp,sp,16
     e00:	00008067          	ret

00000e04 <simple_delay_ms>:
     e04:	ff010113          	addi	sp,sp,-16
     e08:	00a12623          	sw	a0,12(sp)
     e0c:	00c12703          	lw	a4,12(sp)
     e10:	000017b7          	lui	a5,0x1
     e14:	beb78793          	addi	a5,a5,-1045 # 0xbeb <uart_puts+0x27>
     e18:	02f707b3          	mul	a5,a4,a5
     e1c:	00f12623          	sw	a5,12(sp)
     e20:	0100006f          	j	0xe30 <simple_delay_ms+0x2c>
     e24:	00c12783          	lw	a5,12(sp)
     e28:	fff78793          	addi	a5,a5,-1
     e2c:	00f12623          	sw	a5,12(sp)
     e30:	00c12783          	lw	a5,12(sp)
     e34:	fe0798e3          	bnez	a5,0xe24 <simple_delay_ms+0x20>
     e38:	00000013          	nop
     e3c:	00000013          	nop
     e40:	01010113          	addi	sp,sp,16
     e44:	00008067          	ret

00000e48 <printchar>:
     e48:	1101                	c.addi	sp,-32
     e4a:	ce06                	c.swsp	ra,28(sp)
     e4c:	cc22                	c.swsp	s0,24(sp)
     e4e:	1000                	c.addi4spn	s0,sp,32
     e50:	fea42623          	sw	a0,-20(s0)
     e54:	feb42423          	sw	a1,-24(s0)
     e58:	fec42783          	lw	a5,-20(s0)
     e5c:	c785                	c.beqz	a5,0xe84 <printchar+0x3c>
     e5e:	fec42783          	lw	a5,-20(s0)
     e62:	439c                	c.lw	a5,0(a5)
     e64:	fe842703          	lw	a4,-24(s0)
     e68:	0ff77713          	zext.b	a4,a4
     e6c:	00e78023          	sb	a4,0(a5)
     e70:	fec42783          	lw	a5,-20(s0)
     e74:	439c                	c.lw	a5,0(a5)
     e76:	00178713          	addi	a4,a5,1
     e7a:	fec42783          	lw	a5,-20(s0)
     e7e:	c398                	c.sw	a4,0(a5)
     e80:	00c0006f          	j	0xe8c <printchar+0x44>
     e84:	fe842503          	lw	a0,-24(s0)
     e88:	db1ff0ef          	jal	ra,0xc38 <outbyte>
     e8c:	0001                	c.nop
     e8e:	40f2                	c.lwsp	ra,28(sp)
     e90:	4462                	c.lwsp	s0,24(sp)
     e92:	6105                	c.addi16sp	sp,32
     e94:	00008067          	ret

00000e98 <prints>:
     e98:	7179                	c.addi16sp	sp,-48
     e9a:	d606                	c.swsp	ra,44(sp)
     e9c:	d422                	c.swsp	s0,40(sp)
     e9e:	d226                	c.swsp	s1,36(sp)
     ea0:	d04a                	c.swsp	s2,32(sp)
     ea2:	ce4e                	c.swsp	s3,28(sp)
     ea4:	cc52                	c.swsp	s4,24(sp)
     ea6:	1800                	c.addi4spn	s0,sp,48
     ea8:	fca42e23          	sw	a0,-36(s0)
     eac:	fcb42c23          	sw	a1,-40(s0)
     eb0:	fcc42a23          	sw	a2,-44(s0)
     eb4:	fcd42823          	sw	a3,-48(s0)
     eb8:	4481                	c.li	s1,0
     eba:	02000a13          	li	s4,32
     ebe:	fd442783          	lw	a5,-44(s0)
     ec2:	02f05f63          	blez	a5,0xf00 <prints+0x68>
     ec6:	4901                	c.li	s2,0
     ec8:	fd842983          	lw	s3,-40(s0)
     ecc:	0080006f          	j	0xed4 <prints+0x3c>
     ed0:	0905                	c.addi	s2,1
     ed2:	0985                	c.addi	s3,1
     ed4:	0009c783          	lbu	a5,0(s3)
     ed8:	ffe5                	c.bnez	a5,0xed0 <prints+0x38>
     eda:	fd442783          	lw	a5,-44(s0)
     ede:	00f94563          	blt	s2,a5,0xee8 <prints+0x50>
     ee2:	fc042a23          	sw	zero,-44(s0)
     ee6:	a039                	c.j	0xef4 <prints+0x5c>
     ee8:	fd442783          	lw	a5,-44(s0)
     eec:	412787b3          	sub	a5,a5,s2
     ef0:	fcf42a23          	sw	a5,-44(s0)
     ef4:	fd042783          	lw	a5,-48(s0)
     ef8:	8b89                	c.andi	a5,2
     efa:	c399                	c.beqz	a5,0xf00 <prints+0x68>
     efc:	03000a13          	li	s4,48
     f00:	fd042783          	lw	a5,-48(s0)
     f04:	8b85                	c.andi	a5,1
     f06:	e3a9                	c.bnez	a5,0xf48 <prints+0xb0>
     f08:	0180006f          	j	0xf20 <prints+0x88>
     f0c:	85d2                	c.mv	a1,s4
     f0e:	fdc42503          	lw	a0,-36(s0)
     f12:	3f1d                	c.jal	0xe48 <printchar>
     f14:	0485                	c.addi	s1,1
     f16:	fd442783          	lw	a5,-44(s0)
     f1a:	17fd                	c.addi	a5,-1
     f1c:	fcf42a23          	sw	a5,-44(s0)
     f20:	fd442783          	lw	a5,-44(s0)
     f24:	fef044e3          	bgtz	a5,0xf0c <prints+0x74>
     f28:	0200006f          	j	0xf48 <prints+0xb0>
     f2c:	fd842783          	lw	a5,-40(s0)
     f30:	0007c783          	lbu	a5,0(a5)
     f34:	85be                	c.mv	a1,a5
     f36:	fdc42503          	lw	a0,-36(s0)
     f3a:	3739                	c.jal	0xe48 <printchar>
     f3c:	0485                	c.addi	s1,1
     f3e:	fd842783          	lw	a5,-40(s0)
     f42:	0785                	c.addi	a5,1
     f44:	fcf42c23          	sw	a5,-40(s0)
     f48:	fd842783          	lw	a5,-40(s0)
     f4c:	0007c783          	lbu	a5,0(a5)
     f50:	fff1                	c.bnez	a5,0xf2c <prints+0x94>
     f52:	a819                	c.j	0xf68 <prints+0xd0>
     f54:	85d2                	c.mv	a1,s4
     f56:	fdc42503          	lw	a0,-36(s0)
     f5a:	35fd                	c.jal	0xe48 <printchar>
     f5c:	0485                	c.addi	s1,1
     f5e:	fd442783          	lw	a5,-44(s0)
     f62:	17fd                	c.addi	a5,-1
     f64:	fcf42a23          	sw	a5,-44(s0)
     f68:	fd442783          	lw	a5,-44(s0)
     f6c:	fef044e3          	bgtz	a5,0xf54 <prints+0xbc>
     f70:	87a6                	c.mv	a5,s1
     f72:	853e                	c.mv	a0,a5
     f74:	50b2                	c.lwsp	ra,44(sp)
     f76:	5422                	c.lwsp	s0,40(sp)
     f78:	5492                	c.lwsp	s1,36(sp)
     f7a:	5902                	c.lwsp	s2,32(sp)
     f7c:	49f2                	c.lwsp	s3,28(sp)
     f7e:	4a62                	c.lwsp	s4,24(sp)
     f80:	6145                	c.addi16sp	sp,48
     f82:	8082                	c.jr	ra

00000f84 <printi>:
     f84:	715d                	c.addi16sp	sp,-80
     f86:	c686                	c.swsp	ra,76(sp)
     f88:	c4a2                	c.swsp	s0,72(sp)
     f8a:	c2a6                	c.swsp	s1,68(sp)
     f8c:	c0ca                	c.swsp	s2,64(sp)
     f8e:	de4e                	c.swsp	s3,60(sp)
     f90:	dc52                	c.swsp	s4,56(sp)
     f92:	da56                	c.swsp	s5,52(sp)
     f94:	0880                	c.addi4spn	s0,sp,80
     f96:	fca42623          	sw	a0,-52(s0)
     f9a:	fcb42423          	sw	a1,-56(s0)
     f9e:	fcc42223          	sw	a2,-60(s0)
     fa2:	fcd42023          	sw	a3,-64(s0)
     fa6:	fae42e23          	sw	a4,-68(s0)
     faa:	faf42c23          	sw	a5,-72(s0)
     fae:	fb042a23          	sw	a6,-76(s0)
     fb2:	4a81                	c.li	s5,0
     fb4:	4a01                	c.li	s4,0
     fb6:	fc842903          	lw	s2,-56(s0)
     fba:	fc842783          	lw	a5,-56(s0)
     fbe:	e39d                	c.bnez	a5,0xfe4 <printi+0x60>
     fc0:	03000793          	li	a5,48
     fc4:	fcf40a23          	sb	a5,-44(s0)
     fc8:	fc040aa3          	sb	zero,-43(s0)
     fcc:	fd440793          	addi	a5,s0,-44
     fd0:	fb842683          	lw	a3,-72(s0)
     fd4:	fbc42603          	lw	a2,-68(s0)
     fd8:	85be                	c.mv	a1,a5
     fda:	fcc42503          	lw	a0,-52(s0)
     fde:	3d6d                	c.jal	0xe98 <prints>
     fe0:	87aa                	c.mv	a5,a0
     fe2:	a86d                	c.j	0x109c <printi+0x118>
     fe4:	fc042783          	lw	a5,-64(s0)
     fe8:	c385                	c.beqz	a5,0x1008 <printi+0x84>
     fea:	fc442703          	lw	a4,-60(s0)
     fee:	47a9                	c.li	a5,10
     ff0:	00f71c63          	bne	a4,a5,0x1008 <printi+0x84>
     ff4:	fc842783          	lw	a5,-56(s0)
     ff8:	0007d863          	bgez	a5,0x1008 <printi+0x84>
     ffc:	4a85                	c.li	s5,1
     ffe:	fc842783          	lw	a5,-56(s0)
    1002:	40f007b3          	neg	a5,a5
    1006:	893e                	c.mv	s2,a5
    1008:	fd440493          	addi	s1,s0,-44
    100c:	04ad                	c.addi	s1,11
    100e:	00048023          	sb	zero,0(s1)
    1012:	a82d                	c.j	0x104c <printi+0xc8>
    1014:	fc442783          	lw	a5,-60(s0)
    1018:	02f977b3          	remu	a5,s2,a5
    101c:	89be                	c.mv	s3,a5
    101e:	47a5                	c.li	a5,9
    1020:	0137d863          	bge	a5,s3,0x1030 <printi+0xac>
    1024:	fb442783          	lw	a5,-76(s0)
    1028:	fc678793          	addi	a5,a5,-58
    102c:	00f989b3          	add	s3,s3,a5
    1030:	0ff9f793          	zext.b	a5,s3
    1034:	fff48493          	addi	s1,s1,-1
    1038:	03078793          	addi	a5,a5,48
    103c:	0ff7f793          	zext.b	a5,a5
    1040:	00f48023          	sb	a5,0(s1)
    1044:	fc442783          	lw	a5,-60(s0)
    1048:	02f95933          	divu	s2,s2,a5
    104c:	fc0914e3          	bnez	s2,0x1014 <printi+0x90>
    1050:	020a8c63          	beqz	s5,0x1088 <printi+0x104>
    1054:	fbc42783          	lw	a5,-68(s0)
    1058:	c395                	c.beqz	a5,0x107c <printi+0xf8>
    105a:	fb842783          	lw	a5,-72(s0)
    105e:	8b89                	c.andi	a5,2
    1060:	cf91                	c.beqz	a5,0x107c <printi+0xf8>
    1062:	02d00593          	li	a1,45
    1066:	fcc42503          	lw	a0,-52(s0)
    106a:	3bf9                	c.jal	0xe48 <printchar>
    106c:	0a05                	c.addi	s4,1
    106e:	fbc42783          	lw	a5,-68(s0)
    1072:	17fd                	c.addi	a5,-1
    1074:	faf42e23          	sw	a5,-68(s0)
    1078:	0100006f          	j	0x1088 <printi+0x104>
    107c:	fff48493          	addi	s1,s1,-1
    1080:	02d00793          	li	a5,45
    1084:	00f48023          	sb	a5,0(s1)
    1088:	fb842683          	lw	a3,-72(s0)
    108c:	fbc42603          	lw	a2,-68(s0)
    1090:	85a6                	c.mv	a1,s1
    1092:	fcc42503          	lw	a0,-52(s0)
    1096:	3509                	c.jal	0xe98 <prints>
    1098:	87aa                	c.mv	a5,a0
    109a:	97d2                	c.add	a5,s4
    109c:	853e                	c.mv	a0,a5
    109e:	40b6                	c.lwsp	ra,76(sp)
    10a0:	4426                	c.lwsp	s0,72(sp)
    10a2:	4496                	c.lwsp	s1,68(sp)
    10a4:	4906                	c.lwsp	s2,64(sp)
    10a6:	59f2                	c.lwsp	s3,60(sp)
    10a8:	5a62                	c.lwsp	s4,56(sp)
    10aa:	5ad2                	c.lwsp	s5,52(sp)
    10ac:	6161                	c.addi16sp	sp,80
    10ae:	8082                	c.jr	ra

000010b0 <print>:
    10b0:	7139                	c.addi16sp	sp,-64
    10b2:	de06                	c.swsp	ra,60(sp)
    10b4:	dc22                	c.swsp	s0,56(sp)
    10b6:	da26                	c.swsp	s1,52(sp)
    10b8:	d84a                	c.swsp	s2,48(sp)
    10ba:	d64e                	c.swsp	s3,44(sp)
    10bc:	d452                	c.swsp	s4,40(sp)
    10be:	0080                	c.addi4spn	s0,sp,64
    10c0:	fca42623          	sw	a0,-52(s0)
    10c4:	fcb42423          	sw	a1,-56(s0)
    10c8:	fcc42223          	sw	a2,-60(s0)
    10cc:	4481                	c.li	s1,0
    10ce:	a499                	c.j	0x1314 <print+0x264>
    10d0:	fc842783          	lw	a5,-56(s0)
    10d4:	0007c703          	lbu	a4,0(a5)
    10d8:	02500793          	li	a5,37
    10dc:	20f71863          	bne	a4,a5,0x12ec <print+0x23c>
    10e0:	fc842783          	lw	a5,-56(s0)
    10e4:	0785                	c.addi	a5,1
    10e6:	fcf42423          	sw	a5,-56(s0)
    10ea:	4981                	c.li	s3,0
    10ec:	894e                	c.mv	s2,s3
    10ee:	fc842783          	lw	a5,-56(s0)
    10f2:	0007c783          	lbu	a5,0(a5)
    10f6:	22078763          	beqz	a5,0x1324 <print+0x274>
    10fa:	fc842783          	lw	a5,-56(s0)
    10fe:	0007c703          	lbu	a4,0(a5)
    1102:	02500793          	li	a5,37
    1106:	1ef70563          	beq	a4,a5,0x12f0 <print+0x240>
    110a:	fc842783          	lw	a5,-56(s0)
    110e:	0007c703          	lbu	a4,0(a5)
    1112:	02d00793          	li	a5,45
    1116:	02f71163          	bne	a4,a5,0x1138 <print+0x88>
    111a:	fc842783          	lw	a5,-56(s0)
    111e:	0785                	c.addi	a5,1
    1120:	fcf42423          	sw	a5,-56(s0)
    1124:	4985                	c.li	s3,1
    1126:	a809                	c.j	0x1138 <print+0x88>
    1128:	fc842783          	lw	a5,-56(s0)
    112c:	00178793          	addi	a5,a5,1
    1130:	fcf42423          	sw	a5,-56(s0)
    1134:	0029e993          	ori	s3,s3,2
    1138:	fc842783          	lw	a5,-56(s0)
    113c:	0007c703          	lbu	a4,0(a5)
    1140:	03000793          	li	a5,48
    1144:	fef702e3          	beq	a4,a5,0x1128 <print+0x78>
    1148:	0240006f          	j	0x116c <print+0xbc>
    114c:	47a9                	c.li	a5,10
    114e:	02f90933          	mul	s2,s2,a5
    1152:	fc842783          	lw	a5,-56(s0)
    1156:	0007c783          	lbu	a5,0(a5)
    115a:	fd078793          	addi	a5,a5,-48
    115e:	993e                	c.add	s2,a5
    1160:	fc842783          	lw	a5,-56(s0)
    1164:	00178793          	addi	a5,a5,1
    1168:	fcf42423          	sw	a5,-56(s0)
    116c:	fc842783          	lw	a5,-56(s0)
    1170:	0007c703          	lbu	a4,0(a5)
    1174:	02f00793          	li	a5,47
    1178:	00e7fa63          	bgeu	a5,a4,0x118c <print+0xdc>
    117c:	fc842783          	lw	a5,-56(s0)
    1180:	0007c703          	lbu	a4,0(a5)
    1184:	03900793          	li	a5,57
    1188:	fce7f2e3          	bgeu	a5,a4,0x114c <print+0x9c>
    118c:	fc842783          	lw	a5,-56(s0)
    1190:	0007c703          	lbu	a4,0(a5)
    1194:	07300793          	li	a5,115
    1198:	02f71a63          	bne	a4,a5,0x11cc <print+0x11c>
    119c:	fc442783          	lw	a5,-60(s0)
    11a0:	00478713          	addi	a4,a5,4
    11a4:	fce42223          	sw	a4,-60(s0)
    11a8:	439c                	c.lw	a5,0(a5)
    11aa:	8a3e                	c.mv	s4,a5
    11ac:	000a0463          	beqz	s4,0x11b4 <print+0x104>
    11b0:	87d2                	c.mv	a5,s4
    11b2:	a019                	c.j	0x11b8 <print+0x108>
    11b4:	e00f978b          	addigp	a5,-2560 # 0x1a98 <irq_handler+0x80>
    11b8:	86ce                	c.mv	a3,s3
    11ba:	864a                	c.mv	a2,s2
    11bc:	85be                	c.mv	a1,a5
    11be:	fcc42503          	lw	a0,-52(s0)
    11c2:	39d9                	c.jal	0xe98 <prints>
    11c4:	87aa                	c.mv	a5,a0
    11c6:	94be                	c.add	s1,a5
    11c8:	1400006f          	j	0x1308 <print+0x258>
    11cc:	fc842783          	lw	a5,-56(s0)
    11d0:	0007c703          	lbu	a4,0(a5)
    11d4:	06400793          	li	a5,100
    11d8:	02f71663          	bne	a4,a5,0x1204 <print+0x154>
    11dc:	fc442783          	lw	a5,-60(s0)
    11e0:	00478713          	addi	a4,a5,4
    11e4:	fce42223          	sw	a4,-60(s0)
    11e8:	438c                	c.lw	a1,0(a5)
    11ea:	06100813          	li	a6,97
    11ee:	87ce                	c.mv	a5,s3
    11f0:	874a                	c.mv	a4,s2
    11f2:	4685                	c.li	a3,1
    11f4:	4629                	c.li	a2,10
    11f6:	fcc42503          	lw	a0,-52(s0)
    11fa:	3369                	c.jal	0xf84 <printi>
    11fc:	87aa                	c.mv	a5,a0
    11fe:	94be                	c.add	s1,a5
    1200:	1080006f          	j	0x1308 <print+0x258>
    1204:	fc842783          	lw	a5,-56(s0)
    1208:	0007c703          	lbu	a4,0(a5)
    120c:	07800793          	li	a5,120
    1210:	02f71663          	bne	a4,a5,0x123c <print+0x18c>
    1214:	fc442783          	lw	a5,-60(s0)
    1218:	00478713          	addi	a4,a5,4
    121c:	fce42223          	sw	a4,-60(s0)
    1220:	438c                	c.lw	a1,0(a5)
    1222:	06100813          	li	a6,97
    1226:	87ce                	c.mv	a5,s3
    1228:	874a                	c.mv	a4,s2
    122a:	4681                	c.li	a3,0
    122c:	4641                	c.li	a2,16
    122e:	fcc42503          	lw	a0,-52(s0)
    1232:	3b89                	c.jal	0xf84 <printi>
    1234:	87aa                	c.mv	a5,a0
    1236:	94be                	c.add	s1,a5
    1238:	0d00006f          	j	0x1308 <print+0x258>
    123c:	fc842783          	lw	a5,-56(s0)
    1240:	0007c703          	lbu	a4,0(a5)
    1244:	05800793          	li	a5,88
    1248:	02f71663          	bne	a4,a5,0x1274 <print+0x1c4>
    124c:	fc442783          	lw	a5,-60(s0)
    1250:	00478713          	addi	a4,a5,4
    1254:	fce42223          	sw	a4,-60(s0)
    1258:	438c                	c.lw	a1,0(a5)
    125a:	04100813          	li	a6,65
    125e:	87ce                	c.mv	a5,s3
    1260:	874a                	c.mv	a4,s2
    1262:	4681                	c.li	a3,0
    1264:	4641                	c.li	a2,16
    1266:	fcc42503          	lw	a0,-52(s0)
    126a:	3b29                	c.jal	0xf84 <printi>
    126c:	87aa                	c.mv	a5,a0
    126e:	94be                	c.add	s1,a5
    1270:	0980006f          	j	0x1308 <print+0x258>
    1274:	fc842783          	lw	a5,-56(s0)
    1278:	0007c703          	lbu	a4,0(a5)
    127c:	07500793          	li	a5,117
    1280:	02f71663          	bne	a4,a5,0x12ac <print+0x1fc>
    1284:	fc442783          	lw	a5,-60(s0)
    1288:	00478713          	addi	a4,a5,4
    128c:	fce42223          	sw	a4,-60(s0)
    1290:	438c                	c.lw	a1,0(a5)
    1292:	06100813          	li	a6,97
    1296:	87ce                	c.mv	a5,s3
    1298:	874a                	c.mv	a4,s2
    129a:	4681                	c.li	a3,0
    129c:	4629                	c.li	a2,10
    129e:	fcc42503          	lw	a0,-52(s0)
    12a2:	31cd                	c.jal	0xf84 <printi>
    12a4:	87aa                	c.mv	a5,a0
    12a6:	94be                	c.add	s1,a5
    12a8:	0600006f          	j	0x1308 <print+0x258>
    12ac:	fc842783          	lw	a5,-56(s0)
    12b0:	0007c703          	lbu	a4,0(a5)
    12b4:	06300793          	li	a5,99
    12b8:	04f71863          	bne	a4,a5,0x1308 <print+0x258>
    12bc:	fc442783          	lw	a5,-60(s0)
    12c0:	00478713          	addi	a4,a5,4
    12c4:	fce42223          	sw	a4,-60(s0)
    12c8:	439c                	c.lw	a5,0(a5)
    12ca:	0ff7f793          	zext.b	a5,a5
    12ce:	fcf40e23          	sb	a5,-36(s0)
    12d2:	fc040ea3          	sb	zero,-35(s0)
    12d6:	fdc40793          	addi	a5,s0,-36
    12da:	86ce                	c.mv	a3,s3
    12dc:	864a                	c.mv	a2,s2
    12de:	85be                	c.mv	a1,a5
    12e0:	fcc42503          	lw	a0,-52(s0)
    12e4:	3e55                	c.jal	0xe98 <prints>
    12e6:	87aa                	c.mv	a5,a0
    12e8:	94be                	c.add	s1,a5
    12ea:	a839                	c.j	0x1308 <print+0x258>
    12ec:	0001                	c.nop
    12ee:	a019                	c.j	0x12f4 <print+0x244>
    12f0:	00000013          	nop
    12f4:	fc842783          	lw	a5,-56(s0)
    12f8:	0007c783          	lbu	a5,0(a5)
    12fc:	85be                	c.mv	a1,a5
    12fe:	fcc42503          	lw	a0,-52(s0)
    1302:	3699                	c.jal	0xe48 <printchar>
    1304:	00148493          	addi	s1,s1,1
    1308:	fc842783          	lw	a5,-56(s0)
    130c:	00178793          	addi	a5,a5,1
    1310:	fcf42423          	sw	a5,-56(s0)
    1314:	fc842783          	lw	a5,-56(s0)
    1318:	0007c783          	lbu	a5,0(a5)
    131c:	da079ae3          	bnez	a5,0x10d0 <print+0x20>
    1320:	0080006f          	j	0x1328 <print+0x278>
    1324:	00000013          	nop
    1328:	fcc42783          	lw	a5,-52(s0)
    132c:	c791                	c.beqz	a5,0x1338 <print+0x288>
    132e:	fcc42783          	lw	a5,-52(s0)
    1332:	439c                	c.lw	a5,0(a5)
    1334:	00078023          	sb	zero,0(a5)
    1338:	87a6                	c.mv	a5,s1
    133a:	853e                	c.mv	a0,a5
    133c:	50f2                	c.lwsp	ra,60(sp)
    133e:	5462                	c.lwsp	s0,56(sp)
    1340:	54d2                	c.lwsp	s1,52(sp)
    1342:	5942                	c.lwsp	s2,48(sp)
    1344:	59b2                	c.lwsp	s3,44(sp)
    1346:	5a22                	c.lwsp	s4,40(sp)
    1348:	6121                	c.addi16sp	sp,64
    134a:	8082                	c.jr	ra

0000134c <printf>:
    134c:	715d                	c.addi16sp	sp,-80
    134e:	d606                	c.swsp	ra,44(sp)
    1350:	d422                	c.swsp	s0,40(sp)
    1352:	1800                	c.addi4spn	s0,sp,48
    1354:	fca42e23          	sw	a0,-36(s0)
    1358:	c04c                	c.sw	a1,4(s0)
    135a:	c410                	c.sw	a2,8(s0)
    135c:	c454                	c.sw	a3,12(s0)
    135e:	c818                	c.sw	a4,16(s0)
    1360:	c85c                	c.sw	a5,20(s0)
    1362:	01042c23          	sw	a6,24(s0)
    1366:	01142e23          	sw	a7,28(s0)
    136a:	02040793          	addi	a5,s0,32
    136e:	fcf42c23          	sw	a5,-40(s0)
    1372:	fd842783          	lw	a5,-40(s0)
    1376:	1791                	c.addi	a5,-28
    1378:	fef42623          	sw	a5,-20(s0)
    137c:	fec42783          	lw	a5,-20(s0)
    1380:	863e                	c.mv	a2,a5
    1382:	fdc42583          	lw	a1,-36(s0)
    1386:	4501                	c.li	a0,0
    1388:	3325                	c.jal	0x10b0 <print>
    138a:	87aa                	c.mv	a5,a0
    138c:	853e                	c.mv	a0,a5
    138e:	50b2                	c.lwsp	ra,44(sp)
    1390:	5422                	c.lwsp	s0,40(sp)
    1392:	6161                	c.addi16sp	sp,80
    1394:	00008067          	ret

00001398 <sprintf>:
    1398:	715d                	c.addi16sp	sp,-80
    139a:	d606                	c.swsp	ra,44(sp)
    139c:	d422                	c.swsp	s0,40(sp)
    139e:	1800                	c.addi4spn	s0,sp,48
    13a0:	fca42e23          	sw	a0,-36(s0)
    13a4:	fcb42c23          	sw	a1,-40(s0)
    13a8:	c410                	c.sw	a2,8(s0)
    13aa:	c454                	c.sw	a3,12(s0)
    13ac:	c818                	c.sw	a4,16(s0)
    13ae:	c85c                	c.sw	a5,20(s0)
    13b0:	01042c23          	sw	a6,24(s0)
    13b4:	01142e23          	sw	a7,28(s0)
    13b8:	02040793          	addi	a5,s0,32
    13bc:	fcf42a23          	sw	a5,-44(s0)
    13c0:	fd442783          	lw	a5,-44(s0)
    13c4:	17a1                	c.addi	a5,-24
    13c6:	fef42623          	sw	a5,-20(s0)
    13ca:	fec42703          	lw	a4,-20(s0)
    13ce:	fdc40793          	addi	a5,s0,-36
    13d2:	863a                	c.mv	a2,a4
    13d4:	fd842583          	lw	a1,-40(s0)
    13d8:	853e                	c.mv	a0,a5
    13da:	39d9                	c.jal	0x10b0 <print>
    13dc:	87aa                	c.mv	a5,a0
    13de:	853e                	c.mv	a0,a5
    13e0:	50b2                	c.lwsp	ra,44(sp)
    13e2:	5422                	c.lwsp	s0,40(sp)
    13e4:	6161                	c.addi16sp	sp,80
    13e6:	8082                	c.jr	ra

000013e8 <snprintf>:
    13e8:	715d                	c.addi16sp	sp,-80
    13ea:	d606                	c.swsp	ra,44(sp)
    13ec:	d422                	c.swsp	s0,40(sp)
    13ee:	1800                	c.addi4spn	s0,sp,48
    13f0:	fca42e23          	sw	a0,-36(s0)
    13f4:	fcb42c23          	sw	a1,-40(s0)
    13f8:	fcc42a23          	sw	a2,-44(s0)
    13fc:	c454                	c.sw	a3,12(s0)
    13fe:	c818                	c.sw	a4,16(s0)
    1400:	c85c                	c.sw	a5,20(s0)
    1402:	01042c23          	sw	a6,24(s0)
    1406:	01142e23          	sw	a7,28(s0)
    140a:	02040793          	addi	a5,s0,32
    140e:	fcf42823          	sw	a5,-48(s0)
    1412:	fd042783          	lw	a5,-48(s0)
    1416:	17b1                	c.addi	a5,-20
    1418:	fef42623          	sw	a5,-20(s0)
    141c:	fec42703          	lw	a4,-20(s0)
    1420:	fdc40793          	addi	a5,s0,-36
    1424:	863a                	c.mv	a2,a4
    1426:	fd442583          	lw	a1,-44(s0)
    142a:	853e                	c.mv	a0,a5
    142c:	3151                	c.jal	0x10b0 <print>
    142e:	87aa                	c.mv	a5,a0
    1430:	853e                	c.mv	a0,a5
    1432:	50b2                	c.lwsp	ra,44(sp)
    1434:	5422                	c.lwsp	s0,40(sp)
    1436:	6161                	c.addi16sp	sp,80
    1438:	8082                	c.jr	ra
    143a:	0001                	c.nop

0000143c <__divsf3>:
    143c:	00a5ce33          	xor	t3,a1,a0
    1440:	80000737          	lui	a4,0x80000
    1444:	00ee7e33          	and	t3,t3,a4
    1448:	00151613          	slli	a2,a0,0x1
    144c:	0586                	c.slli	a1,0x1
    144e:	01865293          	srli	t0,a2,0x18
    1452:	0185d393          	srli	t2,a1,0x18
    1456:	061e                	c.slli	a2,0x7
    1458:	00759693          	slli	a3,a1,0x7
    145c:	0a028a63          	beqz	t0,0x1510 <__divsf3+0xd4>
    1460:	0ff00893          	li	a7,255
    1464:	0d128863          	beq	t0,a7,0x1534 <__divsf3+0xf8>
    1468:	8e59                	c.or	a2,a4
    146a:	0e038363          	beqz	t2,0x1550 <__divsf3+0x114>
    146e:	0ff00893          	li	a7,255
    1472:	0d138a63          	beq	t2,a7,0x1546 <__divsf3+0x10a>
    1476:	8ed9                	c.or	a3,a4
    1478:	00d63fb3          	sltu	t6,a2,a3
    147c:	000f9463          	bnez	t6,0x1484 <__divsf3+0x48>
    1480:	8205                	c.srli	a2,0x1
    1482:	0285                	c.addi	t0,1
    1484:	00e6d793          	srli	a5,a3,0xe
    1488:	6891                	c.lui	a7,0x4
    148a:	18fd                	c.addi	a7,-1 # 0x3fff <__global_pointer$+0x1b67>
    148c:	0116feb3          	and	t4,a3,a7
    1490:	02f655b3          	divu	a1,a2,a5
    1494:	02f67533          	remu	a0,a2,a5
    1498:	02be8633          	mul	a2,t4,a1
    149c:	053a                	c.slli	a0,0xe
    149e:	00c53fb3          	sltu	t6,a0,a2
    14a2:	000f8463          	beqz	t6,0x14aa <__divsf3+0x6e>
    14a6:	15fd                	c.addi	a1,-1
    14a8:	9536                	c.add	a0,a3
    14aa:	8d11                	c.sub	a0,a2
    14ac:	02f55633          	divu	a2,a0,a5
    14b0:	02f57533          	remu	a0,a0,a5
    14b4:	02ce8eb3          	mul	t4,t4,a2
    14b8:	053a                	c.slli	a0,0xe
    14ba:	01d53fb3          	sltu	t6,a0,t4
    14be:	000f8463          	beqz	t6,0x14c6 <__divsf3+0x8a>
    14c2:	167d                	c.addi	a2,-1
    14c4:	9536                	c.add	a0,a3
    14c6:	41d50533          	sub	a0,a0,t4
    14ca:	00e59e93          	slli	t4,a1,0xe
    14ce:	9676                	c.add	a2,t4
    14d0:	0612                	c.slli	a2,0x4
    14d2:	c119                	c.beqz	a0,0x14d8 <__divsf3+0x9c>
    14d4:	00166613          	ori	a2,a2,1
    14d8:	07e00893          	li	a7,126
    14dc:	407887b3          	sub	a5,a7,t2
    14e0:	92be                	c.add	t0,a5
    14e2:	08505063          	blez	t0,0x1562 <__divsf3+0x126>
    14e6:	0ff2bf93          	sltiu	t6,t0,255
    14ea:	040f8963          	beqz	t6,0x153c <__divsf3+0x100>
    14ee:	08060613          	addi	a2,a2,128
    14f2:	08063f93          	sltiu	t6,a2,128
    14f6:	92fe                	c.add	t0,t6
    14f8:	00865793          	srli	a5,a2,0x8
    14fc:	8b85                	c.andi	a5,1
    14fe:	8e1d                	c.sub	a2,a5
    1500:	0606                	c.slli	a2,0x1
    1502:	8225                	c.srli	a2,0x9
    1504:	01729513          	slli	a0,t0,0x17
    1508:	8d51                	c.or	a0,a2
    150a:	01c56533          	or	a0,a0,t3
    150e:	8082                	c.jr	ra
    1510:	e219                	c.bnez	a2,0x1516 <__divsf3+0xda>
    1512:	a801                	c.j	0x1522 <__divsf3+0xe6>
    1514:	12fd                	c.addi	t0,-1
    1516:	9632                	c.add	a2,a2
    1518:	00e63fb3          	sltu	t6,a2,a4
    151c:	fe0f9ce3          	bnez	t6,0x1514 <__divsf3+0xd8>
    1520:	b7a9                	c.j	0x146a <__divsf3+0x2e>
    1522:	c585                	c.beqz	a1,0x154a <__divsf3+0x10e>
    1524:	ff0007b7          	lui	a5,0xff000
    1528:	00b7bfb3          	sltu	t6,a5,a1
    152c:	000f9f63          	bnez	t6,0x154a <__divsf3+0x10e>
    1530:	8572                	c.mv	a0,t3
    1532:	bff1                	c.j	0x150e <__divsf3+0xd2>
    1534:	00e61b63          	bne	a2,a4,0x154a <__divsf3+0x10e>
    1538:	00538963          	beq	t2,t0,0x154a <__divsf3+0x10e>
    153c:	7f800537          	lui	a0,0x7f800
    1540:	01c56533          	or	a0,a0,t3
    1544:	b7e9                	c.j	0x150e <__divsf3+0xd2>
    1546:	fee685e3          	beq	a3,a4,0x1530 <__divsf3+0xf4>
    154a:	ffc00537          	lui	a0,0xffc00
    154e:	b7c1                	c.j	0x150e <__divsf3+0xd2>
    1550:	e299                	c.bnez	a3,0x1556 <__divsf3+0x11a>
    1552:	b7ed                	c.j	0x153c <__divsf3+0x100>
    1554:	13fd                	c.addi	t2,-1
    1556:	96b6                	c.add	a3,a3
    1558:	00e6bfb3          	sltu	t6,a3,a4
    155c:	fe0f9ce3          	bnez	t6,0x1554 <__divsf3+0x118>
    1560:	bf21                	c.j	0x1478 <__divsf3+0x3c>
    1562:	4885                	c.li	a7,1
    1564:	405885b3          	sub	a1,a7,t0
    1568:	0205bf93          	sltiu	t6,a1,32
    156c:	fc0f82e3          	beqz	t6,0x1530 <__divsf3+0xf4>
    1570:	02000893          	li	a7,32
    1574:	40b887b3          	sub	a5,a7,a1
    1578:	00f612b3          	sll	t0,a2,a5
    157c:	00b65633          	srl	a2,a2,a1
    1580:	00028463          	beqz	t0,0x1588 <__divsf3+0x14c>
    1584:	00266613          	ori	a2,a2,2
    1588:	08060793          	addi	a5,a2,128
    158c:	0007a293          	slti	t0,a5,0
    1590:	bfb9                	c.j	0x14ee <__divsf3+0xb2>
    1592:	0001                	c.nop

00001594 <__fixsfsi>:
    1594:	00151593          	slli	a1,a0,0x1
    1598:	00759613          	slli	a2,a1,0x7
    159c:	81e1                	c.srli	a1,0x18
    159e:	09e00893          	li	a7,158
    15a2:	40b885b3          	sub	a1,a7,a1
    15a6:	800007b7          	lui	a5,0x80000
    15aa:	02b05363          	blez	a1,0x15d0 <__fixsfsi+0x3c>
    15ae:	0205af93          	slti	t6,a1,32
    15b2:	000f8d63          	beqz	t6,0x15cc <__fixsfsi+0x38>
    15b6:	8e5d                	c.or	a2,a5
    15b8:	00b65633          	srl	a2,a2,a1
    15bc:	00052f93          	slti	t6,a0,0
    15c0:	40c00533          	neg	a0,a2
    15c4:	000f9363          	bnez	t6,0x15ca <__fixsfsi+0x36>
    15c8:	8532                	c.mv	a0,a2
    15ca:	8082                	c.jr	ra
    15cc:	4501                	c.li	a0,0
    15ce:	8082                	c.jr	ra
    15d0:	7f800737          	lui	a4,0x7f800
    15d4:	00a73fb3          	sltu	t6,a4,a0
    15d8:	000f8463          	beqz	t6,0x15e0 <__fixsfsi+0x4c>
    15dc:	853e                	c.mv	a0,a5
    15de:	8082                	c.jr	ra
    15e0:	fff78513          	addi	a0,a5,-1 # 0x7fffffff <boot_loader+0xffffffff>
    15e4:	8082                	c.jr	ra
    15e6:	0001                	c.nop

000015e8 <__floatunsisf>:
    15e8:	cd0d                	c.beqz	a0,0x1622 <__floatunsisf+0x3a>
    15ea:	09e00593          	li	a1,158
    15ee:	47c1                	c.li	a5,16
    15f0:	4681                	c.li	a3,0
    15f2:	96be                	c.add	a3,a5
    15f4:	00d55fb3          	srl	t6,a0,a3
    15f8:	000f9563          	bnez	t6,0x1602 <__floatunsisf+0x1a>
    15fc:	00f51533          	sll	a0,a0,a5
    1600:	8d9d                	c.sub	a1,a5
    1602:	8385                	c.srli	a5,0x1
    1604:	f7fd                	c.bnez	a5,0x15f2 <__floatunsisf+0xa>
    1606:	08050513          	addi	a0,a0,128 # 0xffc00080 <boot_loader+0x7fc00080>
    160a:	08053f93          	sltiu	t6,a0,128
    160e:	95fe                	c.add	a1,t6
    1610:	00855713          	srli	a4,a0,0x8
    1614:	8b05                	c.andi	a4,1
    1616:	8d19                	c.sub	a0,a4
    1618:	0506                	c.slli	a0,0x1
    161a:	8125                	c.srli	a0,0x9
    161c:	01759713          	slli	a4,a1,0x17
    1620:	8d59                	c.or	a0,a4
    1622:	8082                	c.jr	ra

00001624 <__floatundisf>:
    1624:	1141                	c.addi	sp,-16
    1626:	c026                	c.swsp	s1,0(sp)
    1628:	c206                	c.swsp	ra,4(sp)
    162a:	86ae                	c.mv	a3,a1
    162c:	862a                	c.mv	a2,a0
    162e:	00a5e4b3          	or	s1,a1,a0
    1632:	c8b5                	c.beqz	s1,0x16a6 <__floatundisf+0x82>
    1634:	0be00713          	li	a4,190
    1638:	ea89                	c.bnez	a3,0x164a <__floatundisf+0x26>
    163a:	e219                	c.bnez	a2,0x1640 <__floatundisf+0x1c>
    163c:	4701                	c.li	a4,0
    163e:	a091                	c.j	0x1682 <__floatundisf+0x5e>
    1640:	86b2                	c.mv	a3,a2
    1642:	4601                	c.li	a2,0
    1644:	02000793          	li	a5,32
    1648:	8f1d                	c.sub	a4,a5
    164a:	1101                	c.addi	sp,-32
    164c:	c02a                	c.swsp	a0,0(sp)
    164e:	c22e                	c.swsp	a1,4(sp)
    1650:	c432                	c.swsp	a2,8(sp)
    1652:	c636                	c.swsp	a3,12(sp)
    1654:	c83a                	c.swsp	a4,16(sp)
    1656:	8536                	c.mv	a0,a3
    1658:	28a1                	c.jal	0x16b0 <__clzsi2>
    165a:	87aa                	c.mv	a5,a0
    165c:	4502                	c.lwsp	a0,0(sp)
    165e:	4592                	c.lwsp	a1,4(sp)
    1660:	4622                	c.lwsp	a2,8(sp)
    1662:	46b2                	c.lwsp	a3,12(sp)
    1664:	4742                	c.lwsp	a4,16(sp)
    1666:	6105                	c.addi16sp	sp,32
    1668:	cf89                	c.beqz	a5,0x1682 <__floatundisf+0x5e>
    166a:	8f1d                	c.sub	a4,a5
    166c:	02000893          	li	a7,32
    1670:	40f88533          	sub	a0,a7,a5
    1674:	00a65533          	srl	a0,a2,a0
    1678:	00f61633          	sll	a2,a2,a5
    167c:	00f696b3          	sll	a3,a3,a5
    1680:	8ec9                	c.or	a3,a0
    1682:	c219                	c.beqz	a2,0x1688 <__floatundisf+0x64>
    1684:	0016e693          	ori	a3,a3,1
    1688:	08000f93          	li	t6,128
    168c:	96fe                	c.add	a3,t6
    168e:	01f6bfb3          	sltu	t6,a3,t6
    1692:	977e                	c.add	a4,t6
    1694:	0086d493          	srli	s1,a3,0x8
    1698:	8885                	c.andi	s1,1
    169a:	8e85                	c.sub	a3,s1
    169c:	0686                	c.slli	a3,0x1
    169e:	82a5                	c.srli	a3,0x9
    16a0:	01771493          	slli	s1,a4,0x17
    16a4:	8ec5                	c.or	a3,s1
    16a6:	8536                	c.mv	a0,a3
    16a8:	4482                	c.lwsp	s1,0(sp)
    16aa:	4092                	c.lwsp	ra,4(sp)
    16ac:	0141                	c.addi	sp,16
    16ae:	8082                	c.jr	ra

000016b0 <__clzsi2>:
    16b0:	67c1                	c.lui	a5,0x10
    16b2:	02f57563          	bgeu	a0,a5,0x16dc <__clzsi2+0x2c>
    16b6:	10053713          	sltiu	a4,a0,256
    16ba:	00174713          	xori	a4,a4,1
    16be:	070e                	c.slli	a4,0x3
    16c0:	00e55533          	srl	a0,a0,a4
    16c4:	e08f978b          	addigp	a5,-2552 # 0x1aa0 <__clz_tab>
    16c8:	97aa                	c.add	a5,a0
    16ca:	0007c503          	lbu	a0,0(a5) # 0x10000 <__global_pointer$+0xdb68>
    16ce:	02000693          	li	a3,32
    16d2:	8e99                	c.sub	a3,a4
    16d4:	40a68533          	sub	a0,a3,a0
    16d8:	00008067          	ret
    16dc:	010007b7          	lui	a5,0x1000
    16e0:	00f57e63          	bgeu	a0,a5,0x16fc <__clzsi2+0x4c>
    16e4:	4741                	c.li	a4,16
    16e6:	00e55533          	srl	a0,a0,a4
    16ea:	e08f978b          	addigp	a5,-2552 # 0x1aa0 <__clz_tab>
    16ee:	97aa                	c.add	a5,a0
    16f0:	0007c503          	lbu	a0,0(a5) # 0x1000000 <__global_pointer$+0xffdb68>
    16f4:	46c1                	c.li	a3,16
    16f6:	40a68533          	sub	a0,a3,a0
    16fa:	8082                	c.jr	ra
    16fc:	4761                	c.li	a4,24
    16fe:	00e55533          	srl	a0,a0,a4
    1702:	e08f978b          	addigp	a5,-2552 # 0x1aa0 <__clz_tab>
    1706:	97aa                	c.add	a5,a0
    1708:	0007c503          	lbu	a0,0(a5)
    170c:	46a1                	c.li	a3,8
    170e:	40a68533          	sub	a0,a3,a0
    1712:	8082                	c.jr	ra

00001714 <memset>:
    1714:	832a                	c.mv	t1,a0
    1716:	00c503b3          	add	t2,a0,a2
    171a:	00357693          	andi	a3,a0,3
    171e:	ce81                	c.beqz	a3,0x1736 <memset+0x22>
    1720:	ffc68693          	addi	a3,a3,-4
    1724:	40d507b3          	sub	a5,a0,a3
    1728:	06f3e463          	bltu	t2,a5,0x1790 <memset+0x7c>
    172c:	00b50023          	sb	a1,0(a0)
    1730:	0505                	c.addi	a0,1
    1732:	fea79de3          	bne	a5,a0,0x172c <memset+0x18>
    1736:	04750d63          	beq	a0,t2,0x1790 <memset+0x7c>
    173a:	05e2                	c.slli	a1,0x18
    173c:	0085d793          	srli	a5,a1,0x8
    1740:	95be                	c.add	a1,a5
    1742:	0105d793          	srli	a5,a1,0x10
    1746:	95be                	c.add	a1,a5
    1748:	40a38633          	sub	a2,t2,a0
    174c:	02000713          	li	a4,32
    1750:	fe067693          	andi	a3,a2,-32
    1754:	00a687b3          	add	a5,a3,a0
    1758:	e285                	c.bnez	a3,0x1778 <memset+0x64>
    175a:	ffc67693          	andi	a3,a2,-4
    175e:	ca8d                	c.beqz	a3,0x1790 <memset+0x7c>
    1760:	40d70633          	sub	a2,a4,a3
    1764:	00a687b3          	add	a5,a3,a0
    1768:	8736                	c.mv	a4,a3
    176a:	8205                	c.srli	a2,0x1
    176c:	00000697          	auipc	a3,0x0
    1770:	00c686b3          	add	a3,a3,a2
    1774:	00c68067          	jr	12(a3) # 0x1778 <memset+0x64>
    1778:	cd4c                	c.sw	a1,28(a0)
    177a:	cd0c                	c.sw	a1,24(a0)
    177c:	c94c                	c.sw	a1,20(a0)
    177e:	c90c                	c.sw	a1,16(a0)
    1780:	c54c                	c.sw	a1,12(a0)
    1782:	c50c                	c.sw	a1,8(a0)
    1784:	c14c                	c.sw	a1,4(a0)
    1786:	c10c                	c.sw	a1,0(a0)
    1788:	953a                	c.add	a0,a4
    178a:	fef517e3          	bne	a0,a5,0x1778 <memset+0x64>
    178e:	bf6d                	c.j	0x1748 <memset+0x34>
    1790:	879e                	c.mv	a5,t2
    1792:	f8751de3          	bne	a0,t2,0x172c <memset+0x18>
    1796:	851a                	c.mv	a0,t1
    1798:	8082                	c.jr	ra

0000179a <__libc_init_array>:
    179a:	084002ef          	jal	t0,0x181e <__riscv_save_0>
    179e:	801f978b          	addigp	a5,-2048 # 0x1c98 <__dso_handle>
    17a2:	801f940b          	addigp	s0,-2048 # 0x1c98 <__dso_handle>
    17a6:	8c1d                	c.sub	s0,a5
    17a8:	8409                	c.srai	s0,0x2
    17aa:	801f948b          	addigp	s1,-2048 # 0x1c98 <__dso_handle>
    17ae:	4901                	c.li	s2,0
    17b0:	02891563          	bne	s2,s0,0x17da <__libc_init_array+0x40>
    17b4:	00000793          	li	a5,0
    17b8:	c789                	c.beqz	a5,0x17c2 <__libc_init_array+0x28>
    17ba:	00000097          	auipc	ra,0x0
    17be:	000000e7          	jalr	zero # 0x0 <_start>
    17c2:	801f978b          	addigp	a5,-2048 # 0x1c98 <__dso_handle>
    17c6:	801f940b          	addigp	s0,-2048 # 0x1c98 <__dso_handle>
    17ca:	8c1d                	c.sub	s0,a5
    17cc:	8409                	c.srai	s0,0x2
    17ce:	801f948b          	addigp	s1,-2048 # 0x1c98 <__dso_handle>
    17d2:	4901                	c.li	s2,0
    17d4:	00891863          	bne	s2,s0,0x17e4 <__libc_init_array+0x4a>
    17d8:	a0ad                	c.j	0x1842 <__riscv_restore_0>
    17da:	409c                	c.lw	a5,0(s1)
    17dc:	0905                	c.addi	s2,1
    17de:	0491                	c.addi	s1,4
    17e0:	9782                	c.jalr	a5
    17e2:	b7f9                	c.j	0x17b0 <__libc_init_array+0x16>
    17e4:	409c                	c.lw	a5,0(s1)
    17e6:	0905                	c.addi	s2,1
    17e8:	0491                	c.addi	s1,4
    17ea:	9782                	c.jalr	a5
    17ec:	b7e5                	c.j	0x17d4 <__libc_init_array+0x3a>

000017ee <__riscv_save_12>:
    17ee:	7139                	c.addi16sp	sp,-64
    17f0:	4301                	c.li	t1,0
    17f2:	c66e                	c.swsp	s11,12(sp)
    17f4:	a019                	c.j	0x17fa <__riscv_save_10+0x4>

000017f6 <__riscv_save_10>:
    17f6:	7139                	c.addi16sp	sp,-64
    17f8:	5341                	c.li	t1,-16
    17fa:	c86a                	c.swsp	s10,16(sp)
    17fc:	ca66                	c.swsp	s9,20(sp)
    17fe:	cc62                	c.swsp	s8,24(sp)
    1800:	ce5e                	c.swsp	s7,28(sp)
    1802:	a019                	c.j	0x1808 <__riscv_save_4+0x4>

00001804 <__riscv_save_4>:
    1804:	7139                	c.addi16sp	sp,-64
    1806:	5301                	c.li	t1,-32
    1808:	d05a                	c.swsp	s6,32(sp)
    180a:	d256                	c.swsp	s5,36(sp)
    180c:	d452                	c.swsp	s4,40(sp)
    180e:	d64e                	c.swsp	s3,44(sp)
    1810:	d84a                	c.swsp	s2,48(sp)
    1812:	da26                	c.swsp	s1,52(sp)
    1814:	dc22                	c.swsp	s0,56(sp)
    1816:	de06                	c.swsp	ra,60(sp)
    1818:	40610133          	sub	sp,sp,t1
    181c:	8282                	c.jr	t0

0000181e <__riscv_save_0>:
    181e:	1141                	c.addi	sp,-16
    1820:	c04a                	c.swsp	s2,0(sp)
    1822:	c226                	c.swsp	s1,4(sp)
    1824:	c422                	c.swsp	s0,8(sp)
    1826:	c606                	c.swsp	ra,12(sp)
    1828:	8282                	c.jr	t0

0000182a <__riscv_restore_12>:
    182a:	4db2                	c.lwsp	s11,12(sp)
    182c:	0141                	c.addi	sp,16

0000182e <__riscv_restore_10>:
    182e:	4d02                	c.lwsp	s10,0(sp)
    1830:	4c92                	c.lwsp	s9,4(sp)
    1832:	4c22                	c.lwsp	s8,8(sp)
    1834:	4bb2                	c.lwsp	s7,12(sp)
    1836:	0141                	c.addi	sp,16

00001838 <__riscv_restore_4>:
    1838:	4b02                	c.lwsp	s6,0(sp)
    183a:	4a92                	c.lwsp	s5,4(sp)
    183c:	4a22                	c.lwsp	s4,8(sp)
    183e:	49b2                	c.lwsp	s3,12(sp)
    1840:	0141                	c.addi	sp,16

00001842 <__riscv_restore_0>:
    1842:	4902                	c.lwsp	s2,0(sp)
    1844:	4492                	c.lwsp	s1,4(sp)
    1846:	4422                	c.lwsp	s0,8(sp)
    1848:	40b2                	c.lwsp	ra,12(sp)
    184a:	0141                	c.addi	sp,16
    184c:	8082                	c.jr	ra
    184e:	0001                	c.nop

Disassembly of section .rodata:

00001850 <irq_handler-0x1c8>:
    1850:	0a0d                	c.addi	s4,3
    1852:	7449                	c.lui	s0,0xffff2
    1854:	61207327          	.4byte	0x61207327
    1858:	206e                	.2byte	0x206e
    185a:	7441                	c.lui	s0,0xffff0
    185c:	63696d6f          	jal	s10,0x97e92 <__global_pointer$+0x959fa>
    1860:	4920                	c.lw	s0,80(a0)
    1862:	736e                	.2byte	0x736e
    1864:	7274                	.2byte	0x7274
    1866:	6375                	c.lui	t1,0x1d
    1868:	6974                	.2byte	0x6974
    186a:	64206e6f          	jal	t3,0x7eac <__global_pointer$+0x5a14>
    186e:	6d65                	c.lui	s10,0x19
    1870:	0a0d2e6f          	jal	t3,0xd3910 <__global_pointer$+0xd1478>
    1874:	0a0d                	c.addi	s4,3
    1876:	0000                	c.unimp
    1878:	0a0d                	c.addi	s4,3
    187a:	7441                	c.lui	s0,0xffff0
    187c:	63696d6f          	jal	s10,0x97eb2 <__global_pointer$+0x95a1a>
    1880:	6920                	.2byte	0x6920
    1882:	736e                	.2byte	0x736e
    1884:	7274                	.2byte	0x7274
    1886:	6375                	c.lui	t1,0x1d
    1888:	6974                	.2byte	0x6974
    188a:	50206e6f          	jal	t3,0x7d8c <__global_pointer$+0x58f4>
    188e:	5341                	c.li	t1,-16
    1890:	00002153          	.4byte	0x2153
    1894:	6d61                	c.lui	s10,0x18
    1896:	6177736f          	jal	t1,0x796ac <__global_pointer$+0x77214>
    189a:	2e70                	.2byte	0x2e70
    189c:	65622077          	.4byte	0x65622077
    18a0:	6f66                	.2byte	0x6f66
    18a2:	6572                	.2byte	0x6572
    18a4:	0020                	c.addi4spn	s0,sp,8
    18a6:	0000                	c.unimp
    18a8:	6d61                	c.lui	s10,0x18
    18aa:	6177736f          	jal	t1,0x796c0 <__global_pointer$+0x77228>
    18ae:	2e70                	.2byte	0x2e70
    18b0:	6f642077          	.4byte	0x6f642077
    18b4:	656e                	.2byte	0x656e
    18b6:	0020                	c.addi4spn	s0,sp,8
    18b8:	6d61                	c.lui	s10,0x18
    18ba:	6464616f          	jal	sp,0x47f00 <__global_pointer$+0x45a68>
    18be:	772e                	.2byte	0x772e
    18c0:	3a20                	.2byte	0x3a20
    18c2:	6f20                	.2byte	0x6f20
    18c4:	646c                	.2byte	0x646c
    18c6:	2076                	.2byte	0x2076
    18c8:	203d                	c.jal	0x18f6 <__riscv_restore_0+0xb4>
    18ca:	7830                	.2byte	0x7830
    18cc:	7825                	c.lui	a6,0xfffe9
    18ce:	0a0d                	c.addi	s4,3
    18d0:	0000                	c.unimp
    18d2:	0000                	c.unimp
    18d4:	6d61                	c.lui	s10,0x18
    18d6:	726f786f          	jal	a6,0xf8ffc <__global_pointer$+0xf6b64>
    18da:	772e                	.2byte	0x772e
    18dc:	3a20                	.2byte	0x3a20
    18de:	6f20                	.2byte	0x6f20
    18e0:	646c                	.2byte	0x646c
    18e2:	2076                	.2byte	0x2076
    18e4:	203d                	c.jal	0x1912 <__riscv_restore_0+0xd0>
    18e6:	7830                	.2byte	0x7830
    18e8:	7825                	c.lui	a6,0xfffe9
    18ea:	0a0d                	c.addi	s4,3
    18ec:	0000                	c.unimp
    18ee:	0000                	c.unimp
    18f0:	6d61                	c.lui	s10,0x18
    18f2:	646e616f          	jal	sp,0xe7f38 <__global_pointer$+0xe5aa0>
    18f6:	772e                	.2byte	0x772e
    18f8:	3a20                	.2byte	0x3a20
    18fa:	6f20                	.2byte	0x6f20
    18fc:	646c                	.2byte	0x646c
    18fe:	2076                	.2byte	0x2076
    1900:	203d                	c.jal	0x192e <__riscv_restore_0+0xec>
    1902:	7830                	.2byte	0x7830
    1904:	7825                	c.lui	a6,0xfffe9
    1906:	0a0d                	c.addi	s4,3
    1908:	0000                	c.unimp
    190a:	0000                	c.unimp
    190c:	6d61                	c.lui	s10,0x18
    190e:	2e726f6f          	jal	t5,0x283f4 <__global_pointer$+0x25f5c>
    1912:	203a2077          	.4byte	0x203a2077
    1916:	76646c6f          	jal	s8,0x4807c <__global_pointer$+0x45be4>
    191a:	3d20                	.2byte	0x3d20
    191c:	3020                	.2byte	0x3020
    191e:	2578                	.2byte	0x2578
    1920:	0d78                	c.addi4spn	a4,sp,668
    1922:	000a                	c.slli	zero,0x2
    1924:	6d61                	c.lui	s10,0x18
    1926:	6e696d6f          	jal	s10,0x9800c <__global_pointer$+0x95b74>
    192a:	772e                	.2byte	0x772e
    192c:	3a20                	.2byte	0x3a20
    192e:	6f20                	.2byte	0x6f20
    1930:	646c                	.2byte	0x646c
    1932:	2076                	.2byte	0x2076
    1934:	203d                	c.jal	0x1962 <__riscv_restore_0+0x120>
    1936:	7830                	.2byte	0x7830
    1938:	7825                	c.lui	a6,0xfffe9
    193a:	0a0d                	c.addi	s4,3
    193c:	0000                	c.unimp
    193e:	0000                	c.unimp
    1940:	6d61                	c.lui	s10,0x18
    1942:	78616d6f          	jal	s10,0x180c8 <__global_pointer$+0x15c30>
    1946:	772e                	.2byte	0x772e
    1948:	3a20                	.2byte	0x3a20
    194a:	6f20                	.2byte	0x6f20
    194c:	646c                	.2byte	0x646c
    194e:	2076                	.2byte	0x2076
    1950:	203d                	c.jal	0x197e <__riscv_restore_0+0x13c>
    1952:	7830                	.2byte	0x7830
    1954:	7825                	c.lui	a6,0xfffe9
    1956:	0a0d                	c.addi	s4,3
    1958:	0000                	c.unimp
    195a:	0000                	c.unimp
    195c:	6d61                	c.lui	s10,0x18
    195e:	6e696d6f          	jal	s10,0x98044 <__global_pointer$+0x95bac>
    1962:	2e75                	c.jal	0x1d1e <__bss_start+0x7e>
    1964:	203a2077          	.4byte	0x203a2077
    1968:	76646c6f          	jal	s8,0x480ce <__global_pointer$+0x45c36>
    196c:	3d20                	.2byte	0x3d20
    196e:	3020                	.2byte	0x3020
    1970:	2578                	.2byte	0x2578
    1972:	0d78                	c.addi4spn	a4,sp,668
    1974:	000a                	c.slli	zero,0x2
    1976:	0000                	c.unimp
    1978:	6d61                	c.lui	s10,0x18
    197a:	78616d6f          	jal	s10,0x18100 <__global_pointer$+0x15c68>
    197e:	2e75                	c.jal	0x1d3a <__bss_start+0x9a>
    1980:	203a2077          	.4byte	0x203a2077
    1984:	76646c6f          	jal	s8,0x480ea <__global_pointer$+0x45c52>
    1988:	3d20                	.2byte	0x3d20
    198a:	3020                	.2byte	0x3020
    198c:	2578                	.2byte	0x2578
    198e:	0d78                	c.addi4spn	a4,sp,668
    1990:	000a                	c.slli	zero,0x2
    1992:	0000                	c.unimp
    1994:	63737973          	csrrci	s2,0x637,6
    1998:	6c61                	c.lui	s8,0x18
    199a:	206c                	.2byte	0x206c
    199c:	646c2523          	sw	t1,1610(s8) # 0x1864a <__global_pointer$+0x161b2>
    19a0:	2820                	.2byte	0x2820
    19a2:	3061                	c.jal	0x122a <print+0x17a>
    19a4:	303a                	.2byte	0x303a
    19a6:	2578                	.2byte	0x2578
    19a8:	786c                	.2byte	0x786c
    19aa:	612c                	.2byte	0x612c
    19ac:	3a31                	c.jal	0x12c8 <print+0x218>
    19ae:	7830                	.2byte	0x7830
    19b0:	6c25                	c.lui	s8,0x9
    19b2:	2c78                	.2byte	0x2c78
    19b4:	6120                	.2byte	0x6120
    19b6:	3a32                	.2byte	0x3a32
    19b8:	7830                	.2byte	0x7830
    19ba:	6c25                	c.lui	s8,0x9
    19bc:	2c78                	.2byte	0x2c78
    19be:	6120                	.2byte	0x6120
    19c0:	78303a33          	.4byte	0x78303a33
    19c4:	6c25                	c.lui	s8,0x9
    19c6:	2978                	.2byte	0x2978
    19c8:	000a                	c.slli	zero,0x2
    19ca:	0000                	c.unimp
    19cc:	6e55                	c.lui	t3,0x15
    19ce:	6168                	.2byte	0x6168
    19d0:	646e                	.2byte	0x646e
    19d2:	656c                	.2byte	0x656c
    19d4:	2064                	.2byte	0x2064
    19d6:	7254                	.2byte	0x7254
    19d8:	7061                	c.lui	zero,0xffff8
    19da:	3a20                	.2byte	0x3a20
    19dc:	6d20                	.2byte	0x6d20
    19de:	73756163          	bltu	a0,s7,0x2100 <__bss_start+0x460>
    19e2:	2065                	c.jal	0x1a8a <irq_handler+0x72>
    19e4:	203d                	c.jal	0x1a12 <__riscv_restore_0+0x1d0>
    19e6:	7830                	.2byte	0x7830
    19e8:	7825                	c.lui	a6,0xfffe9
    19ea:	202c                	.2byte	0x202c
    19ec:	656d                	c.lui	a0,0x1b
    19ee:	6370                	.2byte	0x6370
    19f0:	3d20                	.2byte	0x3d20
    19f2:	3020                	.2byte	0x3020
    19f4:	2578                	.2byte	0x2578
    19f6:	0a78                	c.addi4spn	a4,sp,284
    19f8:	0000                	c.unimp
    19fa:	0000                	c.unimp
    19fc:	6544                	.2byte	0x6544
    19fe:	6166                	.2byte	0x6166
    1a00:	6c75                	c.lui	s8,0x1d
    1a02:	2074                	.2byte	0x2074
    1a04:	6e69                	c.lui	t3,0x1a
    1a06:	6574                	.2byte	0x6574
    1a08:	7272                	.2byte	0x7272
    1a0a:	7075                	c.lui	zero,0xffffd
    1a0c:	2074                	.2byte	0x2074
    1a0e:	6168                	.2byte	0x6168
    1a10:	646e                	.2byte	0x646e
    1a12:	656c                	.2byte	0x656c
    1a14:	0d72                	c.slli	s10,0x1c
    1a16:	000a                	c.slli	zero,0x2

00001a18 <irq_handler>:
    1a18:	0984                	c.addi4spn	s1,sp,208
    1a1a:	0000                	c.unimp
    1a1c:	0984                	c.addi4spn	s1,sp,208
    1a1e:	0000                	c.unimp
    1a20:	0984                	c.addi4spn	s1,sp,208
    1a22:	0000                	c.unimp
    1a24:	0984                	c.addi4spn	s1,sp,208
    1a26:	0000                	c.unimp
    1a28:	0984                	c.addi4spn	s1,sp,208
    1a2a:	0000                	c.unimp
    1a2c:	0984                	c.addi4spn	s1,sp,208
    1a2e:	0000                	c.unimp
    1a30:	0984                	c.addi4spn	s1,sp,208
    1a32:	0000                	c.unimp
    1a34:	0984                	c.addi4spn	s1,sp,208
    1a36:	0000                	c.unimp
    1a38:	0984                	c.addi4spn	s1,sp,208
    1a3a:	0000                	c.unimp
    1a3c:	0984                	c.addi4spn	s1,sp,208
    1a3e:	0000                	c.unimp
    1a40:	0984                	c.addi4spn	s1,sp,208
    1a42:	0000                	c.unimp
    1a44:	0984                	c.addi4spn	s1,sp,208
    1a46:	0000                	c.unimp
    1a48:	0984                	c.addi4spn	s1,sp,208
    1a4a:	0000                	c.unimp
    1a4c:	0984                	c.addi4spn	s1,sp,208
    1a4e:	0000                	c.unimp
    1a50:	0984                	c.addi4spn	s1,sp,208
    1a52:	0000                	c.unimp
    1a54:	0984                	c.addi4spn	s1,sp,208
    1a56:	0000                	c.unimp
    1a58:	0984                	c.addi4spn	s1,sp,208
    1a5a:	0000                	c.unimp
    1a5c:	0984                	c.addi4spn	s1,sp,208
    1a5e:	0000                	c.unimp
    1a60:	0984                	c.addi4spn	s1,sp,208
    1a62:	0000                	c.unimp
    1a64:	0984                	c.addi4spn	s1,sp,208
    1a66:	0000                	c.unimp
    1a68:	0984                	c.addi4spn	s1,sp,208
    1a6a:	0000                	c.unimp
    1a6c:	0984                	c.addi4spn	s1,sp,208
    1a6e:	0000                	c.unimp
    1a70:	0984                	c.addi4spn	s1,sp,208
    1a72:	0000                	c.unimp
    1a74:	0984                	c.addi4spn	s1,sp,208
    1a76:	0000                	c.unimp
    1a78:	0984                	c.addi4spn	s1,sp,208
    1a7a:	0000                	c.unimp
    1a7c:	0984                	c.addi4spn	s1,sp,208
    1a7e:	0000                	c.unimp
    1a80:	0984                	c.addi4spn	s1,sp,208
    1a82:	0000                	c.unimp
    1a84:	0984                	c.addi4spn	s1,sp,208
    1a86:	0000                	c.unimp
    1a88:	0984                	c.addi4spn	s1,sp,208
    1a8a:	0000                	c.unimp
    1a8c:	0984                	c.addi4spn	s1,sp,208
    1a8e:	0000                	c.unimp
    1a90:	0984                	c.addi4spn	s1,sp,208
    1a92:	0000                	c.unimp
    1a94:	0984                	c.addi4spn	s1,sp,208
    1a96:	0000                	c.unimp
    1a98:	6e28                	.2byte	0x6e28
    1a9a:	6c75                	c.lui	s8,0x1d
    1a9c:	296c                	.2byte	0x296c
	...

00001aa0 <__clz_tab>:
    1aa0:	0100                	c.addi4spn	s0,sp,128
    1aa2:	0202                	c.slli64	tp
    1aa4:	03030303          	lb	t1,48(t1) # 0x1d030 <__global_pointer$+0x1ab98>
    1aa8:	0404                	c.addi4spn	s1,sp,512
    1aaa:	0404                	c.addi4spn	s1,sp,512
    1aac:	0404                	c.addi4spn	s1,sp,512
    1aae:	0404                	c.addi4spn	s1,sp,512
    1ab0:	0505                	c.addi	a0,1 # 0x1b001 <__global_pointer$+0x18b69>
    1ab2:	0505                	c.addi	a0,1
    1ab4:	0505                	c.addi	a0,1
    1ab6:	0505                	c.addi	a0,1
    1ab8:	0505                	c.addi	a0,1
    1aba:	0505                	c.addi	a0,1
    1abc:	0505                	c.addi	a0,1
    1abe:	0505                	c.addi	a0,1
    1ac0:	0606                	c.slli	a2,0x1
    1ac2:	0606                	c.slli	a2,0x1
    1ac4:	0606                	c.slli	a2,0x1
    1ac6:	0606                	c.slli	a2,0x1
    1ac8:	0606                	c.slli	a2,0x1
    1aca:	0606                	c.slli	a2,0x1
    1acc:	0606                	c.slli	a2,0x1
    1ace:	0606                	c.slli	a2,0x1
    1ad0:	0606                	c.slli	a2,0x1
    1ad2:	0606                	c.slli	a2,0x1
    1ad4:	0606                	c.slli	a2,0x1
    1ad6:	0606                	c.slli	a2,0x1
    1ad8:	0606                	c.slli	a2,0x1
    1ada:	0606                	c.slli	a2,0x1
    1adc:	0606                	c.slli	a2,0x1
    1ade:	0606                	c.slli	a2,0x1
    1ae0:	07070707          	.4byte	0x7070707
    1ae4:	07070707          	.4byte	0x7070707
    1ae8:	07070707          	.4byte	0x7070707
    1aec:	07070707          	.4byte	0x7070707
    1af0:	07070707          	.4byte	0x7070707
    1af4:	07070707          	.4byte	0x7070707
    1af8:	07070707          	.4byte	0x7070707
    1afc:	07070707          	.4byte	0x7070707
    1b00:	07070707          	.4byte	0x7070707
    1b04:	07070707          	.4byte	0x7070707
    1b08:	07070707          	.4byte	0x7070707
    1b0c:	07070707          	.4byte	0x7070707
    1b10:	07070707          	.4byte	0x7070707
    1b14:	07070707          	.4byte	0x7070707
    1b18:	07070707          	.4byte	0x7070707
    1b1c:	07070707          	.4byte	0x7070707
    1b20:	0808                	c.addi4spn	a0,sp,16
    1b22:	0808                	c.addi4spn	a0,sp,16
    1b24:	0808                	c.addi4spn	a0,sp,16
    1b26:	0808                	c.addi4spn	a0,sp,16
    1b28:	0808                	c.addi4spn	a0,sp,16
    1b2a:	0808                	c.addi4spn	a0,sp,16
    1b2c:	0808                	c.addi4spn	a0,sp,16
    1b2e:	0808                	c.addi4spn	a0,sp,16
    1b30:	0808                	c.addi4spn	a0,sp,16
    1b32:	0808                	c.addi4spn	a0,sp,16
    1b34:	0808                	c.addi4spn	a0,sp,16
    1b36:	0808                	c.addi4spn	a0,sp,16
    1b38:	0808                	c.addi4spn	a0,sp,16
    1b3a:	0808                	c.addi4spn	a0,sp,16
    1b3c:	0808                	c.addi4spn	a0,sp,16
    1b3e:	0808                	c.addi4spn	a0,sp,16
    1b40:	0808                	c.addi4spn	a0,sp,16
    1b42:	0808                	c.addi4spn	a0,sp,16
    1b44:	0808                	c.addi4spn	a0,sp,16
    1b46:	0808                	c.addi4spn	a0,sp,16
    1b48:	0808                	c.addi4spn	a0,sp,16
    1b4a:	0808                	c.addi4spn	a0,sp,16
    1b4c:	0808                	c.addi4spn	a0,sp,16
    1b4e:	0808                	c.addi4spn	a0,sp,16
    1b50:	0808                	c.addi4spn	a0,sp,16
    1b52:	0808                	c.addi4spn	a0,sp,16
    1b54:	0808                	c.addi4spn	a0,sp,16
    1b56:	0808                	c.addi4spn	a0,sp,16
    1b58:	0808                	c.addi4spn	a0,sp,16
    1b5a:	0808                	c.addi4spn	a0,sp,16
    1b5c:	0808                	c.addi4spn	a0,sp,16
    1b5e:	0808                	c.addi4spn	a0,sp,16
    1b60:	0808                	c.addi4spn	a0,sp,16
    1b62:	0808                	c.addi4spn	a0,sp,16
    1b64:	0808                	c.addi4spn	a0,sp,16
    1b66:	0808                	c.addi4spn	a0,sp,16
    1b68:	0808                	c.addi4spn	a0,sp,16
    1b6a:	0808                	c.addi4spn	a0,sp,16
    1b6c:	0808                	c.addi4spn	a0,sp,16
    1b6e:	0808                	c.addi4spn	a0,sp,16
    1b70:	0808                	c.addi4spn	a0,sp,16
    1b72:	0808                	c.addi4spn	a0,sp,16
    1b74:	0808                	c.addi4spn	a0,sp,16
    1b76:	0808                	c.addi4spn	a0,sp,16
    1b78:	0808                	c.addi4spn	a0,sp,16
    1b7a:	0808                	c.addi4spn	a0,sp,16
    1b7c:	0808                	c.addi4spn	a0,sp,16
    1b7e:	0808                	c.addi4spn	a0,sp,16
    1b80:	0808                	c.addi4spn	a0,sp,16
    1b82:	0808                	c.addi4spn	a0,sp,16
    1b84:	0808                	c.addi4spn	a0,sp,16
    1b86:	0808                	c.addi4spn	a0,sp,16
    1b88:	0808                	c.addi4spn	a0,sp,16
    1b8a:	0808                	c.addi4spn	a0,sp,16
    1b8c:	0808                	c.addi4spn	a0,sp,16
    1b8e:	0808                	c.addi4spn	a0,sp,16
    1b90:	0808                	c.addi4spn	a0,sp,16
    1b92:	0808                	c.addi4spn	a0,sp,16
    1b94:	0808                	c.addi4spn	a0,sp,16
    1b96:	0808                	c.addi4spn	a0,sp,16
    1b98:	0808                	c.addi4spn	a0,sp,16
    1b9a:	0808                	c.addi4spn	a0,sp,16
    1b9c:	0808                	c.addi4spn	a0,sp,16
    1b9e:	0808                	c.addi4spn	a0,sp,16

Disassembly of section .eh_frame:

00001ba0 <.eh_frame>:
    1ba0:	0010                	.2byte	0x10
    1ba2:	0000                	c.unimp
    1ba4:	0000                	c.unimp
    1ba6:	0000                	c.unimp
    1ba8:	00527a03          	.4byte	0x527a03
    1bac:	7c01                	c.lui	s8,0xfffe0
    1bae:	0105                	c.addi	sp,1
    1bb0:	00020d1b          	.4byte	0x20d1b
    1bb4:	0048                	c.addi4spn	a0,sp,4
    1bb6:	0000                	c.unimp
    1bb8:	0018                	.2byte	0x18
    1bba:	0000                	c.unimp
    1bbc:	fc32                	.2byte	0xfc32
    1bbe:	0030ffff          	.4byte	0x30ffff
    1bc2:	0000                	c.unimp
    1bc4:	4200                	c.lw	s0,0(a2)
    1bc6:	400e                	.2byte	0x400e
    1bc8:	9b44                	exec.it	#876     !
    1bca:	420d                	c.li	tp,3
    1bcc:	400e42db          	.4byte	0x400e42db
    1bd0:	9a44                	exec.it	#364     !
    1bd2:	420c                	c.lw	a1,0(a2)
    1bd4:	0b99                	c.addi	s7,6
    1bd6:	9842                	c.add	a6,a6
    1bd8:	420a                	c.lwsp	tp,128(sp)
    1bda:	d7420997          	auipc	s3,0xd7420
    1bde:	d9d8                	c.sw	a4,52(a1)
    1be0:	dbda                	c.swsp	s6,244(sp)
    1be2:	0e42                	c.slli	t3,0x10
    1be4:	4440                	c.lw	s0,12(s0)
    1be6:	0896                	c.slli	a7,0x5
    1be8:	9542                	c.add	a0,a6
    1bea:	06944207          	.4byte	0x6944207
    1bee:	9342                	c.add	t1,a6
    1bf0:	4205                	c.li	tp,1
    1bf2:	0492                	c.slli	s1,0x4
    1bf4:	8942                	c.mv	s2,a6
    1bf6:	02884203          	lbu	tp,40(a6) # 0xfffe9028 <boot_loader+0x7ffe9028>
    1bfa:	8142                	c.mv	sp,a6
    1bfc:	0001                	c.nop
    1bfe:	0000                	c.unimp
    1c00:	001c                	.2byte	0x1c
    1c02:	0000                	c.unimp
    1c04:	0064                	c.addi4spn	s1,sp,12
    1c06:	0000                	c.unimp
    1c08:	fc16                	.2byte	0xfc16
    1c0a:	000cffff          	.4byte	0xcffff
    1c0e:	0000                	c.unimp
    1c10:	4200                	c.lw	s0,0(a2)
    1c12:	100e                	c.slli	zero,0x23
    1c14:	8944                	exec.it	#556     !
    1c16:	4204                	c.lw	s1,0(a2)
    1c18:	0288                	c.addi4spn	a0,sp,320
    1c1a:	8142                	c.mv	sp,a6
    1c1c:	0001                	c.nop
    1c1e:	0000                	c.unimp
    1c20:	002c                	c.addi4spn	a1,sp,8
    1c22:	0000                	c.unimp
    1c24:	0000                	c.unimp
    1c26:	0000                	c.unimp
    1c28:	00527a03          	.4byte	0x527a03
    1c2c:	7c01                	c.lui	s8,0xfffe0
    1c2e:	0101                	c.addi	sp,0
    1c30:	0e020d1b          	.4byte	0xe020d1b
    1c34:	9b40                	exec.it	#868     !
    1c36:	9a0d                	c.andi	a2,-29
    1c38:	990c                	exec.it	#908     !
    1c3a:	970a980b          	addigp	a6,-77456 # 0xfffef608 <boot_loader+0x7ffef608>
    1c3e:	9609                	c.srai	a2,0x22
    1c40:	9508                	exec.it	#898     !
    1c42:	93069407          	.4byte	0x93069407
    1c46:	9205                	c.srli	a2,0x21
    1c48:	8904                	exec.it	#524     !
    1c4a:	81028803          	lb	a6,-2032(t0)
    1c4e:	0001                	c.nop
    1c50:	0044                	c.addi4spn	s1,sp,4
    1c52:	0000                	c.unimp
    1c54:	0034                	c.addi4spn	a3,sp,8
    1c56:	0000                	c.unimp
    1c58:	fbd2                	.2byte	0xfbd2
    1c5a:	0024ffff          	.4byte	0x24ffff
    1c5e:	0000                	c.unimp
    1c60:	4200                	c.lw	s0,0(a2)
    1c62:	0edb42db          	vfpmadb.vf	v5,fs6,v13
    1c66:	4230                	c.lw	a2,64(a2)
    1c68:	42da                	c.lwsp	t0,148(sp)
    1c6a:	42d9                	c.li	t0,22
    1c6c:	42d8                	c.lw	a4,4(a3)
    1c6e:	d8d742d7          	.4byte	0xd8d742d7
    1c72:	dad9                	c.beqz	a3,0x1c08 <__clz_tab+0x168>
    1c74:	42200edb          	.4byte	0x42200edb
    1c78:	42d6                	c.lwsp	t0,84(sp)
    1c7a:	42d5                	c.li	t0,21
    1c7c:	42d4                	c.lw	a3,4(a3)
    1c7e:	d4d342d3          	.4byte	0xd4d342d3
    1c82:	d6d5                	c.beqz	a3,0x1c2e <__clz_tab+0x18e>
    1c84:	d9d8                	c.sw	a4,52(a1)
    1c86:	dbda                	c.swsp	s6,244(sp)
    1c88:	100e                	c.slli	zero,0x23
    1c8a:	d242                	c.swsp	a6,36(sp)
    1c8c:	c942                	c.swsp	a6,144(sp)
    1c8e:	c842                	c.swsp	a6,16(sp)
    1c90:	c142                	c.swsp	a6,128(sp)
    1c92:	0e42                	c.slli	t3,0x10
    1c94:	0000                	c.unimp
	...

Disassembly of section .sdata:

00001c98 <__dso_handle>:
    1c98:	1c98                	c.addi4spn	a4,sp,624
	...

Disassembly of section .comment:

00000000 <.comment>:
   0:	3a434347          	.4byte	0x3a434347
   4:	2820                	.2byte	0x2820
   6:	3032                	.2byte	0x3032
   8:	3332                	.2byte	0x3332
   a:	312d                	c.jal	0xfffffc34 <boot_loader+0x7ffffc34>
   c:	2d31                	c.jal	0x628 <trap_entry+0x104>
   e:	3332                	.2byte	0x3332
  10:	6e5f 7364 3233      	.byte	0x5f, 0x6e, 0x64, 0x73, 0x33, 0x32
  16:	656c                	.2byte	0x656c
  18:	652d                	c.lui	a0,0xb
  1a:	666c                	.2byte	0x666c
  1c:	6d2d                	c.lui	s10,0xb
  1e:	696c7563          	bgeu	s8,s6,0x6a8 <trap_entry+0x184>
  22:	2d62                	.2byte	0x2d62
  24:	3576                	.2byte	0x3576
  26:	392d                	c.jal	0xfffffc60 <boot_loader+0x7ffffc60>
  28:	3931                	c.jal	0xfffffc44 <boot_loader+0x7ffffc44>
  2a:	6632                	.2byte	0x6632
  2c:	3234                	.2byte	0x3234
  2e:	6532                	.2byte	0x6532
  30:	2029                	c.jal	0x3a <trap_handler+0x2>
  32:	3231                	c.jal	0xfffff93e <boot_loader+0x7ffff93e>
  34:	322e                	.2byte	0x322e
  36:	302e                	.2byte	0x302e
	...

Disassembly of section .riscv.attributes:

00000000 <.riscv.attributes>:
   0:	3a41                	c.jal	0xfffff990 <boot_loader+0x7ffff990>
   2:	0000                	c.unimp
   4:	7200                	.2byte	0x7200
   6:	7369                	c.lui	t1,0xffffa
   8:	01007663          	bgeu	zero,a6,0x14 <_start+0x14>
   c:	0030                	c.addi4spn	a2,sp,8
   e:	0000                	c.unimp
  10:	1004                	c.addi4spn	s1,sp,32
  12:	7205                	c.lui	tp,0xfffe1
  14:	3376                	.2byte	0x3376
  16:	6932                	.2byte	0x6932
  18:	7032                	.2byte	0x7032
  1a:	5f30                	c.lw	a2,120(a4)
  1c:	326d                	c.jal	0xfffff9c6 <boot_loader+0x7ffff9c6>
  1e:	3070                	.2byte	0x3070
  20:	615f 7032 5f30      	.byte	0x5f, 0x61, 0x32, 0x70, 0x30, 0x5f
  26:	30703263          	.4byte	0x30703263
  2a:	785f 6e61 6564      	.byte	0x5f, 0x78, 0x61, 0x6e, 0x64, 0x65
  30:	30703573          	csrrc	a0,mtvt,zero
  34:	0600                	c.addi4spn	s0,sp,768
  36:	0801                	c.addi	a6,0
  38:	0a01                	c.addi	s4,0
  3a:	0b                	.byte	0x0b

Disassembly of section .debug_aranges:

00000000 <.debug_aranges>:
   0:	001c                	.2byte	0x1c
   2:	0000                	c.unimp
   4:	0002                	c.slli64	zero
   6:	0000                	c.unimp
   8:	0000                	c.unimp
   a:	0004                	.2byte	0x4
   c:	0000                	c.unimp
   e:	0000                	c.unimp
  10:	0040                	c.addi4spn	s0,sp,4
  12:	0000                	c.unimp
  14:	0348                	c.addi4spn	a0,sp,388
	...
  1e:	0000                	c.unimp
  20:	001c                	.2byte	0x1c
  22:	0000                	c.unimp
  24:	0002                	c.slli64	zero
  26:	03fd                	c.addi	t2,31
  28:	0000                	c.unimp
  2a:	0004                	.2byte	0x4
  2c:	0000                	c.unimp
  2e:	0000                	c.unimp
  30:	0388                	c.addi4spn	a0,sp,448
  32:	0000                	c.unimp
  34:	0044                	c.addi4spn	s1,sp,4
	...
  3e:	0000                	c.unimp
  40:	001c                	.2byte	0x1c
  42:	0000                	c.unimp
  44:	0002                	c.slli64	zero
  46:	04d6                	c.slli	s1,0x15
  48:	0000                	c.unimp
  4a:	0004                	.2byte	0x4
  4c:	0000                	c.unimp
  4e:	0000                	c.unimp
  50:	03cc                	c.addi4spn	a1,sp,452
  52:	0000                	c.unimp
  54:	0358                	c.addi4spn	a4,sp,388
	...
  5e:	0000                	c.unimp
  60:	001c                	.2byte	0x1c
  62:	0000                	c.unimp
  64:	0002                	c.slli64	zero
  66:	141f 0000 0004      	.byte	0x1f, 0x14, 0x00, 0x00, 0x04, 0x00
	...
  74:	003c                	c.addi4spn	a5,sp,8
	...
  7e:	0000                	c.unimp
  80:	001c                	.2byte	0x1c
  82:	0000                	c.unimp
  84:	0002                	c.slli64	zero
  86:	1442                	c.slli	s0,0x30
  88:	0000                	c.unimp
  8a:	0004                	.2byte	0x4
  8c:	0000                	c.unimp
  8e:	0000                	c.unimp
  90:	0724                	c.addi4spn	s1,sp,904
  92:	0000                	c.unimp
  94:	01a8                	c.addi4spn	a0,sp,200
	...
  9e:	0000                	c.unimp
  a0:	001c                	.2byte	0x1c
  a2:	0000                	c.unimp
  a4:	0002                	c.slli64	zero
  a6:	2414                	.2byte	0x2414
  a8:	0000                	c.unimp
  aa:	0004                	.2byte	0x4
  ac:	0000                	c.unimp
  ae:	0000                	c.unimp
  b0:	08cc                	c.addi4spn	a1,sp,84
  b2:	0000                	c.unimp
  b4:	014c                	c.addi4spn	a1,sp,132
	...
  be:	0000                	c.unimp
  c0:	001c                	.2byte	0x1c
  c2:	0000                	c.unimp
  c4:	0002                	c.slli64	zero
  c6:	325d                	c.jal	0xfffffa6c <boot_loader+0x7ffffa6c>
  c8:	0000                	c.unimp
  ca:	0004                	.2byte	0x4
  cc:	0000                	c.unimp
  ce:	0000                	c.unimp
  d0:	0a18                	c.addi4spn	a4,sp,272
  d2:	0000                	c.unimp
  d4:	025c                	c.addi4spn	a5,sp,260
	...
  de:	0000                	c.unimp
  e0:	001c                	.2byte	0x1c
  e2:	0000                	c.unimp
  e4:	0002                	c.slli64	zero
  e6:	3568                	.2byte	0x3568
  e8:	0000                	c.unimp
  ea:	0004                	.2byte	0x4
  ec:	0000                	c.unimp
  ee:	0000                	c.unimp
  f0:	0c74                	c.addi4spn	a3,sp,540
  f2:	0000                	c.unimp
  f4:	01d4                	c.addi4spn	a3,sp,196
	...
  fe:	0000                	c.unimp
 100:	0024                	c.addi4spn	s1,sp,8
 102:	0000                	c.unimp
 104:	0002                	c.slli64	zero
 106:	0000432b          	swgp	zero,131076 # 0x2249c <__global_pointer$+0x20004>
 10a:	0004                	.2byte	0x4
 10c:	0000                	c.unimp
 10e:	0000                	c.unimp
 110:	0000                	c.unimp
 112:	8000                	exec.it	#0     !
 114:	0078                	c.addi4spn	a4,sp,12
 116:	0000                	c.unimp
 118:	0000                	c.unimp
 11a:	0ff0                	c.addi4spn	a2,sp,988
 11c:	0074                	c.addi4spn	a3,sp,12
	...

Disassembly of section .debug_info:

00000000 <.debug_info>:
       0:	03f9                	c.addi	t2,30
       2:	0000                	c.unimp
       4:	0004                	.2byte	0x4
       6:	0000                	c.unimp
       8:	0000                	c.unimp
       a:	0104                	c.addi4spn	s1,sp,128
       c:	000001bb          	.4byte	0x1bb
      10:	f00c                	.2byte	0xf00c
      12:	0000                	c.unimp
      14:	5000                	c.lw	s0,32(s0)
      16:	0001                	c.nop
      18:	4000                	c.lw	s0,0(s0)
      1a:	0000                	c.unimp
      1c:	4800                	c.lw	s0,16(s0)
      1e:	00000003          	lb	zero,0(zero) # 0x0 <_start>
      22:	0000                	c.unimp
      24:	0200                	c.addi4spn	s0,sp,256
      26:	0601                	c.addi	a2,0
      28:	009d                	c.addi	ra,7 # 0x17c1 <__libc_init_array+0x27>
      2a:	0000                	c.unimp
      2c:	0102                	c.slli64	sp
      2e:	9b08                	exec.it	#964     !
      30:	0000                	c.unimp
      32:	0200                	c.addi4spn	s0,sp,256
      34:	0502                	c.slli64	a0
      36:	00000133          	add	sp,zero,zero
      3a:	0202                	c.slli64	tp
      3c:	00007607          	.4byte	0x7607
      40:	0200                	c.addi4spn	s0,sp,256
      42:	0504                	c.addi4spn	s1,sp,640
      44:	0052                	c.slli	zero,0x14
      46:	0000                	c.unimp
      48:	0402                	c.slli64	s0
      4a:	0000de07          	.4byte	0xde07
      4e:	0200                	c.addi4spn	s0,sp,256
      50:	0508                	c.addi4spn	a0,sp,640
      52:	004d                	c.nop	19
      54:	0000                	c.unimp
      56:	0802                	c.slli64	a6
      58:	0000d907          	.4byte	0xd907
      5c:	0300                	c.addi4spn	s0,sp,384
      5e:	0504                	c.addi4spn	s1,sp,640
      60:	6e69                	c.lui	t3,0x1a
      62:	0074                	c.addi4spn	a3,sp,12
      64:	0402                	c.slli64	s0
      66:	0000e307          	.4byte	0xe307
      6a:	0200                	c.addi4spn	s0,sp,256
      6c:	0410                	c.addi4spn	a2,sp,512
      6e:	000001af          	.4byte	0x1af
      72:	0404                	c.addi4spn	s1,sp,512
      74:	0084                	c.addi4spn	s1,sp,64
      76:	0000                	c.unimp
      78:	7205                	c.lui	tp,0xfffe1
      7a:	0000                	c.unimp
      7c:	0200                	c.addi4spn	s0,sp,256
      7e:	0801                	c.addi	a6,0
      80:	00a4                	c.addi4spn	s1,sp,72
      82:	0000                	c.unimp
      84:	7d06                	.2byte	0x7d06
      86:	0000                	c.unimp
      88:	0700                	c.addi4spn	s0,sp,896
      8a:	0032                	c.slli	zero,0xc
      8c:	0000                	c.unimp
      8e:	00640407          	.4byte	0x640407
      92:	0000                	c.unimp
      94:	3602                	.2byte	0x3602
      96:	0602                	c.slli64	a2
      98:	00b5                	c.addi	ra,13
      9a:	0000                	c.unimp
      9c:	1908                	c.addi4spn	a0,sp,176
      9e:	0001                	c.nop
      a0:	0000                	c.unimp
      a2:	5b08                	c.lw	a0,48(a4)
      a4:	0000                	c.unimp
      a6:	0100                	c.addi4spn	s0,sp,128
      a8:	1908                	c.addi4spn	a0,sp,176
      aa:	0000                	c.unimp
      ac:	0200                	c.addi4spn	s0,sp,256
      ae:	2808                	.2byte	0x2808
      b0:	0001                	c.nop
      b2:	0300                	c.addi4spn	s0,sp,384
      b4:	0900                	c.addi4spn	s0,sp,144
      b6:	0121                	c.addi	sp,8
      b8:	0000                	c.unimp
      ba:	5d05ba03          	.4byte	0x5d05ba03
      be:	0000                	c.unimp
      c0:	cc00                	c.sw	s0,24(s0)
      c2:	0000                	c.unimp
      c4:	0a00                	c.addi4spn	s0,sp,272
      c6:	0078                	c.addi4spn	a4,sp,12
      c8:	0000                	c.unimp
      ca:	3e0c000b          	lbgp	zero,25568 # 0x8878 <__global_pointer$+0x63e0>
      ce:	0000                	c.unimp
      d0:	0400                	c.addi4spn	s0,sp,512
      d2:	0d15                	c.addi	s10,5 # 0xb005 <__global_pointer$+0x8b6d>
      d4:	00de                	c.slli	ra,0x17
      d6:	0000                	c.unimp
      d8:	640a                	.2byte	0x640a
      da:	0000                	c.unimp
      dc:	0000                	c.unimp
      de:	630d                	c.lui	t1,0x3
      e0:	0000                	c.unimp
      e2:	0100                	c.addi4spn	s0,sp,128
      e4:	069f 0348 0000      	.byte	0x9f, 0x06, 0x48, 0x03, 0x00, 0x00
      ea:	0040                	c.addi4spn	s0,sp,4
      ec:	0000                	c.unimp
      ee:	9c01                	.2byte	0x9c01
      f0:	0122                	c.slli	sp,0x8
      f2:	0000                	c.unimp
      f4:	5a0e                	c.lwsp	s4,224(sp)
      f6:	001e                	c.slli	zero,0x7
      f8:	0100                	c.addi4spn	s0,sp,128
      fa:	0fa2                	c.slli	t6,0x8
      fc:	0064                	c.addi4spn	s1,sp,12
      fe:	0000                	c.unimp
     100:	9102                	c.jalr	sp
     102:	0e64                	c.addi4spn	s1,sp,796
     104:	0048                	c.addi4spn	a0,sp,4
     106:	0000                	c.unimp
     108:	a201                	c.j	0x208 <amoxorw_func+0x38>
     10a:	6415                	c.lui	s0,0x5
     10c:	0000                	c.unimp
     10e:	0200                	c.addi4spn	s0,sp,256
     110:	6c91                	c.lui	s9,0x4
     112:	2d0e                	.2byte	0x2d0e
     114:	0000                	c.unimp
     116:	0100                	c.addi4spn	s0,sp,128
     118:	1ba2                	c.slli	s7,0x28
     11a:	0064                	c.addi4spn	s1,sp,12
     11c:	0000                	c.unimp
     11e:	9102                	c.jalr	sp
     120:	0068                	c.addi4spn	a0,sp,12
     122:	fe0d                	c.bnez	a2,0x5c <__nds__rotr+0x1c>
     124:	0000                	c.unimp
     126:	0100                	c.addi4spn	s0,sp,128
     128:	0692                	c.slli	a3,0x4
     12a:	0308                	c.addi4spn	a0,sp,384
     12c:	0000                	c.unimp
     12e:	0040                	c.addi4spn	s0,sp,4
     130:	0000                	c.unimp
     132:	9c01                	.2byte	0x9c01
     134:	0166                	c.slli	sp,0x19
     136:	0000                	c.unimp
     138:	5a0e                	c.lwsp	s4,224(sp)
     13a:	001e                	c.slli	zero,0x7
     13c:	0100                	c.addi4spn	s0,sp,128
     13e:	0f95                	c.addi	t6,5
     140:	0064                	c.addi4spn	s1,sp,12
     142:	0000                	c.unimp
     144:	9102                	c.jalr	sp
     146:	0e64                	c.addi4spn	s1,sp,796
     148:	0048                	c.addi4spn	a0,sp,4
     14a:	0000                	c.unimp
     14c:	9501                	c.srai	a0,0x20
     14e:	6415                	c.lui	s0,0x5
     150:	0000                	c.unimp
     152:	0200                	c.addi4spn	s0,sp,256
     154:	6c91                	c.lui	s9,0x4
     156:	2d0e                	.2byte	0x2d0e
     158:	0000                	c.unimp
     15a:	0100                	c.addi4spn	s0,sp,128
     15c:	1b95                	c.addi	s7,-27
     15e:	0064                	c.addi4spn	s1,sp,12
     160:	0000                	c.unimp
     162:	9102                	c.jalr	sp
     164:	0068                	c.addi4spn	a0,sp,12
     166:	8e0d                	c.sub	a2,a1
     168:	0000                	c.unimp
     16a:	0100                	c.addi4spn	s0,sp,128
     16c:	0685                	c.addi	a3,1
     16e:	02cc                	c.addi4spn	a1,sp,324
     170:	0000                	c.unimp
     172:	003c                	c.addi4spn	a5,sp,8
     174:	0000                	c.unimp
     176:	9c01                	.2byte	0x9c01
     178:	01aa                	c.slli	gp,0xa
     17a:	0000                	c.unimp
     17c:	5a0e                	c.lwsp	s4,224(sp)
     17e:	001e                	c.slli	zero,0x7
     180:	0100                	c.addi4spn	s0,sp,128
     182:	0d88                	c.addi4spn	a0,sp,720
     184:	005d                	c.nop	23
     186:	0000                	c.unimp
     188:	9102                	c.jalr	sp
     18a:	0e64                	c.addi4spn	s1,sp,796
     18c:	0048                	c.addi4spn	a0,sp,4
     18e:	0000                	c.unimp
     190:	8801                	c.andi	s0,0
     192:	00005d13          	srli	s10,zero,0x0
     196:	0200                	c.addi4spn	s0,sp,256
     198:	6c91                	c.lui	s9,0x4
     19a:	2d0e                	.2byte	0x2d0e
     19c:	0000                	c.unimp
     19e:	0100                	c.addi4spn	s0,sp,128
     1a0:	1988                	c.addi4spn	a0,sp,240
     1a2:	005d                	c.nop	23
     1a4:	0000                	c.unimp
     1a6:	9102                	c.jalr	sp
     1a8:	0068                	c.addi4spn	a0,sp,12
     1aa:	0c0d                	c.addi	s8,3 # 0xfffe0003 <boot_loader+0x7ffe0003>
     1ac:	0000                	c.unimp
     1ae:	0100                	c.addi4spn	s0,sp,128
     1b0:	0678                	c.addi4spn	a4,sp,780
     1b2:	0290                	c.addi4spn	a2,sp,320
     1b4:	0000                	c.unimp
     1b6:	003c                	c.addi4spn	a5,sp,8
     1b8:	0000                	c.unimp
     1ba:	9c01                	.2byte	0x9c01
     1bc:	01ee                	c.slli	gp,0x1b
     1be:	0000                	c.unimp
     1c0:	5a0e                	c.lwsp	s4,224(sp)
     1c2:	001e                	c.slli	zero,0x7
     1c4:	0100                	c.addi4spn	s0,sp,128
     1c6:	005d0d7b          	.4byte	0x5d0d7b
     1ca:	0000                	c.unimp
     1cc:	9102                	c.jalr	sp
     1ce:	0e64                	c.addi4spn	s1,sp,796
     1d0:	0048                	c.addi4spn	a0,sp,4
     1d2:	0000                	c.unimp
     1d4:	7b01                	c.lui	s6,0xfffe0
     1d6:	00005d13          	srli	s10,zero,0x0
     1da:	0200                	c.addi4spn	s0,sp,256
     1dc:	6c91                	c.lui	s9,0x4
     1de:	2d0e                	.2byte	0x2d0e
     1e0:	0000                	c.unimp
     1e2:	0100                	c.addi4spn	s0,sp,128
     1e4:	005d197b          	.4byte	0x5d197b
     1e8:	0000                	c.unimp
     1ea:	9102                	c.jalr	sp
     1ec:	0068                	c.addi4spn	a0,sp,12
     1ee:	210d                	c.jal	0x610 <trap_entry+0xec>
     1f0:	0000                	c.unimp
     1f2:	0100                	c.addi4spn	s0,sp,128
     1f4:	0250066b          	.4byte	0x250066b
     1f8:	0000                	c.unimp
     1fa:	0040                	c.addi4spn	s0,sp,4
     1fc:	0000                	c.unimp
     1fe:	9c01                	.2byte	0x9c01
     200:	0232                	c.slli	tp,0xc
     202:	0000                	c.unimp
     204:	5a0e                	c.lwsp	s4,224(sp)
     206:	001e                	c.slli	zero,0x7
     208:	0100                	c.addi4spn	s0,sp,128
     20a:	0f6e                	c.slli	t5,0x1b
     20c:	0064                	c.addi4spn	s1,sp,12
     20e:	0000                	c.unimp
     210:	9102                	c.jalr	sp
     212:	0f64                	c.addi4spn	s1,sp,924
     214:	0076726f          	jal	tp,0x67a1a <__global_pointer$+0x65582>
     218:	6e01                	.2byte	0x6e01
     21a:	6415                	c.lui	s0,0x5
     21c:	0000                	c.unimp
     21e:	0200                	c.addi4spn	s0,sp,256
     220:	6c91                	c.lui	s9,0x4
     222:	2d0e                	.2byte	0x2d0e
     224:	0000                	c.unimp
     226:	0100                	c.addi4spn	s0,sp,128
     228:	1a6e                	c.slli	s4,0x3b
     22a:	0064                	c.addi4spn	s1,sp,12
     22c:	0000                	c.unimp
     22e:	9102                	c.jalr	sp
     230:	0068                	c.addi4spn	a0,sp,12
     232:	0c0d                	c.addi	s8,3
     234:	0001                	c.nop
     236:	0100                	c.addi4spn	s0,sp,128
     238:	065e                	c.slli	a2,0x17
     23a:	0210                	c.addi4spn	a2,sp,256
     23c:	0000                	c.unimp
     23e:	0040                	c.addi4spn	s0,sp,4
     240:	0000                	c.unimp
     242:	9c01                	.2byte	0x9c01
     244:	0276                	c.slli	tp,0x1d
     246:	0000                	c.unimp
     248:	5a0e                	c.lwsp	s4,224(sp)
     24a:	001e                	c.slli	zero,0x7
     24c:	0100                	c.addi4spn	s0,sp,128
     24e:	0f61                	c.addi	t5,24
     250:	0064                	c.addi4spn	s1,sp,12
     252:	0000                	c.unimp
     254:	9102                	c.jalr	sp
     256:	0e64                	c.addi4spn	s1,sp,796
     258:	0000014b          	.4byte	0x14b
     25c:	6101                	c.addi16sp	sp,0
     25e:	6415                	c.lui	s0,0x5
     260:	0000                	c.unimp
     262:	0200                	c.addi4spn	s0,sp,256
     264:	6c91                	c.lui	s9,0x4
     266:	2d0e                	.2byte	0x2d0e
     268:	0000                	c.unimp
     26a:	0100                	c.addi4spn	s0,sp,128
     26c:	1b61                	c.addi	s6,-8 # 0xfffdfff8 <boot_loader+0x7ffdfff8>
     26e:	0064                	c.addi4spn	s1,sp,12
     270:	0000                	c.unimp
     272:	9102                	c.jalr	sp
     274:	0068                	c.addi4spn	a0,sp,12
     276:	cc0d                	c.beqz	s0,0x2b0 <amominw_func+0x20>
     278:	0000                	c.unimp
     27a:	0100                	c.addi4spn	s0,sp,128
     27c:	0651                	c.addi	a2,20
     27e:	01d0                	c.addi4spn	a2,sp,196
     280:	0000                	c.unimp
     282:	0040                	c.addi4spn	s0,sp,4
     284:	0000                	c.unimp
     286:	9c01                	.2byte	0x9c01
     288:	02ba                	c.slli	t0,0xe
     28a:	0000                	c.unimp
     28c:	5a0e                	c.lwsp	s4,224(sp)
     28e:	001e                	c.slli	zero,0x7
     290:	0100                	c.addi4spn	s0,sp,128
     292:	0f54                	c.addi4spn	a3,sp,916
     294:	0064                	c.addi4spn	s1,sp,12
     296:	0000                	c.unimp
     298:	9102                	c.jalr	sp
     29a:	0e64                	c.addi4spn	s1,sp,796
     29c:	0071                	c.nop	28
     29e:	0000                	c.unimp
     2a0:	5401                	c.li	s0,-32
     2a2:	6415                	c.lui	s0,0x5
     2a4:	0000                	c.unimp
     2a6:	0200                	c.addi4spn	s0,sp,256
     2a8:	6c91                	c.lui	s9,0x4
     2aa:	2d0e                	.2byte	0x2d0e
     2ac:	0000                	c.unimp
     2ae:	0100                	c.addi4spn	s0,sp,128
     2b0:	1b54                	c.addi4spn	a3,sp,436
     2b2:	0064                	c.addi4spn	s1,sp,12
     2b4:	0000                	c.unimp
     2b6:	9102                	c.jalr	sp
     2b8:	0068                	c.addi4spn	a0,sp,12
     2ba:	ae0d                	c.j	0x5ec <trap_entry+0xc8>
     2bc:	0000                	c.unimp
     2be:	0100                	c.addi4spn	s0,sp,128
     2c0:	0644                	c.addi4spn	s1,sp,772
     2c2:	0194                	c.addi4spn	a3,sp,192
     2c4:	0000                	c.unimp
     2c6:	003c                	c.addi4spn	a5,sp,8
     2c8:	0000                	c.unimp
     2ca:	9c01                	.2byte	0x9c01
     2cc:	02fe                	c.slli	t0,0x1f
     2ce:	0000                	c.unimp
     2d0:	5a0e                	c.lwsp	s4,224(sp)
     2d2:	001e                	c.slli	zero,0x7
     2d4:	0100                	c.addi4spn	s0,sp,128
     2d6:	005d0d47          	.4byte	0x5d0d47
     2da:	0000                	c.unimp
     2dc:	9102                	c.jalr	sp
     2de:	0e64                	c.addi4spn	s1,sp,796
     2e0:	0089                	c.addi	ra,2
     2e2:	0000                	c.unimp
     2e4:	4701                	c.li	a4,0
     2e6:	00005d13          	srli	s10,zero,0x0
     2ea:	0200                	c.addi4spn	s0,sp,256
     2ec:	6c91                	c.lui	s9,0x4
     2ee:	2d0e                	.2byte	0x2d0e
     2f0:	0000                	c.unimp
     2f2:	0100                	c.addi4spn	s0,sp,128
     2f4:	005d1947          	.4byte	0x5d1947
     2f8:	0000                	c.unimp
     2fa:	9102                	c.jalr	sp
     2fc:	0068                	c.addi4spn	a0,sp,12
     2fe:	3d0d                	c.jal	0x130 <NDS_SAG_LMA_MEM+0x30>
     300:	0001                	c.nop
     302:	0100                	c.addi4spn	s0,sp,128
     304:	0635                	c.addi	a2,13
     306:	0154                	c.addi4spn	a3,sp,132
     308:	0000                	c.unimp
     30a:	0040                	c.addi4spn	s0,sp,4
     30c:	0000                	c.unimp
     30e:	9c01                	.2byte	0x9c01
     310:	0342                	c.slli	t1,0x10
     312:	0000                	c.unimp
     314:	5a0e                	c.lwsp	s4,224(sp)
     316:	001e                	c.slli	zero,0x7
     318:	0100                	c.addi4spn	s0,sp,128
     31a:	0d38                	c.addi4spn	a4,sp,664
     31c:	005d                	c.nop	23
     31e:	0000                	c.unimp
     320:	9102                	c.jalr	sp
     322:	0e64                	c.addi4spn	s1,sp,796
     324:	000000c7          	.4byte	0xc7
     328:	3801                	c.jal	0xfffffb38 <boot_loader+0x7ffffb38>
     32a:	00005d13          	srli	s10,zero,0x0
     32e:	0200                	c.addi4spn	s0,sp,256
     330:	6c91                	c.lui	s9,0x4
     332:	2d0e                	.2byte	0x2d0e
     334:	0000                	c.unimp
     336:	0100                	c.addi4spn	s0,sp,128
     338:	1938                	c.addi4spn	a4,sp,184
     33a:	005d                	c.nop	23
     33c:	0000                	c.unimp
     33e:	9102                	c.jalr	sp
     340:	0068                	c.addi4spn	a0,sp,12
     342:	a910                	.2byte	0xa910
     344:	0000                	c.unimp
     346:	0100                	c.addi4spn	s0,sp,128
     348:	0520                	c.addi4spn	s0,sp,648
     34a:	005d                	c.nop	23
     34c:	0000                	c.unimp
     34e:	00f8                	c.addi4spn	a4,sp,76
     350:	0000                	c.unimp
     352:	005c                	c.addi4spn	a5,sp,4
     354:	0000                	c.unimp
     356:	9c01                	.2byte	0x9c01
     358:	bb11                	c.j	0x6c <__nds__rotr+0x2c>
     35a:	0000                	c.unimp
     35c:	0200                	c.addi4spn	s0,sp,256
     35e:	150d                	c.addi	a0,-29 # 0xafe3 <__global_pointer$+0x8b4b>
     360:	0064                	c.addi4spn	s1,sp,12
     362:	0000                	c.unimp
     364:	0084                	c.addi4spn	s1,sp,64
     366:	0000                	c.unimp
     368:	0074                	c.addi4spn	a3,sp,12
     36a:	0000                	c.unimp
     36c:	9c01                	.2byte	0x9c01
     36e:	03b8                	c.addi4spn	a4,sp,456
     370:	0000                	c.unimp
     372:	6112                	.2byte	0x6112
     374:	0200                	c.addi4spn	s0,sp,256
     376:	2e0d                	c.jal	0x6a8 <trap_entry+0x184>
     378:	0064                	c.addi4spn	s1,sp,12
     37a:	0000                	c.unimp
     37c:	9102                	c.jalr	sp
     37e:	0f6c                	c.addi4spn	a1,sp,924
     380:	3062                	.2byte	0x3062
     382:	0200                	c.addi4spn	s0,sp,256
     384:	0064100f          	.4byte	0x64100f
     388:	0000                	c.unimp
     38a:	9102                	c.jalr	sp
     38c:	0f7c                	c.addi4spn	a5,sp,924
     38e:	3162                	.2byte	0x3162
     390:	0200                	c.addi4spn	s0,sp,256
     392:	1010                	c.addi4spn	a2,sp,32
     394:	0064                	c.addi4spn	s1,sp,12
     396:	0000                	c.unimp
     398:	9102                	c.jalr	sp
     39a:	0f78                	c.addi4spn	a4,sp,924
     39c:	3262                	.2byte	0x3262
     39e:	0200                	c.addi4spn	s0,sp,256
     3a0:	1011                	c.nop	-28
     3a2:	0064                	c.addi4spn	s1,sp,12
     3a4:	0000                	c.unimp
     3a6:	9102                	c.jalr	sp
     3a8:	0f74                	c.addi4spn	a3,sp,924
     3aa:	3362                	.2byte	0x3362
     3ac:	0200                	c.addi4spn	s0,sp,256
     3ae:	1012                	c.slli	zero,0x24
     3b0:	0064                	c.addi4spn	s1,sp,12
     3b2:	0000                	c.unimp
     3b4:	9102                	c.jalr	sp
     3b6:	0070                	c.addi4spn	a2,sp,12
     3b8:	00000013          	nop
     3bc:	0200                	c.addi4spn	s0,sp,256
     3be:	00641507          	.4byte	0x641507
     3c2:	0000                	c.unimp
     3c4:	0040                	c.addi4spn	s0,sp,4
     3c6:	0000                	c.unimp
     3c8:	0044                	c.addi4spn	s1,sp,4
     3ca:	0000                	c.unimp
     3cc:	9c01                	.2byte	0x9c01
     3ce:	7612                	.2byte	0x7612
     3d0:	6c61                	c.lui	s8,0x18
     3d2:	0200                	c.addi4spn	s0,sp,256
     3d4:	00642e07          	.4byte	0x642e07
     3d8:	0000                	c.unimp
     3da:	9102                	c.jalr	sp
     3dc:	126c                	c.addi4spn	a1,sp,300
     3de:	6f72                	.2byte	0x6f72
     3e0:	0072                	c.slli	zero,0x1c
     3e2:	0702                	c.slli64	a4
     3e4:	6440                	.2byte	0x6440
     3e6:	0000                	c.unimp
     3e8:	0200                	c.addi4spn	s0,sp,256
     3ea:	6891                	c.lui	a7,0x4
     3ec:	070e                	c.slli	a4,0x3
     3ee:	0000                	c.unimp
     3f0:	0200                	c.addi4spn	s0,sp,256
     3f2:	1009                	c.nop	-30
     3f4:	0064                	c.addi4spn	s1,sp,12
     3f6:	0000                	c.unimp
     3f8:	9102                	c.jalr	sp
     3fa:	007c                	c.addi4spn	a5,sp,12
     3fc:	d500                	c.sw	s0,40(a0)
     3fe:	0000                	c.unimp
     400:	0400                	c.addi4spn	s0,sp,512
     402:	3800                	.2byte	0x3800
     404:	0001                	c.nop
     406:	0400                	c.addi4spn	s0,sp,512
     408:	bb01                	c.j	0x118 <NDS_SAG_LMA_MEM+0x18>
     40a:	0001                	c.nop
     40c:	0c00                	c.addi4spn	s0,sp,528
     40e:	0294                	c.addi4spn	a3,sp,320
     410:	0000                	c.unimp
     412:	0150                	c.addi4spn	a2,sp,132
     414:	0000                	c.unimp
     416:	0388                	c.addi4spn	a0,sp,448
     418:	0000                	c.unimp
     41a:	0044                	c.addi4spn	s1,sp,4
     41c:	0000                	c.unimp
     41e:	0326                	c.slli	t1,0x9
     420:	0000                	c.unimp
     422:	ab02                	.2byte	0xab02
     424:	0002                	c.slli64	zero
     426:	0100                	c.addi4spn	s0,sp,128
     428:	1d40                	c.addi4spn	s0,sp,692
     42a:	00000037          	lui	zero,0x0
     42e:	0305                	c.addi	t1,1 # 0x3001 <__global_pointer$+0xb69>
     430:	1c98                	c.addi4spn	a4,sp,624
     432:	0000                	c.unimp
     434:	a9040403          	lb	s0,-1392(s0) # 0x4a90 <__global_pointer$+0x25f8>
     438:	0000                	c.unimp
     43a:	0100                	c.addi4spn	s0,sp,128
     43c:	0d1d                	c.addi	s10,7
     43e:	0045                	c.nop	17
     440:	0000                	c.unimp
     442:	0405                	c.addi	s0,1
     444:	6905                	c.lui	s2,0x1
     446:	746e                	.2byte	0x746e
     448:	0600                	c.addi4spn	s0,sp,768
     44a:	02e5                	c.addi	t0,25
     44c:	0000                	c.unimp
     44e:	1501                	c.addi	a0,-32
     450:	060d                	c.addi	a2,3
     452:	02cc                	c.addi4spn	a1,sp,324
     454:	0000                	c.unimp
     456:	1401                	c.addi	s0,-32
     458:	060d                	c.addi	a2,3
     45a:	02c2                	c.slli	t0,0x10
     45c:	0000                	c.unimp
     45e:	1301                	c.addi	t1,-32
     460:	070d                	c.addi	a4,3 # 0x7f800003 <loader+0x6f900003>
     462:	02d8                	c.addi4spn	a4,sp,324
     464:	0000                	c.unimp
     466:	3c01                	c.jal	0xfffffe76 <boot_loader+0x7ffffe76>
     468:	b006                	.2byte	0xb006
     46a:	1c000003          	lb	zero,448(zero) # 0x1c0 <amoaddw_func+0x2c>
     46e:	0000                	c.unimp
     470:	0100                	c.addi4spn	s0,sp,128
     472:	a89c                	.2byte	0xa89c
     474:	0000                	c.unimp
     476:	0800                	c.addi4spn	s0,sp,16
     478:	02b8                	c.addi4spn	a4,sp,328
     47a:	0000                	c.unimp
     47c:	3c01                	c.jal	0xfffffe8c <boot_loader+0x7ffffe8c>
     47e:	b31a                	.2byte	0xb31a
     480:	0000                	c.unimp
     482:	0200                	c.addi4spn	s0,sp,256
     484:	7c91                	c.lui	s9,0xfffe4
     486:	bd08                	.2byte	0xbd08
     488:	0002                	c.slli64	zero
     48a:	0100                	c.addi4spn	s0,sp,128
     48c:	2e3c                	.2byte	0x2e3c
     48e:	00000037          	lui	zero,0x0
     492:	9102                	c.jalr	sp
     494:	0878                	c.addi4spn	a4,sp,28
     496:	02a6                	c.slli	t0,0x9
     498:	0000                	c.unimp
     49a:	3c01                	c.jal	0xfffffeaa <boot_loader+0x7ffffeaa>
     49c:	373a                	.2byte	0x373a
     49e:	0000                	c.unimp
     4a0:	0200                	c.addi4spn	s0,sp,256
     4a2:	7491                	c.lui	s1,0xfffe4
     4a4:	0900                	c.addi4spn	s0,sp,144
     4a6:	000000b3          	add	ra,zero,zero
     4aa:	370a                	.2byte	0x370a
     4ac:	0000                	c.unimp
     4ae:	0000                	c.unimp
     4b0:	00a8040b          	lbgp	s0,16394 # 0x64a2 <__global_pointer$+0x400a>
     4b4:	0000                	c.unimp
     4b6:	860c                	exec.it	#202     !
     4b8:	0002                	c.slli64	zero
     4ba:	0100                	c.addi4spn	s0,sp,128
     4bc:	03881c1b          	.4byte	0x3881c1b
     4c0:	0000                	c.unimp
     4c2:	0028                	c.addi4spn	a0,sp,8
     4c4:	0000                	c.unimp
     4c6:	9c01                	.2byte	0x9c01
     4c8:	a904                	.2byte	0xa904
     4ca:	0000                	c.unimp
     4cc:	0100                	c.addi4spn	s0,sp,128
     4ce:	0d1d                	c.addi	s10,7
     4d0:	0045                	c.nop	17
     4d2:	0000                	c.unimp
     4d4:	0000                	c.unimp
     4d6:	0f45                	c.addi	t5,17
     4d8:	0000                	c.unimp
     4da:	0004                	.2byte	0x4
     4dc:	01f9                	c.addi	gp,30 # 0x24b6 <__global_pointer$+0x1e>
     4de:	0000                	c.unimp
     4e0:	0104                	c.addi4spn	s1,sp,128
     4e2:	000001bb          	.4byte	0x1bb
     4e6:	2d0c                	.2byte	0x2d0c
     4e8:	0019                	c.nop	6
     4ea:	5000                	c.lw	s0,32(s0)
     4ec:	0001                	c.nop
     4ee:	cc00                	c.sw	s0,24(s0)
     4f0:	58000003          	lb	zero,1408(zero) # 0x580 <trap_entry+0x5c>
     4f4:	99000003          	lb	zero,-1648(zero) # 0xfffff990 <boot_loader+0x7ffff990>
     4f8:	02000003          	lb	zero,32(zero) # 0x20 <_start+0x20>
     4fc:	0601                	c.addi	a2,0
     4fe:	009d                	c.addi	ra,7
     500:	0000                	c.unimp
     502:	0102                	c.slli64	sp
     504:	9b08                	exec.it	#964     !
     506:	0000                	c.unimp
     508:	0200                	c.addi4spn	s0,sp,256
     50a:	0502                	c.slli64	a0
     50c:	00000133          	add	sp,zero,zero
     510:	0202                	c.slli64	tp
     512:	00007607          	.4byte	0x7607
     516:	0200                	c.addi4spn	s0,sp,256
     518:	0504                	c.addi4spn	s1,sp,640
     51a:	0052                	c.slli	zero,0x14
     51c:	0000                	c.unimp
     51e:	0402                	c.slli64	s0
     520:	0000de07          	.4byte	0xde07
     524:	0200                	c.addi4spn	s0,sp,256
     526:	0508                	c.addi4spn	a0,sp,640
     528:	004d                	c.nop	19
     52a:	0000                	c.unimp
     52c:	0802                	c.slli64	a6
     52e:	0000d907          	.4byte	0xd907
     532:	0300                	c.addi4spn	s0,sp,384
     534:	0504                	c.addi4spn	s1,sp,640
     536:	6e69                	c.lui	t3,0x1a
     538:	0074                	c.addi4spn	a3,sp,12
     53a:	0402                	c.slli64	s0
     53c:	0000e307          	.4byte	0xe307
     540:	0400                	c.addi4spn	s0,sp,512
     542:	0064                	c.addi4spn	s1,sp,12
     544:	0000                	c.unimp
     546:	1002                	c.slli	zero,0x20
     548:	af04                	.2byte	0xaf04
     54a:	0001                	c.nop
     54c:	0500                	c.addi4spn	s0,sp,640
     54e:	8904                	exec.it	#524     !
     550:	0000                	c.unimp
     552:	0600                	c.addi4spn	s0,sp,768
     554:	00000077          	.4byte	0x77
     558:	0102                	c.slli64	sp
     55a:	a408                	.2byte	0xa408
     55c:	0000                	c.unimp
     55e:	0700                	c.addi4spn	s0,sp,896
     560:	0082                	c.slli64	ra
     562:	0000                	c.unimp
     564:	b608                	.2byte	0xb608
     566:	0019                	c.nop	6
     568:	0700                	c.addi4spn	s0,sp,896
     56a:	6404                	.2byte	0x6404
     56c:	0000                	c.unimp
     56e:	0200                	c.addi4spn	s0,sp,256
     570:	0616                	c.slli	a2,0x5
     572:	0cb5                	c.addi	s9,13 # 0xfffe400d <boot_loader+0x7ffe400d>
     574:	0000                	c.unimp
     576:	c309                	c.beqz	a4,0x578 <trap_entry+0x54>
     578:	0000000f          	fence	unknown,unknown
     57c:	1009                	c.nop	-30
     57e:	04000013          	li	zero,64
     582:	8109                	c.srli	a0,0x2
     584:	0012                	c.slli	zero,0x4
     586:	0500                	c.addi4spn	s0,sp,640
     588:	0b09                	c.addi	s6,2
     58a:	0015                	c.nop	5
     58c:	4000                	c.lw	s0,0(s0)
     58e:	9c09                	.2byte	0x9c09
     590:	41000007          	.4byte	0x41000007
     594:	5c09                	c.li	s8,-30
     596:	0018                	.2byte	0x18
     598:	4200                	c.lw	s0,0(a2)
     59a:	f309                	c.bnez	a4,0x49c <mswi_handler+0x8>
     59c:	000d                	c.nop	3
     59e:	4300                	c.lw	s0,0(a4)
     5a0:	bf09                	c.j	0x4b2 <syscall_handler+0x12>
     5a2:	0008                	.2byte	0x8
     5a4:	4300                	c.lw	s0,0(a4)
     5a6:	af09                	c.j	0xcb8 <__nds__wsbh>
     5a8:	44000013          	li	zero,1088
     5ac:	bc09                	c.j	0xffffffbe <boot_loader+0x7fffffbe>
     5ae:	0012                	c.slli	zero,0x4
     5b0:	0100                	c.addi4spn	s0,sp,128
     5b2:	9109                	c.srli	a0,0x22
     5b4:	001a                	c.slli	zero,0x6
     5b6:	0200                	c.addi4spn	s0,sp,256
     5b8:	7309                	c.lui	t1,0xfffe2
     5ba:	0009                	c.nop	2
     5bc:	0300                	c.addi4spn	s0,sp,384
     5be:	2c0a                	.2byte	0x2c0a
     5c0:	00000003          	lb	zero,0(zero) # 0x0 <_start>
     5c4:	0a0c                	c.addi4spn	a1,sp,272
     5c6:	0aed                	c.addi	s5,27
     5c8:	0000                	c.unimp
     5ca:	0c01                	c.addi	s8,0 # 0x18000 <__global_pointer$+0x15b68>
     5cc:	a50a                	.2byte	0xa50a
     5ce:	02000003          	lb	zero,32(zero) # 0x20 <_start+0x20>
     5d2:	0a0c                	c.addi4spn	a1,sp,272
     5d4:	06fc                	c.addi4spn	a5,sp,844
     5d6:	0000                	c.unimp
     5d8:	0c0a0c03          	lb	s8,192(s4)
     5dc:	04000007          	.4byte	0x4000007
     5e0:	0a0c                	c.addi4spn	a1,sp,272
     5e2:	071c                	c.addi4spn	a5,sp,896
     5e4:	0000                	c.unimp
     5e6:	0c05                	c.addi	s8,1
     5e8:	2c0a                	.2byte	0x2c0a
     5ea:	06000007          	.4byte	0x6000007
     5ee:	0a0c                	c.addi4spn	a1,sp,272
     5f0:	073c                	c.addi4spn	a5,sp,904
     5f2:	0000                	c.unimp
     5f4:	4c0a0c07          	.4byte	0x4c0a0c07
     5f8:	08000007          	.4byte	0x8000007
     5fc:	0a0c                	c.addi4spn	a1,sp,272
     5fe:	075c                	c.addi4spn	a5,sp,900
     600:	0000                	c.unimp
     602:	0c09                	c.addi	s8,2
     604:	0b0a                	c.slli	s6,0x2
     606:	0005                	c.nop	1
     608:	0a00                	c.addi4spn	s0,sp,272
     60a:	0a0c                	c.addi4spn	a1,sp,272
     60c:	051c                	c.addi4spn	a5,sp,640
     60e:	0000                	c.unimp
     610:	2d0a0c0b          	lbgp	s8,21200 # 0x7768 <__global_pointer$+0x52d0>
     614:	0005                	c.nop	1
     616:	0c00                	c.addi4spn	s0,sp,528
     618:	0a0c                	c.addi4spn	a1,sp,272
     61a:	053e                	c.slli	a0,0xf
     61c:	0000                	c.unimp
     61e:	0c0d                	c.addi	s8,3
     620:	4f0a                	c.lwsp	t5,128(sp)
     622:	0005                	c.nop	1
     624:	0e00                	c.addi4spn	s0,sp,784
     626:	0a0c                	c.addi4spn	a1,sp,272
     628:	0560                	c.addi4spn	s0,sp,652
     62a:	0000                	c.unimp
     62c:	710a0c0f          	.4byte	0x710a0c0f
     630:	0005                	c.nop	1
     632:	1000                	c.addi4spn	s0,sp,32
     634:	0a0c                	c.addi4spn	a1,sp,272
     636:	0582                	c.slli64	a1
     638:	0000                	c.unimp
     63a:	0c11                	c.addi	s8,4
     63c:	930a                	c.add	t1,sp
     63e:	0005                	c.nop	1
     640:	1200                	c.addi4spn	s0,sp,288
     642:	0a0c                	c.addi4spn	a1,sp,272
     644:	05a4                	c.addi4spn	s1,sp,712
     646:	0000                	c.unimp
     648:	0f0a0c13          	addi	s8,s4,240
     64c:	0006                	c.slli	zero,0x1
     64e:	1400                	c.addi4spn	s0,sp,544
     650:	0a0c                	c.addi4spn	a1,sp,272
     652:	0620                	c.addi4spn	s0,sp,776
     654:	0000                	c.unimp
     656:	0c15                	c.addi	s8,5
     658:	310a                	.2byte	0x310a
     65a:	0006                	c.slli	zero,0x1
     65c:	1600                	c.addi4spn	s0,sp,800
     65e:	0a0c                	c.addi4spn	a1,sp,272
     660:	0642                	c.slli	a2,0x10
     662:	0000                	c.unimp
     664:	530a0c17          	auipc	s8,0x530a0
     668:	0006                	c.slli	zero,0x1
     66a:	1800                	c.addi4spn	s0,sp,48
     66c:	0a0c                	c.addi4spn	a1,sp,272
     66e:	03d9                	c.addi	t2,22
     670:	0000                	c.unimp
     672:	0c19                	c.addi	s8,6 # 0x530a066a <loader+0x431a066a>
     674:	640a                	.2byte	0x640a
     676:	0006                	c.slli	zero,0x1
     678:	1a00                	c.addi4spn	s0,sp,304
     67a:	0a0c                	c.addi4spn	a1,sp,272
     67c:	0675                	c.addi	a2,29
     67e:	0000                	c.unimp
     680:	860a0c1b          	.4byte	0x860a0c1b
     684:	0006                	c.slli	zero,0x1
     686:	1c00                	c.addi4spn	s0,sp,560
     688:	0a0c                	c.addi4spn	a1,sp,272
     68a:	00000697          	auipc	a3,0x0
     68e:	0c1d                	c.addi	s8,7
     690:	6c0a                	.2byte	0x6c0a
     692:	1e000007          	.4byte	0x1e000007
     696:	0a0c                	c.addi4spn	a1,sp,272
     698:	077d                	c.addi	a4,31
     69a:	0000                	c.unimp
     69c:	0c1f ed0a 0004      	.byte	0x1f, 0x0c, 0x0a, 0xed, 0x04, 0x00
     6a2:	8000                	exec.it	#0     !
     6a4:	0a0c                	c.addi4spn	a1,sp,272
     6a6:	0b40                	c.addi4spn	s0,sp,404
     6a8:	0000                	c.unimp
     6aa:	0c81                	c.addi	s9,0
     6ac:	140a                	c.slli	s0,0x22
     6ae:	82000017          	auipc	zero,0x82000
     6b2:	0a0c                	c.addi4spn	a1,sp,272
     6b4:	07b4                	c.addi4spn	a3,sp,968
     6b6:	0000                	c.unimp
     6b8:	3b0a0c83          	lb	s9,944(s4)
     6bc:	0008                	.2byte	0x8
     6be:	8400                	exec.it	#2     !
     6c0:	0a0c                	c.addi4spn	a1,sp,272
     6c2:	08cc                	c.addi4spn	a1,sp,84
     6c4:	0000                	c.unimp
     6c6:	0c85                	c.addi	s9,1
     6c8:	4f0a                	c.lwsp	t5,128(sp)
     6ca:	0009                	c.nop	2
     6cc:	8600                	exec.it	#66     !
     6ce:	0a0c                	c.addi4spn	a1,sp,272
     6d0:	09b0                	c.addi4spn	a2,sp,216
     6d2:	0000                	c.unimp
     6d4:	330a0c87          	.4byte	0x330a0c87
     6d8:	000a                	c.slli	zero,0x2
     6da:	8800                	exec.it	#4     !
     6dc:	0a0c                	c.addi4spn	a1,sp,272
     6de:	0af6                	c.slli	s5,0x1d
     6e0:	0000                	c.unimp
     6e2:	0c89                	c.addi	s9,2
     6e4:	b50a                	.2byte	0xb50a
     6e6:	8a00000b          	lbgp	zero,-130912 # 0xfffe2538 <boot_loader+0x7ffe2538>
     6ea:	0a0c                	c.addi4spn	a1,sp,272
     6ec:	0c7e                	c.slli	s8,0x1f
     6ee:	0000                	c.unimp
     6f0:	e10a0c8b          	lbgp	s9,-109040 # 0xfffe7aa8 <boot_loader+0x7ffe7aa8>
     6f4:	000d                	c.nop	3
     6f6:	8c00                	exec.it	#6     !
     6f8:	0a0c                	c.addi4spn	a1,sp,272
     6fa:	0f48                	c.addi4spn	a0,sp,916
     6fc:	0000                	c.unimp
     6fe:	0c8d                	c.addi	s9,3
     700:	060a                	c.slli	a2,0x2
     702:	0010                	.2byte	0x10
     704:	8e00                	exec.it	#70     !
     706:	0a0c                	c.addi4spn	a1,sp,272
     708:	117e                	c.slli	sp,0x3f
     70a:	0000                	c.unimp
     70c:	6b0a0c8f          	.4byte	0x6b0a0c8f
     710:	90000003          	lb	zero,-1792(zero) # 0xfffff900 <boot_loader+0x7ffff900>
     714:	0a0c                	c.addi4spn	a1,sp,272
     716:	142e                	c.slli	s0,0x2b
     718:	0000                	c.unimp
     71a:	0c91                	c.addi	s9,4
     71c:	3e0a                	.2byte	0x3e0a
     71e:	0015                	c.nop	5
     720:	9200                	exec.it	#320     !
     722:	0a0c                	c.addi4spn	a1,sp,272
     724:	0000164f          	.4byte	0x164f
     728:	340a0c93          	addi	s9,s4,832
     72c:	94000013          	li	zero,-1728
     730:	0a0c                	c.addi4spn	a1,sp,272
     732:	1486                	c.slli	s1,0x21
     734:	0000                	c.unimp
     736:	0c95                	c.addi	s9,5
     738:	920a                	c.add	tp,sp
     73a:	0015                	c.nop	5
     73c:	9600                	exec.it	#322     !
     73e:	0a0c                	c.addi4spn	a1,sp,272
     740:	000016ab          	lhgp	a3,0 # 0x2498 <__global_pointer$>
     744:	460a0c97          	auipc	s9,0x460a0
     748:	98000017          	auipc	zero,0x98000
     74c:	0a0c                	c.addi4spn	a1,sp,272
     74e:	1828                	c.addi4spn	a0,sp,56
     750:	0000                	c.unimp
     752:	0c99                	c.addi	s9,6 # 0x460a074a <loader+0x361a074a>
     754:	e40a                	.2byte	0xe40a
     756:	0018                	.2byte	0x18
     758:	9a00                	exec.it	#324     !
     75a:	0a0c                	c.addi4spn	a1,sp,272
     75c:	1985                	c.addi	s3,-31 # 0xd7421bbb <boot_loader+0x57421bbb>
     75e:	0000                	c.unimp
     760:	600a0c9b          	.4byte	0x600a0c9b
     764:	001a                	c.slli	zero,0x6
     766:	9c00                	exec.it	#262     !
     768:	0a0c                	c.addi4spn	a1,sp,272
     76a:	00001b37          	lui	s6,0x1
     76e:	0c9d                	c.addi	s9,7
     770:	f60a                	.2byte	0xf60a
     772:	0018                	.2byte	0x18
     774:	9e00                	exec.it	#326     !
     776:	0a0c                	c.addi4spn	a1,sp,272
     778:	19a4                	c.addi4spn	s1,sp,248
     77a:	0000                	c.unimp
     77c:	0c9f 330a 000c      	.byte	0x9f, 0x0c, 0x0a, 0x33, 0x0c, 0x00
     782:	0000                	c.unimp
     784:	0a01                	c.addi	s4,0
     786:	0b4a                	c.slli	s6,0x12
     788:	0000                	c.unimp
     78a:	0102                	c.slli64	sp
     78c:	f00a                	.2byte	0xf00a
     78e:	0014                	.2byte	0x14
     790:	0300                	c.addi4spn	s0,sp,384
     792:	0a01                	c.addi	s4,0
     794:	00000823          	sb	zero,16(zero) # 0x10 <_start+0x10>
     798:	0104                	c.addi4spn	s1,sp,128
     79a:	490a                	c.lwsp	s2,128(sp)
     79c:	0500001b          	.4byte	0x500001b
     7a0:	0a01                	c.addi	s4,0
     7a2:	09fe                	c.slli	s3,0x1f
     7a4:	0000                	c.unimp
     7a6:	0106                	c.slli	sp,0x1
     7a8:	de0a                	c.swsp	sp,60(sp)
     7aa:	0005                	c.nop	1
     7ac:	0a00                	c.addi4spn	s0,sp,272
     7ae:	0a01                	c.addi	s4,0
     7b0:	1b0d                	c.addi	s6,-29 # 0xfe3 <printi+0x5f>
     7b2:	0000                	c.unimp
     7b4:	010c                	c.addi4spn	a1,sp,128
     7b6:	1b0a                	c.slli	s6,0x22
     7b8:	0d00001b          	.4byte	0xd00001b
     7bc:	0a01                	c.addi	s4,0
     7be:	1b29                	c.addi	s6,-22
     7c0:	0000                	c.unimp
     7c2:	010e                	c.slli	sp,0x3
     7c4:	df0a                	c.swsp	sp,188(sp)
     7c6:	000a                	c.slli	zero,0x2
     7c8:	0f00                	c.addi4spn	s0,sp,912
     7ca:	0a01                	c.addi	s4,0
     7cc:	00000b33          	add	s6,zero,zero
     7d0:	0140                	c.addi4spn	s0,sp,132
     7d2:	8c0a                	c.mv	s8,sp
     7d4:	000a                	c.slli	zero,0x2
     7d6:	4100                	c.lw	s0,0(a0)
     7d8:	0a01                	c.addi	s4,0
     7da:	00000893          	li	a7,0
     7de:	0142                	c.slli	sp,0x10
     7e0:	7c0a                	.2byte	0x7c0a
     7e2:	0009                	c.nop	2
     7e4:	4300                	c.lw	s0,0(a4)
     7e6:	0a01                	c.addi	s4,0
     7e8:	14c2                	c.slli	s1,0x30
     7ea:	0000                	c.unimp
     7ec:	590a0143          	.4byte	0x590a0143
     7f0:	0008                	.2byte	0x8
     7f2:	4400                	c.lw	s0,8(s0)
     7f4:	0a01                	c.addi	s4,0
     7f6:	0e81                	c.addi	t4,0
     7f8:	0000                	c.unimp
     7fa:	0180                	c.addi4spn	s0,sp,192
     7fc:	7a0a                	.2byte	0x7a0a
     7fe:	8000000b          	lbgp	zero,-131072 # 0xfffe2498 <boot_loader+0x7ffe2498>
     802:	0a01                	c.addi	s4,0
     804:	1a72                	c.slli	s4,0x3c
     806:	0000                	c.unimp
     808:	0da0                	c.addi4spn	s0,sp,728
     80a:	bd0a                	.2byte	0xbd0a
     80c:	0016                	c.slli	zero,0x5
     80e:	1100                	c.addi4spn	s0,sp,160
     810:	12750a0f          	.4byte	0x12750a0f
     814:	0000                	c.unimp
     816:	0f12                	c.slli	t5,0x4
     818:	0c0a                	c.slli	s8,0x2
     81a:	0016                	c.slli	zero,0x5
     81c:	1300                	c.addi4spn	s0,sp,416
     81e:	17c00a0f          	.4byte	0x17c00a0f
     822:	0000                	c.unimp
     824:	0f14                	c.addi4spn	a3,sp,912
     826:	2b0a                	.2byte	0x2b0a
     828:	001d                	c.nop	7
     82a:	1500                	c.addi4spn	s0,sp,672
     82c:	05fa0a0f          	.4byte	0x5fa0a0f
     830:	0000                	c.unimp
     832:	0300                	c.addi4spn	s0,sp,384
     834:	c30a                	c.swsp	sp,132(sp)
     836:	01000003          	lb	zero,16(zero) # 0x10 <_start+0x10>
     83a:	08dd0a03          	lb	s4,141(s10)
     83e:	0000                	c.unimp
     840:	0302                	c.slli64	t1
     842:	090a                	c.slli	s2,0x2
     844:	0018                	.2byte	0x18
     846:	0300                	c.addi4spn	s0,sp,384
     848:	03240a03          	lb	s4,50(s0)
     84c:	0000                	c.unimp
     84e:	0304                	c.addi4spn	s1,sp,384
     850:	7d0a                	.2byte	0x7d0a
     852:	0500000f          	fence	ow,unknown
     856:	0bed0a03          	lb	s4,190(s10)
     85a:	0000                	c.unimp
     85c:	0306                	c.slli	t1,0x1
     85e:	f60a                	.2byte	0xf60a
     860:	0008                	.2byte	0x8
     862:	4000                	c.lw	s0,0(s0)
     864:	06060a03          	lb	s4,96(a2)
     868:	0000                	c.unimp
     86a:	0341                	c.addi	t1,16 # 0xfffe2010 <boot_loader+0x7ffe2010>
     86c:	c60a                	c.swsp	sp,12(sp)
     86e:	001a                	c.slli	zero,0x6
     870:	4200                	c.lw	s0,0(a2)
     872:	0b560a03          	lb	s4,181(a2)
     876:	0000                	c.unimp
     878:	360a0343          	.4byte	0x360a0343
     87c:	44000003          	lb	zero,1088(zero) # 0x440 <__nds__wsbh+0x30>
     880:	0ed40a03          	lb	s4,237(s0)
     884:	0000                	c.unimp
     886:	030a                	c.slli	t1,0x2
     888:	170a                	c.slli	a4,0x22
     88a:	1a000003          	lb	zero,416(zero) # 0x1a0 <amoaddw_func+0xc>
     88e:	08770a03          	lb	s4,135(a4)
     892:	0000                	c.unimp
     894:	b30a0747          	.4byte	0xb30a0747
     898:	000c                	.2byte	0xc
     89a:	5700                	c.lw	s0,40(a4)
     89c:	11df0a07          	.4byte	0x11df0a07
     8a0:	0000                	c.unimp
     8a2:	030c                	c.addi4spn	a1,sp,384
     8a4:	ed0a                	.2byte	0xed0a
     8a6:	0011                	c.nop	4
     8a8:	0d00                	c.addi4spn	s0,sp,656
     8aa:	11fb0a03          	lb	s4,287(s6)
     8ae:	0000                	c.unimp
     8b0:	030e                	c.slli	t1,0x3
     8b2:	090a                	c.slli	s2,0x2
     8b4:	0012                	c.slli	zero,0x4
     8b6:	0f00                	c.addi4spn	s0,sp,912
     8b8:	1d3a0a03          	lb	s4,467(s4)
     8bc:	0000                	c.unimp
     8be:	031c                	c.addi4spn	a5,sp,384
     8c0:	4b0a                	c.lwsp	s6,128(sp)
     8c2:	1d000003          	lb	zero,464(zero) # 0x1d0 <amoxorw_func>
     8c6:	04630a03          	lb	s4,70(t1)
     8ca:	0000                	c.unimp
     8cc:	031e                	c.slli	t1,0x7
     8ce:	c10a                	c.swsp	sp,128(sp)
     8d0:	0004                	.2byte	0x4
     8d2:	1f00                	c.addi4spn	s0,sp,944
     8d4:	090f0a03          	lb	s4,144(t5)
     8d8:	0000                	c.unimp
     8da:	03a0                	c.addi4spn	s0,sp,456
     8dc:	270a                	.2byte	0x270a
     8de:	0009                	c.nop	2
     8e0:	a200                	.2byte	0xa200
     8e2:	091b0a03          	lb	s4,145(s6)
     8e6:	0000                	c.unimp
     8e8:	03a1                	c.addi	t2,8
     8ea:	330a                	.2byte	0x330a
     8ec:	0009                	c.nop	2
     8ee:	a300                	.2byte	0xa300
     8f0:	10cc0a03          	lb	s4,268(s8)
     8f4:	0000                	c.unimp
     8f6:	03b0                	c.addi4spn	a2,sp,456
     8f8:	d90a                	c.swsp	sp,176(sp)
     8fa:	0010                	.2byte	0x10
     8fc:	b100                	.2byte	0xb100
     8fe:	10e60a03          	lb	s4,270(a2)
     902:	0000                	c.unimp
     904:	03b2                	c.slli	t2,0xc
     906:	f30a                	.2byte	0xf30a
     908:	0010                	.2byte	0x10
     90a:	b300                	.2byte	0xb300
     90c:	11000a03          	lb	s4,272(zero) # 0x110 <NDS_SAG_LMA_MEM+0x10>
     910:	0000                	c.unimp
     912:	03b4                	c.addi4spn	a3,sp,456
     914:	0d0a                	c.slli	s10,0x2
     916:	0011                	c.nop	4
     918:	b500                	.2byte	0xb500
     91a:	111a0a03          	lb	s4,273(s4)
     91e:	0000                	c.unimp
     920:	03b6                	c.slli	t2,0xd
     922:	270a                	.2byte	0x270a
     924:	0011                	c.nop	4
     926:	b700                	.2byte	0xb700
     928:	11340a03          	lb	s4,275(s0)
     92c:	0000                	c.unimp
     92e:	03b8                	c.addi4spn	a4,sp,456
     930:	410a                	c.lwsp	sp,128(sp)
     932:	0011                	c.nop	4
     934:	b900                	.2byte	0xb900
     936:	10180a03          	lb	s4,257(a6)
     93a:	0000                	c.unimp
     93c:	03ba                	c.slli	t2,0xe
     93e:	260a                	.2byte	0x260a
     940:	0010                	.2byte	0x10
     942:	bb00                	.2byte	0xbb00
     944:	10340a03          	lb	s4,259(s0)
     948:	0000                	c.unimp
     94a:	03bc                	c.addi4spn	a5,sp,456
     94c:	420a                	c.lwsp	tp,128(sp)
     94e:	0010                	.2byte	0x10
     950:	bd00                	.2byte	0xbd00
     952:	10500a03          	lb	s4,261(zero) # 0x105 <NDS_SAG_LMA_MEM+0x5>
     956:	0000                	c.unimp
     958:	03be                	c.slli	t2,0xf
     95a:	b10a                	.2byte	0xb10a
     95c:	0008                	.2byte	0x8
     95e:	bf00                	.2byte	0xbf00
     960:	105e0a03          	lb	s4,261(t3) # 0x1a105 <__global_pointer$+0x17c6d>
     964:	0000                	c.unimp
     966:	03c0                	c.addi4spn	s0,sp,452
     968:	6c0a                	.2byte	0x6c0a
     96a:	0010                	.2byte	0x10
     96c:	c100                	c.sw	s0,0(a0)
     96e:	107a0a03          	lb	s4,263(s4)
     972:	0000                	c.unimp
     974:	03c2                	c.slli	t2,0x10
     976:	880a                	c.mv	a6,sp
     978:	0010                	.2byte	0x10
     97a:	c300                	c.sw	s0,0(a4)
     97c:	11990a03          	lb	s4,281(s2) # 0x1119 <print+0x69>
     980:	0000                	c.unimp
     982:	03c4                	c.addi4spn	s1,sp,452
     984:	a70a                	.2byte	0xa70a
     986:	0011                	c.nop	4
     988:	c500                	c.sw	s0,8(a0)
     98a:	11b50a03          	lb	s4,283(a0)
     98e:	0000                	c.unimp
     990:	03c6                	c.slli	t2,0x11
     992:	c30a                	c.swsp	sp,132(sp)
     994:	0011                	c.nop	4
     996:	c700                	c.sw	s0,8(a4)
     998:	11d10a03          	lb	s4,285(sp)
     99c:	0000                	c.unimp
     99e:	03c8                	c.addi4spn	a0,sp,452
     9a0:	860a                	c.mv	a2,sp
     9a2:	0009                	c.nop	2
     9a4:	c900                	c.sw	s0,16(a0)
     9a6:	09940a03          	lb	s4,153(s0)
     9aa:	0000                	c.unimp
     9ac:	03ca                	c.slli	t2,0x12
     9ae:	a20a                	.2byte	0xa20a
     9b0:	0009                	c.nop	2
     9b2:	cb00                	c.sw	s0,16(a4)
     9b4:	04450a03          	lb	s4,68(a0)
     9b8:	0000                	c.unimp
     9ba:	03cc                	c.addi4spn	a1,sp,452
     9bc:	170a                	c.slli	a4,0x22
     9be:	0012                	c.slli	zero,0x4
     9c0:	cd00                	c.sw	s0,24(a0)
     9c2:	12f40a03          	lb	s4,303(s0)
     9c6:	0000                	c.unimp
     9c8:	03ce                	c.slli	t2,0x13
     9ca:	020a                	c.slli	tp,0x2
     9cc:	cf000013          	li	zero,-784
     9d0:	0ac30a03          	lb	s4,172(t1)
     9d4:	0000                	c.unimp
     9d6:	03d0                	c.addi4spn	a2,sp,452
     9d8:	180a                	c.slli	a6,0x22
     9da:	d1000013          	li	zero,-752
     9de:	13260a03          	lb	s4,306(a2)
     9e2:	0000                	c.unimp
     9e4:	03d2                	c.slli	t2,0x14
     9e6:	d10a                	c.swsp	sp,160(sp)
     9e8:	000a                	c.slli	zero,0x2
     9ea:	d300                	c.sw	s0,32(a4)
     9ec:	13460a03          	lb	s4,308(a2)
     9f0:	0000                	c.unimp
     9f2:	03d4                	c.addi4spn	a3,sp,452
     9f4:	540a                	c.lwsp	s0,160(sp)
     9f6:	d5000013          	li	zero,-688
     9fa:	13620a03          	lb	s4,310(tp) # 0xfffe1136 <boot_loader+0x7ffe1136>
     9fe:	0000                	c.unimp
     a00:	03d6                	c.slli	t2,0x15
     a02:	700a                	.2byte	0x700a
     a04:	d7000013          	li	zero,-656
     a08:	14400a03          	lb	s4,324(zero) # 0x144 <NDS_SAG_LMA_MEM+0x44>
     a0c:	0000                	c.unimp
     a0e:	03d8                	c.addi4spn	a4,sp,452
     a10:	4e0a                	c.lwsp	t3,128(sp)
     a12:	0014                	.2byte	0x14
     a14:	d900                	c.sw	s0,48(a0)
     a16:	145c0a03          	lb	s4,325(s8)
     a1a:	0000                	c.unimp
     a1c:	03da                	c.slli	t2,0x16
     a1e:	6a0a                	.2byte	0x6a0a
     a20:	0014                	.2byte	0x14
     a22:	db00                	c.sw	s0,48(a4)
     a24:	14780a03          	lb	s4,327(a6)
     a28:	0000                	c.unimp
     a2a:	03dc                	c.addi4spn	a5,sp,452
     a2c:	4f0a                	c.lwsp	t5,128(sp)
     a2e:	000c                	.2byte	0xc
     a30:	dd00                	c.sw	s0,56(a0)
     a32:	14980a03          	lb	s4,329(a6)
     a36:	0000                	c.unimp
     a38:	03de                	c.slli	t2,0x17
     a3a:	a60a                	.2byte	0xa60a
     a3c:	0014                	.2byte	0x14
     a3e:	df00                	c.sw	s0,56(a4)
     a40:	14b40a03          	lb	s4,331(s0)
     a44:	0000                	c.unimp
     a46:	03e0                	c.addi4spn	s0,sp,460
     a48:	700a                	.2byte	0x700a
     a4a:	000c                	.2byte	0xc
     a4c:	e100                	.2byte	0xe100
     a4e:	155a0a03          	lb	s4,341(s4)
     a52:	0000                	c.unimp
     a54:	03e2                	c.slli	t2,0x18
     a56:	680a                	.2byte	0x680a
     a58:	0015                	c.nop	5
     a5a:	e300                	.2byte	0xe300
     a5c:	15760a03          	lb	s4,343(a2)
     a60:	0000                	c.unimp
     a62:	03e4                	c.addi4spn	s1,sp,460
     a64:	840a                	c.mv	s0,sp
     a66:	0015                	c.nop	5
     a68:	e500                	.2byte	0xe500
     a6a:	0ec60a03          	lb	s4,236(a2)
     a6e:	0000                	c.unimp
     a70:	03e6                	c.slli	t2,0x19
     a72:	e00a                	.2byte	0xe00a
     a74:	000e                	c.slli	zero,0x3
     a76:	e700                	.2byte	0xe700
     a78:	15a40a03          	lb	s4,346(s0)
     a7c:	0000                	c.unimp
     a7e:	03e8                	c.addi4spn	a0,sp,460
     a80:	b20a                	.2byte	0xb20a
     a82:	0015                	c.nop	5
     a84:	e900                	.2byte	0xe900
     a86:	15c00a03          	lb	s4,348(zero) # 0x15c <amoswapw_func+0x8>
     a8a:	0000                	c.unimp
     a8c:	03ea                	c.slli	t2,0x1a
     a8e:	ce0a                	c.swsp	sp,28(sp)
     a90:	0015                	c.nop	5
     a92:	eb00                	.2byte	0xeb00
     a94:	16610a03          	lb	s4,358(sp)
     a98:	0000                	c.unimp
     a9a:	03ec                	c.addi4spn	a1,sp,460
     a9c:	6f0a                	.2byte	0x6f0a
     a9e:	0016                	c.slli	zero,0x5
     aa0:	ed00                	.2byte	0xed00
     aa2:	167d0a03          	lb	s4,359(s10)
     aa6:	0000                	c.unimp
     aa8:	03ee                	c.slli	t2,0x1b
     aaa:	8b0a                	c.mv	s6,sp
     aac:	0016                	c.slli	zero,0x5
     aae:	ef00                	.2byte	0xef00
     ab0:	06f10a03          	lb	s4,111(sp)
     ab4:	0000                	c.unimp
     ab6:	0b00                	c.addi4spn	s0,sp,400
     ab8:	8b0a                	c.mv	s6,sp
     aba:	0012                	c.slli	zero,0x4
     abc:	0200                	c.addi4spn	s0,sp,256
     abe:	0d400a0b          	lbgp	s4,212 # 0x256c <__global_pointer$+0xd4>
     ac2:	0000                	c.unimp
     ac4:	510a0b03          	lb	s6,1296(s4)
     ac8:	000d                	c.nop	3
     aca:	0400                	c.addi4spn	s0,sp,512
     acc:	0d620a0b          	lbgp	s4,4310 # 0x356e <__global_pointer$+0x10d6>
     ad0:	0000                	c.unimp
     ad2:	0b05                	c.addi	s6,1
     ad4:	730a                	.2byte	0x730a
     ad6:	000d                	c.nop	3
     ad8:	0600                	c.addi4spn	s0,sp,768
     ada:	0d840a0b          	lbgp	s4,8408 # 0x4570 <__global_pointer$+0x20d8>
     ade:	0000                	c.unimp
     ae0:	950a0b07          	.4byte	0x950a0b07
     ae4:	000d                	c.nop	3
     ae6:	0800                	c.addi4spn	s0,sp,16
     ae8:	0da60a0b          	lbgp	s4,12506 # 0x5572 <__global_pointer$+0x30da>
     aec:	0000                	c.unimp
     aee:	0b09                	c.addi	s6,2
     af0:	f80a                	.2byte	0xf80a
     af2:	000c                	.2byte	0xc
     af4:	0a00                	c.addi4spn	s0,sp,272
     af6:	0d0a0a0b          	lbgp	s4,20688 # 0x7568 <__global_pointer$+0x50d0>
     afa:	0000                	c.unimp
     afc:	1c0a0b0b          	lbgp	s6,20928 # 0x7658 <__global_pointer$+0x51c0>
     b00:	000d                	c.nop	3
     b02:	0c00                	c.addi4spn	s0,sp,528
     b04:	0d2e0a0b          	lbgp	s4,28882 # 0x956a <__global_pointer$+0x70d2>
     b08:	0000                	c.unimp
     b0a:	0b0d                	c.addi	s6,3
     b0c:	ae0a                	.2byte	0xae0a
     b0e:	0e000017          	auipc	zero,0xe000
     b12:	137e0a0b          	lbgp	s4,31030 # 0x9dce <__global_pointer$+0x7936>
     b16:	0000                	c.unimp
     b18:	9d0a0b0f          	.4byte	0x9d0a0b0f
     b1c:	10000013          	li	zero,256
     b20:	13b70a0b          	lbgp	s4,80186 # 0x15dd2 <__global_pointer$+0x1393a>
     b24:	0000                	c.unimp
     b26:	0b11                	c.addi	s6,4
     b28:	da0a                	c.swsp	sp,52(sp)
     b2a:	12000013          	li	zero,288
     b2e:	13ec0a0b          	lbgp	s4,24894 # 0x85d6 <__global_pointer$+0x613e>
     b32:	0000                	c.unimp
     b34:	a20a0b13          	addi	s6,s4,-1504
     b38:	000e                	c.slli	zero,0x3
     b3a:	1400                	c.addi4spn	s0,sp,544
     b3c:	0eb40a0b          	lbgp	s4,10474 # 0x4d82 <__global_pointer$+0x28ea>
     b40:	0000                	c.unimp
     b42:	0b15                	c.addi	s6,5
     b44:	f40a                	.2byte	0xf40a
     b46:	0019                	c.nop	6
     b48:	1600                	c.addi4spn	s0,sp,800
     b4a:	1a060a0b          	lbgp	s4,12704 # 0x5638 <__global_pointer$+0x31a0>
     b4e:	0000                	c.unimp
     b50:	180a0b17          	auipc	s6,0x180a0
     b54:	001a                	c.slli	zero,0x6
     b56:	1800                	c.addi4spn	s0,sp,48
     b58:	0eee0a0b          	lbgp	s4,28910 # 0x9586 <__global_pointer$+0x70ee>
     b5c:	0000                	c.unimp
     b5e:	0b19                	c.addi	s6,6 # 0x180a0b56 <loader+0x81a0b56>
     b60:	000a                	c.slli	zero,0x2
     b62:	1a00000f          	.4byte	0x1a00000f
     b66:	0f120a0b          	lbgp	s4,6384 # 0x3d88 <__global_pointer$+0x18f0>
     b6a:	0000                	c.unimp
     b6c:	240a0b1b          	.4byte	0x240a0b1b
     b70:	1c00000f          	.4byte	0x1c00000f
     b74:	0f360a0b          	lbgp	s4,14578 # 0x5d8a <__global_pointer$+0x38f2>
     b78:	0000                	c.unimp
     b7a:	0b1d                	c.addi	s6,7
     b7c:	cf0a                	c.swsp	sp,156(sp)
     b7e:	1e00000f          	.4byte	0x1e00000f
     b82:	0fe10a0b          	lbgp	s4,65790 # 0x12596 <__global_pointer$+0x100fe>
     b86:	0000                	c.unimp
     b88:	0b1f 750a 0017      	.byte	0x1f, 0x0b, 0x0a, 0x75, 0x17, 0x00
     b8e:	8000                	exec.it	#0     !
     b90:	04b30a0b          	lbgp	s4,71754 # 0x13ce2 <__global_pointer$+0x1184a>
     b94:	0000                	c.unimp
     b96:	0b82                	c.slli64	s7
     b98:	d70a                	c.swsp	sp,172(sp)
     b9a:	83000017          	auipc	zero,0x83000
     b9e:	193e0a0b          	lbgp	s4,31122 # 0x9e2a <__global_pointer$+0x7992>
     ba2:	0000                	c.unimp
     ba4:	0b84                	c.addi4spn	s1,sp,464
     ba6:	db0a                	c.swsp	sp,180(sp)
     ba8:	001a                	c.slli	zero,0x6
     baa:	8500                	exec.it	#514     !
     bac:	1cfe0a0b          	lbgp	s4,31182 # 0x9e66 <__global_pointer$+0x79ce>
     bb0:	0000                	c.unimp
     bb2:	0b86                	c.slli	s7,0x1
     bb4:	b10a                	.2byte	0xb10a
     bb6:	87000003          	lb	zero,-1936(zero) # 0xfffff870 <boot_loader+0x7ffff870>
     bba:	16990a0b          	lbgp	s4,84328 # 0x16e00 <__global_pointer$+0x14968>
     bbe:	0000                	c.unimp
     bc0:	0b88                	c.addi4spn	a0,sp,464
     bc2:	340a                	.2byte	0x340a
     bc4:	89000017          	auipc	zero,0x89000
     bc8:	1aed0a0b          	lbgp	s4,90542 # 0x18646 <__global_pointer$+0x161ae>
     bcc:	0000                	c.unimp
     bce:	0b8a                	c.slli	s7,0x2
     bd0:	840a                	c.mv	s0,sp
     bd2:	8b00000b          	lbgp	zero,-130896 # 0xfffe2548 <boot_loader+0x7ffe2548>
     bd6:	0c5d0a0b          	lbgp	s4,92356 # 0x18d5c <__global_pointer$+0x168c4>
     bda:	0000                	c.unimp
     bdc:	0b8c                	c.addi4spn	a1,sp,464
     bde:	f80a                	.2byte	0xf80a
     be0:	0004                	.2byte	0x4
     be2:	8d00                	exec.it	#518     !
     be4:	191a0a0b          	lbgp	s4,22928 # 0x7e28 <__global_pointer$+0x5990>
     be8:	0000                	c.unimp
     bea:	0b8e                	c.slli	s7,0x3
     bec:	f30a                	.2byte	0xf30a
     bee:	8f00000f          	.4byte	0x8f00000f
     bf2:	114e0a0b          	lbgp	s4,28948 # 0x95ac <__global_pointer$+0x7114>
     bf6:	0000                	c.unimp
     bf8:	0b90                	c.addi4spn	a2,sp,464
     bfa:	790a                	.2byte	0x790a
     bfc:	000a                	c.slli	zero,0x2
     bfe:	9100                	exec.it	#768     !
     c00:	14080a0b          	lbgp	s4,16704 # 0x65d8 <__global_pointer$+0x4140>
     c04:	0000                	c.unimp
     c06:	0b92                	c.slli	s7,0x4
     c08:	180a                	c.slli	a6,0x22
     c0a:	0015                	c.nop	5
     c0c:	9300                	exec.it	#832     !
     c0e:	116b0a0b          	lbgp	s4,86294 # 0x175ae <__global_pointer$+0x15116>
     c12:	0000                	c.unimp
     c14:	0b94                	c.addi4spn	a3,sp,464
     c16:	a90a                	.2byte	0xa90a
     c18:	0012                	c.slli	zero,0x4
     c1a:	9500                	exec.it	#770     !
     c1c:	141b0a0b          	lbgp	s4,88384 # 0x17dd8 <__global_pointer$+0x15940>
     c20:	0000                	c.unimp
     c22:	0b96                	c.slli	s7,0x5
     c24:	2b0a                	.2byte	0x2b0a
     c26:	0015                	c.nop	5
     c28:	9700                	exec.it	#834     !
     c2a:	163c0a0b          	lbgp	s4,26978 # 0x8dfa <__global_pointer$+0x6962>
     c2e:	0000                	c.unimp
     c30:	0b98                	c.addi4spn	a4,sp,464
     c32:	210a                	.2byte	0x210a
     c34:	99000017          	auipc	zero,0x99000
     c38:	17f60a0b          	lbgp	s4,14718 # 0x5e16 <__global_pointer$+0x397e>
     c3c:	0000                	c.unimp
     c3e:	0b9a                	c.slli	s7,0x6
     c40:	a20a                	.2byte	0xa20a
     c42:	0018                	.2byte	0x18
     c44:	9b00                	exec.it	#836     !
     c46:	19570a0b          	lbgp	s4,80276 # 0x15e2c <__global_pointer$+0x13994>
     c4a:	0000                	c.unimp
     c4c:	0b9c                	c.addi4spn	a5,sp,464
     c4e:	370a                	.2byte	0x370a
     c50:	001a                	c.slli	zero,0x6
     c52:	9d00                	exec.it	#774     !
     c54:	18150a0b          	lbgp	s4,76160 # 0x14e18 <__global_pointer$+0x12980>
     c58:	0000                	c.unimp
     c5a:	0b9e                	c.slli	s7,0x7
     c5c:	d10a                	c.swsp	sp,160(sp)
     c5e:	0018                	.2byte	0x18
     c60:	9f00                	exec.it	#838     !
     c62:	0b970a0b          	lbgp	s4,80056 # 0x15d50 <__global_pointer$+0x138b8>
     c66:	0000                	c.unimp
     c68:	a60a0323          	sb	zero,-1434(s4)
     c6c:	2400000b          	lbgp	zero,576 # 0x26d8 <__global_pointer$+0x240>
     c70:	12c70a03          	lb	s4,300(a4)
     c74:	0000                	c.unimp
     c76:	0325                	c.addi	t1,9
     c78:	d60a                	c.swsp	sp,44(sp)
     c7a:	0012                	c.slli	zero,0x4
     c7c:	2600                	.2byte	0x2600
     c7e:	12e50a03          	lb	s4,302(a0)
     c82:	0000                	c.unimp
     c84:	c70a0327          	.4byte	0xc70a0327
     c88:	2800000b          	lbgp	zero,640 # 0x2718 <__global_pointer$+0x280>
     c8c:	0bd60a03          	lb	s4,189(a2)
     c90:	0000                	c.unimp
     c92:	0329                	c.addi	t1,10
     c94:	530a                	c.lwsp	t1,160(sp)
     c96:	2a00001b          	.4byte	0x2a00001b
     c9a:	1b630a03          	lb	s4,438(t1)
     c9e:	0000                	c.unimp
     ca0:	730a032b          	shgp	a6,22310 # 0x7bbe <__global_pointer$+0x5726>
     ca4:	2c00001b          	.4byte	0x2c00001b
     ca8:	1b830a03          	lb	s4,440(t1)
     cac:	0000                	c.unimp
     cae:	032d                	c.addi	t1,11
     cb0:	cf0a                	c.swsp	sp,156(sp)
     cb2:	0014                	.2byte	0x14
     cb4:	2e00                	.2byte	0x2e00
     cb6:	1b930a03          	lb	s4,441(t1)
     cba:	0000                	c.unimp
     cbc:	a30a032f          	.4byte	0xa30a032f
     cc0:	3000001b          	.4byte	0x3000001b
     cc4:	1bb30a03          	lb	s4,443(t1)
     cc8:	0000                	c.unimp
     cca:	0331                	c.addi	t1,12
     ccc:	c30a                	c.swsp	sp,132(sp)
     cce:	3200001b          	.4byte	0x3200001b
     cd2:	1bd30a03          	lb	s4,445(t1)
     cd6:	0000                	c.unimp
     cd8:	4e0a0333          	.4byte	0x4e0a0333
     cdc:	001c                	.2byte	0x1c
     cde:	3400                	.2byte	0x3400
     ce0:	1c5e0a03          	lb	s4,453(t3)
     ce4:	0000                	c.unimp
     ce6:	0335                	c.addi	t1,13
     ce8:	6e0a                	.2byte	0x6e0a
     cea:	001c                	.2byte	0x1c
     cec:	3600                	.2byte	0x3600
     cee:	1c7e0a03          	lb	s4,455(t3)
     cf2:	0000                	c.unimp
     cf4:	8e0a0337          	lui	t1,0x8e0a0
     cf8:	001c                	.2byte	0x1c
     cfa:	3800                	.2byte	0x3800
     cfc:	1c9e0a03          	lb	s4,457(t3)
     d00:	0000                	c.unimp
     d02:	0339                	c.addi	t1,14 # 0x8e0a000e <boot_loader+0xe0a000e>
     d04:	ae0a                	.2byte	0xae0a
     d06:	001c                	.2byte	0x1c
     d08:	3a00                	.2byte	0x3a00
     d0a:	1cbe0a03          	lb	s4,459(t3)
     d0e:	0000                	c.unimp
     d10:	ce0a033b          	.4byte	0xce0a033b
     d14:	001c                	.2byte	0x1c
     d16:	3c00                	.2byte	0x3c00
     d18:	1cde0a03          	lb	s4,461(t3)
     d1c:	0000                	c.unimp
     d1e:	033d                	c.addi	t1,15
     d20:	490a                	c.lwsp	s2,128(sp)
     d22:	001d                	c.nop	7
     d24:	3e00                	.2byte	0x3e00
     d26:	1d590a03          	lb	s4,469(s2)
     d2a:	0000                	c.unimp
     d2c:	070a033f 23000003 	.8byte	0x23000003070a033f
     d34:	03950a07          	.4byte	0x3950a07
     d38:	0000                	c.unimp
     d3a:	0724                	c.addi4spn	s1,sp,904
     d3c:	960a                	c.add	a2,sp
     d3e:	0004                	.2byte	0x4
     d40:	2500                	.2byte	0x2500
     d42:	04dd0a07          	.4byte	0x4dd0a07
     d46:	0000                	c.unimp
     d48:	0726                	c.slli	a4,0x9
     d4a:	ea0a                	.2byte	0xea0a
     d4c:	0005                	c.nop	1
     d4e:	2700                	.2byte	0x2700
     d50:	06e10a07          	.4byte	0x6e10a07
     d54:	0000                	c.unimp
     d56:	0728                	c.addi4spn	a0,sp,904
     d58:	ca0a                	c.swsp	sp,20(sp)
     d5a:	29000007          	.4byte	0x29000007
     d5e:	0e230a07          	.4byte	0xe230a07
     d62:	0000                	c.unimp
     d64:	072a                	c.slli	a4,0xa
     d66:	5a0a                	c.lwsp	s4,160(sp)
     d68:	2b00000f          	.4byte	0x2b00000f
     d6c:	10960a07          	.4byte	0x10960a07
     d70:	0000                	c.unimp
     d72:	072c                	c.addi4spn	a1,sp,904
     d74:	250a                	.2byte	0x250a
     d76:	0012                	c.slli	zero,0x4
     d78:	2d00                	.2byte	0x2d00
     d7a:	13c90a07          	.4byte	0x13c90a07
     d7e:	0000                	c.unimp
     d80:	072e                	c.slli	a4,0xb
     d82:	df0a                	c.swsp	sp,188(sp)
     d84:	0014                	.2byte	0x14
     d86:	2f00                	.2byte	0x2f00
     d88:	15ea0a07          	.4byte	0x15ea0a07
     d8c:	0000                	c.unimp
     d8e:	0730                	c.addi4spn	a2,sp,904
     d90:	cb0a                	c.swsp	sp,148(sp)
     d92:	0016                	c.slli	zero,0x5
     d94:	3100                	.2byte	0x3100
     d96:	17640a07          	.4byte	0x17640a07
     d9a:	0000                	c.unimp
     d9c:	0732                	c.slli	a4,0xc
     d9e:	3a0a                	.2byte	0x3a0a
     da0:	0018                	.2byte	0x18
     da2:	3300                	.2byte	0x3300
     da4:	15fb0a07          	.4byte	0x15fb0a07
     da8:	0000                	c.unimp
     daa:	0734                	c.addi4spn	a3,sp,904
     dac:	dc0a                	c.swsp	sp,56(sp)
     dae:	0016                	c.slli	zero,0x5
     db0:	3500                	.2byte	0x3500
     db2:	179d0a07          	.4byte	0x179d0a07
     db6:	0000                	c.unimp
     db8:	0736                	c.slli	a4,0xd
     dba:	4b0a                	c.lwsp	s6,128(sp)
     dbc:	0018                	.2byte	0x18
     dbe:	3700                	.2byte	0x3700
     dc0:	1c0c0a07          	.4byte	0x1c0c0a07
     dc4:	0000                	c.unimp
     dc6:	0738                	c.addi4spn	a4,sp,904
     dc8:	e30a                	.2byte	0xe30a
     dca:	0019                	c.nop	6
     dcc:	3900                	.2byte	0x3900
     dce:	1a800a07          	.4byte	0x1a800a07
     dd2:	0000                	c.unimp
     dd4:	073a                	c.slli	a4,0xe
     dd6:	5a0a                	c.lwsp	s4,160(sp)
     dd8:	000a                	c.slli	zero,0x2
     dda:	3b00                	.2byte	0x3b00
     ddc:	08040a07          	.4byte	0x8040a07
     de0:	0000                	c.unimp
     de2:	073c                	c.addi4spn	a5,sp,904
     de4:	690a                	.2byte	0x690a
     de6:	001d                	c.nop	7
     de8:	3d00                	.2byte	0x3d00
     dea:	1a990a07          	.4byte	0x1a990a07
     dee:	0000                	c.unimp
     df0:	073e                	c.slli	a4,0xf
     df2:	ed0a                	.2byte	0xed0a
     df4:	3f00001b          	.4byte	0x3f00001b
     df8:	17580a07          	.4byte	0x17580a07
     dfc:	0000                	c.unimp
     dfe:	07a0                	c.addi4spn	s0,sp,968
     e00:	610a                	.2byte	0x610a
     e02:	0008                	.2byte	0x8
     e04:	a100                	.2byte	0xa100
     e06:	17cc0a07          	.4byte	0x17cc0a07
     e0a:	0000                	c.unimp
     e0c:	07a2                	c.slli	a5,0x8
     e0e:	6c0a                	.2byte	0x6c0a
     e10:	0008                	.2byte	0x8
     e12:	a300                	.2byte	0xa300
     e14:	096a0a07          	.4byte	0x96a0a07
     e18:	0000                	c.unimp
     e1a:	07b0                	c.addi4spn	a2,sp,968
     e1c:	e50a                	.2byte	0xe50a
     e1e:	b100000b          	lbgp	zero,-130288 # 0xfffe27a8 <boot_loader+0x7ffe27a8>
     e22:	07e90a07          	.4byte	0x7e90a07
     e26:	0000                	c.unimp
     e28:	07b2                	c.slli	a5,0xc
     e2a:	c10a                	c.swsp	sp,128(sp)
     e2c:	0005                	c.nop	1
     e2e:	0000                	c.unimp
     e30:	0a08                	c.addi4spn	a0,sp,272
     e32:	18b5                	c.addi	a7,-19 # 0x3fed <__global_pointer$+0x1b55>
     e34:	0000                	c.unimp
     e36:	0801                	c.addi	a6,0
     e38:	b50a                	.2byte	0xb50a
     e3a:	0005                	c.nop	1
     e3c:	0900                	c.addi4spn	s0,sp,144
     e3e:	0a08                	c.addi4spn	a0,sp,272
     e40:	00001867          	.4byte	0x1867
     e44:	810a080b          	lbgp	a6,-110576 # 0xfffe74a8 <boot_loader+0x7ffe74a8>
     e48:	0c000017          	auipc	zero,0xc000
     e4c:	0a08                	c.addi4spn	a0,sp,272
     e4e:	10b4                	c.addi4spn	a3,sp,104
     e50:	0000                	c.unimp
     e52:	0810                	c.addi4spn	a2,sp,16
     e54:	f70a                	.2byte	0xf70a
     e56:	0016                	c.slli	zero,0x5
     e58:	1100                	c.addi4spn	s0,sp,160
     e5a:	0a08                	c.addi4spn	a0,sp,272
     e5c:	00001be3          	bnez	zero,0x1672 <__floatundisf+0x4e>
     e60:	0812                	c.slli	a6,0x4
     e62:	fe0a                	.2byte	0xfe0a
     e64:	1300001b          	.4byte	0x1300001b
     e68:	0a08                	c.addi4spn	a0,sp,272
     e6a:	0a2a                	c.slli	s4,0xa
     e6c:	0000                	c.unimp
     e6e:	09c4                	c.addi4spn	s1,sp,212
     e70:	440a                	c.lwsp	s0,128(sp)
     e72:	000a                	c.slli	zero,0x2
     e74:	c500                	c.sw	s0,8(a0)
     e76:	0a09                	c.addi	s4,2
     e78:	0a0d                	c.addi	s4,3
     e7a:	0000                	c.unimp
     e7c:	09c9                	c.addi	s3,18
     e7e:	190a                	c.slli	s2,0x22
     e80:	001d                	c.nop	7
     e82:	cf00                	c.sw	s0,24(a4)
     e84:	0a09                	c.addi	s4,2
     e86:	0c90                	c.addi4spn	a2,sp,592
     e88:	0000                	c.unimp
     e8a:	09d1                	c.addi	s3,20
     e8c:	9e0a                	c.add	t3,sp
     e8e:	0008                	.2byte	0x8
     e90:	d200                	c.sw	s0,32(a2)
     e92:	0a09                	c.addi	s4,2
     e94:	0cc0                	c.addi4spn	s0,sp,596
     e96:	0000                	c.unimp
     e98:	f70a09d3          	.4byte	0xf70a09d3
     e9c:	0002                	c.slli64	zero
     e9e:	d400                	c.sw	s0,40(s0)
     ea0:	0a09                	c.addi	s4,2
     ea2:	00000f6b          	.4byte	0xf6b
     ea6:	09e0                	c.addi4spn	s0,sp,220
     ea8:	870a                	c.mv	a4,sp
     eaa:	e300000f          	.4byte	0xe300000f
     eae:	0a09                	c.addi	s4,2
     eb0:	0f96                	c.slli	t6,0x5
     eb2:	0000                	c.unimp
     eb4:	09e4                	c.addi4spn	s1,sp,220
     eb6:	a50a                	.2byte	0xa50a
     eb8:	e500000f          	.4byte	0xe500000f
     ebc:	0a09                	c.addi	s4,2
     ebe:	0fb4                	c.addi4spn	a3,sp,984
     ec0:	0000                	c.unimp
     ec2:	09e6                	c.slli	s3,0x19
     ec4:	dc0a                	c.swsp	sp,56(sp)
     ec6:	0015                	c.nop	5
     ec8:	cd00                	c.sw	s0,24(a0)
     eca:	0a09                	c.addi	s4,2
     ecc:	0e94                	c.addi4spn	a3,sp,848
     ece:	0000                	c.unimp
     ed0:	09d0                	c.addi4spn	a2,sp,212
     ed2:	4d0a                	c.lwsp	s10,128(sp)
     ed4:	000a                	c.slli	zero,0x2
     ed6:	c000                	c.sw	s0,0(s0)
     ed8:	033e0a0f          	.4byte	0x33e0a0f
     edc:	0000                	c.unimp
     ede:	0fc1                	c.addi	t6,16
     ee0:	a70a                	.2byte	0xa70a
     ee2:	0010                	.2byte	0x10
     ee4:	c200                	c.sw	s0,0(a2)
     ee6:	07f60a0f          	.4byte	0x7f60a0f
     eea:	0000                	c.unimp
     eec:	940a0fc3          	.4byte	0x940a0fc3
     ef0:	0018                	.2byte	0x18
     ef2:	c400                	c.sw	s0,8(s0)
     ef4:	1b000a0f          	.4byte	0x1b000a0f
     ef8:	0000                	c.unimp
     efa:	060a0fc7          	.4byte	0x60a0fc7
     efe:	000c                	.2byte	0xc
     f00:	c800                	c.sw	s0,16(s0)
     f02:	1a4a0a0f          	.4byte	0x1a4a0a0f
     f06:	0000                	c.unimp
     f08:	0fc9                	c.addi	t6,18
     f0a:	410a                	c.lwsp	sp,128(sp)
     f0c:	001c                	.2byte	0x1c
     f0e:	d000                	c.sw	s0,32(s0)
     f10:	16ed0a0f          	.4byte	0x16ed0a0f
     f14:	0000                	c.unimp
     f16:	0fd1                	c.addi	t6,20
     f18:	de0a                	c.swsp	sp,60(sp)
     f1a:	000c                	.2byte	0xc
     f1c:	c000                	c.sw	s0,0(s0)
     f1e:	16170a07          	.4byte	0x16170a07
     f22:	0000                	c.unimp
     f24:	07c1                	c.addi	a5,16
     f26:	250a                	.2byte	0x250a
     f28:	c200000b          	lbgp	zero,-130016 # 0xfffe28b8 <boot_loader+0x7ffe28b8>
     f2c:	0e8a0a07          	.4byte	0xe8a0a07
     f30:	0000                	c.unimp
     f32:	e90a07c3          	.4byte	0xe90a07c3
     f36:	0008                	.2byte	0x8
     f38:	c500                	c.sw	s0,8(a0)
     f3a:	12360a07          	.4byte	0x12360a07
     f3e:	0000                	c.unimp
     f40:	07ca                	c.slli	a5,0x12
     f42:	8e0a                	c.mv	t3,sp
     f44:	d0000007          	.4byte	0xd0000007
     f48:	04d00a07          	.4byte	0x4d00a07
     f4c:	0000                	c.unimp
     f4e:	07df 1d0a 001c      	.byte	0xdf, 0x07, 0x0a, 0x1d, 0x1c, 0x00
     f54:	cb00                	c.sw	s0,16(a4)
     f56:	1c300a07          	.4byte	0x1c300a07
     f5a:	0000                	c.unimp
     f5c:	07cc                	c.addi4spn	a1,sp,964
     f5e:	6b0a                	.2byte	0x6b0a
     f60:	000a                	c.slli	zero,0x2
     f62:	cd00                	c.sw	s0,24(a0)
     f64:	0c1b0a07          	.4byte	0xc1b0a07
     f68:	0000                	c.unimp
     f6a:	07f0                	c.addi4spn	a2,sp,972
     f6c:	500a                	.2byte	0x500a
     f6e:	0015                	c.nop	5
     f70:	f100                	.2byte	0xf100
     f72:	187a0a07          	.4byte	0x187a0a07
     f76:	0000                	c.unimp
     f78:	07c4                	c.addi4spn	s1,sp,964
     f7a:	720a                	.2byte	0x720a
     f7c:	0004                	.2byte	0x4
     f7e:	c900                	c.sw	s0,16(a0)
     f80:	08150a07          	.4byte	0x8150a07
     f84:	0000                	c.unimp
     f86:	07d5                	c.addi	a5,21
     f88:	fd0a                	.2byte	0xfd0a
     f8a:	000d                	c.nop	3
     f8c:	d600                	c.sw	s0,40(a2)
     f8e:	0a950a07          	.4byte	0xa950a07
     f92:	0000                	c.unimp
     f94:	d00a07d7          	.4byte	0xd00a07d7
     f98:	0009                	c.nop	2
     f9a:	d800                	c.sw	s0,48(s0)
     f9c:	0aa30a07          	.4byte	0xaa30a07
     fa0:	0000                	c.unimp
     fa2:	07d9                	c.addi	a5,22
     fa4:	e00a                	.2byte	0xe00a
     fa6:	0009                	c.nop	2
     fa8:	da00                	c.sw	s0,48(a2)
     faa:	19c10a07          	.4byte	0x19c10a07
     fae:	0000                	c.unimp
     fb0:	d20a07db          	.4byte	0xd20a07db
     fb4:	0019                	c.nop	6
     fb6:	dc00                	c.sw	s0,56(s0)
     fb8:	04530a07          	.4byte	0x4530a07
     fbc:	0000                	c.unimp
     fbe:	07dd                	c.addi	a5,23
     fc0:	3f0a                	.2byte	0x3f0a
     fc2:	0009                	c.nop	2
     fc4:	de00                	c.sw	s0,56(a2)
     fc6:	17e90a07          	.4byte	0x17e90a07
     fca:	0000                	c.unimp
     fcc:	07c6                	c.slli	a5,0x11
     fce:	6a0a                	.2byte	0x6a0a
     fd0:	0019                	c.nop	6
     fd2:	c700                	c.sw	s0,8(a4)
     fd4:	04890a07          	.4byte	0x4890a07
     fd8:	0000                	c.unimp
     fda:	07c8                	c.addi4spn	a0,sp,964
     fdc:	a30a                	.2byte	0xa30a
     fde:	000c                	.2byte	0xc
     fe0:	ce00                	c.sw	s0,24(a2)
     fe2:	06a80a07          	.4byte	0x6a80a07
     fe6:	0000                	c.unimp
     fe8:	07d1                	c.addi	a5,20
     fea:	bb0a                	.2byte	0xbb0a
     fec:	0006                	c.slli	zero,0x1
     fee:	d200                	c.sw	s0,32(a2)
     ff0:	06ce0a07          	.4byte	0x6ce0a07
     ff4:	0000                	c.unimp
     ff6:	080a07d3          	.4byte	0x80a07d3
     ffa:	0019                	c.nop	6
     ffc:	cf00                	c.sw	s0,24(a4)
     ffe:	0ce80a07          	.4byte	0xce80a07
    1002:	0000                	c.unimp
    1004:	07d4                	c.addi4spn	a3,sp,964
    1006:	b10a                	.2byte	0xb10a
    1008:	000a                	c.slli	zero,0x2
    100a:	2000                	.2byte	0x2000
    100c:	07a50a03          	lb	s4,122(a0)
    1010:	0000                	c.unimp
    1012:	07ec                	c.addi4spn	a1,sp,972
    1014:	830a                	c.mv	t1,sp
    1016:	0008                	.2byte	0x8
    1018:	ed00                	.2byte	0xed00
    101a:	0e340a07          	.4byte	0xe340a07
    101e:	0000                	c.unimp
    1020:	07ee                	c.slli	a5,0x1b
    1022:	a60a                	.2byte	0xa60a
    1024:	0004                	.2byte	0x4
    1026:	ef00                	.2byte	0xef00
    1028:	0a190a07          	.4byte	0xa190a07
    102c:	0000                	c.unimp
    102e:	450a07eb          	.4byte	0x450a07eb
    1032:	0012                	c.slli	zero,0x4
    1034:	c000                	c.sw	s0,0(s0)
    1036:	12510a0b          	lbgp	s4,67876 # 0x12dbc <__global_pointer$+0x10924>
    103a:	0000                	c.unimp
    103c:	0bc1                	c.addi	s7,16
    103e:	5d0a                	c.lwsp	s10,160(sp)
    1040:	0012                	c.slli	zero,0x4
    1042:	c200                	c.sw	s0,0(a2)
    1044:	12690a0b          	lbgp	s4,82214 # 0x165be <__global_pointer$+0x14126>
    1048:	0000                	c.unimp
    104a:	600a0bc3          	.4byte	0x600a0bc3
    104e:	d000000b          	lbgp	zero,-129792 # 0xfffe2998 <boot_loader+0x7ffe2998>
    1052:	03cc0a0b          	lbgp	s4,24636 # 0x84d4 <__global_pointer$+0x603c>
    1056:	0000                	c.unimp
    1058:	0bd1                	c.addi	s7,20
    105a:	6d0a                	.2byte	0x6d0a
    105c:	d200000b          	lbgp	zero,-129760 # 0xfffe29b8 <boot_loader+0x7ffe29b8>
    1060:	03ea0a0b          	lbgp	s4,20542 # 0x74d6 <__global_pointer$+0x503e>
    1064:	0000                	c.unimp
    1066:	f70a0bd3          	.4byte	0xf70a0bd3
    106a:	d4000003          	lb	zero,-704(zero) # 0xfffffd40 <boot_loader+0x7ffffd40>
    106e:	04040a0b          	lbgp	s4,8256 # 0x44d8 <__global_pointer$+0x2040>
    1072:	0000                	c.unimp
    1074:	0bd5                	c.addi	s7,21
    1076:	110a                	c.slli	sp,0x22
    1078:	0004                	.2byte	0x4
    107a:	d600                	c.sw	s0,40(a2)
    107c:	041e0a0b          	lbgp	s4,30784 # 0x9cd8 <__global_pointer$+0x7840>
    1080:	0000                	c.unimp
    1082:	2b0a0bd7          	.4byte	0x2b0a0bd7
    1086:	0004                	.2byte	0x4
    1088:	d800                	c.sw	s0,48(s0)
    108a:	04380a0b          	lbgp	s4,18498 # 0x6cda <__global_pointer$+0x4842>
    108e:	0000                	c.unimp
    1090:	0bd9                	c.addi	s7,22
    1092:	aa0a                	.2byte	0xaa0a
    1094:	001a                	c.slli	zero,0x6
    1096:	da00                	c.sw	s0,48(a2)
    1098:	1ab80a0b          	lbgp	s4,18858 # 0x6e42 <__global_pointer$+0x49aa>
    109c:	0000                	c.unimp
    109e:	060a0bdb          	.4byte	0x60a0bdb
    10a2:	dc000017          	auipc	zero,0xdc000
    10a6:	0db70a0b          	lbgp	s4,80090 # 0x15d72 <__global_pointer$+0x138da>
    10aa:	0000                	c.unimp
    10ac:	0bdd                	c.addi	s7,23
    10ae:	c50a                	c.swsp	sp,136(sp)
    10b0:	000d                	c.nop	3
    10b2:	de00                	c.sw	s0,56(a2)
    10b4:	0dd30a0b          	lbgp	s4,71900 # 0x13d74 <__global_pointer$+0x118dc>
    10b8:	0000                	c.unimp
    10ba:	0bdf 880a 0003      	.byte	0xdf, 0x0b, 0x0a, 0x88, 0x03, 0x00
    10c0:	a100                	.2byte	0xa100
    10c2:	037d0a07          	.4byte	0x37d0a07
    10c6:	0000                	c.unimp
    10c8:	07a1                	c.addi	a5,8
    10ca:	160a                	c.slli	a2,0x22
    10cc:	000e                	c.slli	zero,0x3
    10ce:	a100                	.2byte	0xa100
    10d0:	13900a07          	.4byte	0x13900a07
    10d4:	0000                	c.unimp
    10d6:	07a1                	c.addi	a5,8
    10d8:	ca0a                	c.swsp	sp,20(sp)
    10da:	0005                	c.nop	1
    10dc:	a300                	.2byte	0xa300
    10de:	084c0a07          	.4byte	0x84c0a07
    10e2:	0000                	c.unimp
    10e4:	fe0a07a3          	sb	zero,-17(s4)
    10e8:	a4000013          	li	zero,-1472
    10ec:	18870a07          	.4byte	0x18870a07
    10f0:	0000                	c.unimp
    10f2:	07a5                	c.addi	a5,9
    10f4:	2f0a                	.2byte	0x2f0a
    10f6:	0016                	c.slli	zero,0x5
    10f8:	a800                	.2byte	0xa800
    10fa:	19780a07          	.4byte	0x19780a07
    10fe:	0000                	c.unimp
    1100:	07aa                	c.slli	a5,0xa
    1102:	f00a                	.2byte	0xf00a
    1104:	0009                	c.nop	2
    1106:	b200                	.2byte	0xb200
    1108:	0c250a07          	.4byte	0xc250a07
    110c:	0000                	c.unimp
    110e:	2a0a07b3          	.4byte	0x2a0a07b3
    1112:	001a                	c.slli	zero,0x6
    1114:	e000                	.2byte	0xe000
    1116:	09030a07          	.4byte	0x9030a07
    111a:	0000                	c.unimp
    111c:	07e1                	c.addi	a5,24
    111e:	0d0a                	c.slli	s10,0x2
    1120:	000e                	c.slli	zero,0x3
    1122:	0700                	c.addi4spn	s0,sp,896
    1124:	11610a03          	lb	s4,278(sp)
    1128:	0000                	c.unimp
    112a:	0345                	c.addi	t1,17
    112c:	fc0a                	.2byte	0xfc0a
    112e:	0014                	.2byte	0x14
    1130:	4700                	c.lw	s0,8(a4)
    1132:	0c3f0a03          	lb	s4,195(t5)
    1136:	0000                	c.unimp
    1138:	0348                	c.addi4spn	a0,sp,388
    113a:	980a                	c.add	a6,sp
    113c:	0012                	c.slli	zero,0x4
    113e:	4900                	c.lw	s0,16(a0)
    1140:	0cd30903          	lb	s2,205(t1)
    1144:	0000                	c.unimp
    1146:	0908                	c.addi4spn	a0,sp,144
    1148:	1ad1                	c.addi	s5,-12
    114a:	0000                	c.unimp
    114c:	0909                	c.addi	s2,2
    114e:	1190                	c.addi4spn	a2,sp,224
    1150:	0000                	c.unimp
    1152:	090a                	c.slli	s2,0x2
    1154:	0b1c                	c.addi4spn	a5,sp,400
    1156:	0000                	c.unimp
    1158:	05d70a0f          	.4byte	0x5d70a0f
    115c:	0000                	c.unimp
    115e:	0c20                	c.addi4spn	s0,sp,536
    1160:	fc0a                	.2byte	0xfc0a
    1162:	2100000b          	lbgp	zero,528 # 0x26a8 <__global_pointer$+0x210>
    1166:	0a0c                	c.addi4spn	a1,sp,272
    1168:	0960                	c.addi4spn	s0,sp,156
    116a:	0000                	c.unimp
    116c:	0c22                	c.slli	s8,0x8
    116e:	bc0a                	.2byte	0xbc0a
    1170:	0010                	.2byte	0x10
    1172:	ca00                	c.sw	s0,16(a2)
    1174:	035a0a0f          	.4byte	0x35a0a0f
    1178:	0000                	c.unimp
    117a:	bf0a0fcb          	.4byte	0xbf0a0fcb
    117e:	0018                	.2byte	0x18
    1180:	cf00                	c.sw	s0,24(a4)
    1182:	0b070a0f          	.4byte	0xb070a0f
    1186:	0000                	c.unimp
    1188:	0b000fcf          	.4byte	0xb000fcf
    118c:	07da                	c.slli	a5,0x16
    118e:	0000                	c.unimp
    1190:	4904                	c.lw	s1,16(a0)
    1192:	c70d                	c.beqz	a4,0x11bc <print+0x10c>
    1194:	000c                	.2byte	0xc
    1196:	0c00                	c.addi4spn	s0,sp,528
    1198:	0064                	c.addi4spn	s1,sp,12
    119a:	0000                	c.unimp
    119c:	0d00                	c.addi4spn	s0,sp,656
    119e:	0121                	c.addi	sp,8
    11a0:	0000                	c.unimp
    11a2:	ba05                	c.j	0xad2 <uart_init+0x2>
    11a4:	5d05                	c.li	s10,-31
    11a6:	0000                	c.unimp
    11a8:	de00                	c.sw	s0,56(a2)
    11aa:	000c                	.2byte	0xc
    11ac:	0c00                	c.addi4spn	s0,sp,528
    11ae:	007d                	c.nop	31
    11b0:	0000                	c.unimp
    11b2:	000e                	c.slli	zero,0x3
    11b4:	0017920f          	.4byte	0x17920f
    11b8:	0100                	c.addi4spn	s0,sp,128
    11ba:	0631                	c.addi	a2,12
    11bc:	2404                	.2byte	0x2404
    11be:	0005                	c.nop	1
    11c0:	0000                	c.unimp
    11c2:	0002                	c.slli64	zero
    11c4:	0100                	c.addi4spn	s0,sp,128
    11c6:	899c                	.2byte	0x899c
    11c8:	000d                	c.nop	3
    11ca:	1000                	c.addi4spn	s0,sp,32
    11cc:	1950                	c.addi4spn	a2,sp,180
    11ce:	0000                	c.unimp
    11d0:	3301                	c.jal	0xed0 <prints+0x38>
    11d2:	00004107          	.4byte	0x4107
    11d6:	0300                	c.addi4spn	s0,sp,384
    11d8:	b891                	c.j	0xa2c <__nds__rotr+0x14>
    11da:	07c5107f          	.4byte	0x7c5107f
    11de:	0000                	c.unimp
    11e0:	3401                	c.jal	0xbe0 <uart_puts+0x1c>
    11e2:	00004107          	.4byte	0x4107
    11e6:	0300                	c.addi4spn	s0,sp,384
    11e8:	bc91                	c.j	0xc3c <outbyte+0x4>
    11ea:	0833107f          	.4byte	0x833107f
    11ee:	0000                	c.unimp
    11f0:	3501                	c.jal	0xff0 <printi+0x6c>
    11f2:	00004107          	.4byte	0x4107
    11f6:	0300                	c.addi4spn	s0,sp,384
    11f8:	b491                	c.j	0xc3c <outbyte+0x4>
    11fa:	1d10107f          	.4byte	0x1d10107f
    11fe:	0000                	c.unimp
    1200:	3701                	c.jal	0x1100 <print+0x50>
    1202:	00004107          	.4byte	0x4107
    1206:	0300                	c.addi4spn	s0,sp,384
    1208:	b091                	c.j	0xa4c <__nds__rotr+0x34>
    120a:	0e7a117f          	.4byte	0xe7a117f
    120e:	0000                	c.unimp
    1210:	05a8                	c.addi4spn	a0,sp,712
    1212:	0000                	c.unimp
    1214:	0028                	c.addi4spn	a0,sp,8
    1216:	0000                	c.unimp
    1218:	4b01                	c.li	s6,0
    121a:	000d5c03          	lhu	s8,0(s10)
    121e:	1200                	c.addi4spn	s0,sp,288
    1220:	00000e8b          	lbgp	t4,0 # 0x2498 <__global_pointer$>
    1224:	7fac9103          	lh	sp,2042(s9)
    1228:	9712                	c.add	a4,tp
    122a:	000e                	c.slli	zero,0x3
    122c:	0300                	c.addi4spn	s0,sp,384
    122e:	a891                	c.j	0x1282 <print+0x1d2>
    1230:	4213007f          	.4byte	0x4213007f
    1234:	000e                	c.slli	zero,0x3
    1236:	3400                	.2byte	0x3400
    1238:	0006                	c.slli	zero,0x1
    123a:	3000                	.2byte	0x3000
    123c:	0000                	c.unimp
    123e:	0100                	c.addi4spn	s0,sp,128
    1240:	0358                	c.addi4spn	a4,sp,388
    1242:	4f14                	c.lw	a3,24(a4)
    1244:	000e                	c.slli	zero,0x3
    1246:	0300                	c.addi4spn	s0,sp,384
    1248:	a491                	c.j	0x148c <__divsf3+0x50>
    124a:	0e5b127f          	.4byte	0xe5b127f
    124e:	0000                	c.unimp
    1250:	7fa09103          	lh	sp,2042(ra)
    1254:	6712                	.2byte	0x6712
    1256:	000e                	c.slli	zero,0x3
    1258:	0300                	c.addi4spn	s0,sp,384
    125a:	9c91                	.2byte	0x9c91
    125c:	1500007f          	.4byte	0x1500007f
    1260:	09c1                	c.addi	s3,16
    1262:	0000                	c.unimp
    1264:	2701                	c.jal	0x1964 <__riscv_restore_0+0x122>
    1266:	411c                	c.lw	a5,0(a0)
    1268:	0000                	c.unimp
    126a:	e800                	.2byte	0xe800
    126c:	0004                	.2byte	0x4
    126e:	3c00                	.2byte	0x3c00
    1270:	0000                	c.unimp
    1272:	0100                	c.addi4spn	s0,sp,128
    1274:	c29c                	c.sw	a5,0(a3)
    1276:	000d                	c.nop	3
    1278:	1600                	c.addi4spn	s0,sp,800
    127a:	1951                	c.addi	s2,-12
    127c:	0000                	c.unimp
    127e:	2701                	c.jal	0x197e <__riscv_restore_0+0x13c>
    1280:	4130                	c.lw	a2,64(a0)
    1282:	0000                	c.unimp
    1284:	0200                	c.addi4spn	s0,sp,256
    1286:	6c91                	c.lui	s9,0x4
    1288:	63706517          	auipc	a0,0x63706
    128c:	0100                	c.addi4spn	s0,sp,128
    128e:	00413c27          	.4byte	0x413c27
    1292:	0000                	c.unimp
    1294:	9102                	c.jalr	sp
    1296:	0068                	c.addi4spn	a0,sp,12
    1298:	ee18                	.2byte	0xee18
    129a:	001c                	.2byte	0x1c
    129c:	0100                	c.addi4spn	s0,sp,128
    129e:	1c21                	c.addi	s8,-24
    12a0:	04a0                	c.addi4spn	s0,sp,584
    12a2:	0000                	c.unimp
    12a4:	0048                	c.addi4spn	a0,sp,4
    12a6:	0000                	c.unimp
    12a8:	9c01                	.2byte	0x9c01
    12aa:	0e1e                	c.slli	t3,0x7
    12ac:	0000                	c.unimp
    12ae:	01006e17          	auipc	t3,0x1006
    12b2:	3121                	c.jal	0xeba <prints+0x22>
    12b4:	0041                	c.nop	16
    12b6:	0000                	c.unimp
    12b8:	9102                	c.jalr	sp
    12ba:	176c                	c.addi4spn	a1,sp,940
    12bc:	3061                	c.jal	0xb44 <uart_init+0x74>
    12be:	0100                	c.addi4spn	s0,sp,128
    12c0:	3921                	c.jal	0xed8 <prints+0x40>
    12c2:	0041                	c.nop	16
    12c4:	0000                	c.unimp
    12c6:	9102                	c.jalr	sp
    12c8:	1768                	c.addi4spn	a0,sp,940
    12ca:	3161                	c.jal	0xf52 <prints+0xba>
    12cc:	0100                	c.addi4spn	s0,sp,128
    12ce:	4221                	c.li	tp,8
    12d0:	0041                	c.nop	16
    12d2:	0000                	c.unimp
    12d4:	9102                	c.jalr	sp
    12d6:	1764                	c.addi4spn	s1,sp,940
    12d8:	3261                	c.jal	0xc60 <outbyte+0x28>
    12da:	0100                	c.addi4spn	s0,sp,128
    12dc:	4b21                	c.li	s6,8
    12de:	0041                	c.nop	16
    12e0:	0000                	c.unimp
    12e2:	9102                	c.jalr	sp
    12e4:	1760                	c.addi4spn	s0,sp,940
    12e6:	3361                	c.jal	0x106e <printi+0xea>
    12e8:	0100                	c.addi4spn	s0,sp,128
    12ea:	5421                	c.li	s0,-24
    12ec:	0041                	c.nop	16
    12ee:	0000                	c.unimp
    12f0:	9102                	c.jalr	sp
    12f2:	005c                	c.addi4spn	a5,sp,4
    12f4:	9719                	c.srai	a4,0x26
    12f6:	0019                	c.nop	6
    12f8:	0100                	c.addi4spn	s0,sp,128
    12fa:	04941c1b          	.4byte	0x4941c1b
    12fe:	0000                	c.unimp
    1300:	000c                	.2byte	0xc
    1302:	0000                	c.unimp
    1304:	9c01                	.2byte	0x9c01
    1306:	2119                	c.jal	0x170c <__clzsi2+0x5c>
    1308:	0016                	c.slli	zero,0x5
    130a:	0100                	c.addi4spn	s0,sp,128
    130c:	1c15                	c.addi	s8,-27
    130e:	0484                	c.addi4spn	s1,sp,576
    1310:	0000                	c.unimp
    1312:	0010                	.2byte	0x10
    1314:	0000                	c.unimp
    1316:	9c01                	.2byte	0x9c01
    1318:	431a                	c.lwsp	t1,132(sp)
    131a:	000e                	c.slli	zero,0x3
    131c:	0300                	c.addi4spn	s0,sp,384
    131e:	33c4                	.2byte	0x33c4
    1320:	000e7403          	.4byte	0xe7403
    1324:	1b00                	c.addi4spn	s0,sp,432
    1326:	1f18                	c.addi4spn	a4,sp,944
    1328:	0000                	c.unimp
    132a:	6462c403          	lbu	s0,1606(t0)
    132e:	0000                	c.unimp
    1330:	1c00                	c.addi4spn	s0,sp,560
    1332:	0000082b          	shgp	zero,16 # 0x24a8 <__global_pointer$+0x10>
    1336:	6410c603          	lbu	a2,1601(ra)
    133a:	0000                	c.unimp
    133c:	1c00                	c.addi4spn	s0,sp,560
    133e:	047e                	c.slli	s0,0x1f
    1340:	0000                	c.unimp
    1342:	741ac703          	lbu	a4,1857(s5)
    1346:	000e                	c.slli	zero,0x3
    1348:	0000                	c.unimp
    134a:	0405                	c.addi	s0,1
    134c:	0000006b          	.4byte	0x6b
    1350:	651d                	c.lui	a0,0x7
    1352:	000e                	c.slli	zero,0x3
    1354:	0300                	c.addi4spn	s0,sp,384
    1356:	3b6c                	.2byte	0x3b6c
    1358:	0064                	c.addi4spn	s1,sp,12
    135a:	0000                	c.unimp
    135c:	000ea403          	lw	s0,0(t4)
    1360:	1c00                	c.addi4spn	s0,sp,560
    1362:	0000082b          	shgp	zero,16 # 0x24a8 <__global_pointer$+0x10>
    1366:	64106e03          	.4byte	0x64106e03
    136a:	0000                	c.unimp
    136c:	1c00                	c.addi4spn	s0,sp,560
    136e:	047e                	c.slli	s0,0x1f
    1370:	0000                	c.unimp
    1372:	741a6f03          	.4byte	0x741a6f03
    1376:	000e                	c.slli	zero,0x3
    1378:	0000                	c.unimp
    137a:	bb1e                	.2byte	0xbb1e
    137c:	0000                	c.unimp
    137e:	0200                	c.addi4spn	s0,sp,256
    1380:	150d                	c.addi	a0,-29 # 0x6fe3 <__global_pointer$+0x4b4b>
    1382:	0064                	c.addi4spn	s1,sp,12
    1384:	0000                	c.unimp
    1386:	0410                	c.addi4spn	a2,sp,512
    1388:	0000                	c.unimp
    138a:	0074                	c.addi4spn	a3,sp,12
    138c:	0000                	c.unimp
    138e:	9c01                	.2byte	0x9c01
    1390:	0f04                	c.addi4spn	s1,sp,912
    1392:	0000                	c.unimp
    1394:	02006117          	auipc	sp,0x2006
    1398:	2e0d                	c.jal	0x16ca <__clzsi2+0x1a>
    139a:	0064                	c.addi4spn	s1,sp,12
    139c:	0000                	c.unimp
    139e:	9102                	c.jalr	sp
    13a0:	1f6c                	c.addi4spn	a1,sp,956
    13a2:	3062                	.2byte	0x3062
    13a4:	0200                	c.addi4spn	s0,sp,256
    13a6:	0064100f          	.4byte	0x64100f
    13aa:	0000                	c.unimp
    13ac:	9102                	c.jalr	sp
    13ae:	1f7c                	c.addi4spn	a5,sp,956
    13b0:	3162                	.2byte	0x3162
    13b2:	0200                	c.addi4spn	s0,sp,256
    13b4:	1010                	c.addi4spn	a2,sp,32
    13b6:	0064                	c.addi4spn	s1,sp,12
    13b8:	0000                	c.unimp
    13ba:	9102                	c.jalr	sp
    13bc:	1f78                	c.addi4spn	a4,sp,956
    13be:	3262                	.2byte	0x3262
    13c0:	0200                	c.addi4spn	s0,sp,256
    13c2:	1011                	c.nop	-28
    13c4:	0064                	c.addi4spn	s1,sp,12
    13c6:	0000                	c.unimp
    13c8:	9102                	c.jalr	sp
    13ca:	1f74                	c.addi4spn	a3,sp,956
    13cc:	3362                	.2byte	0x3362
    13ce:	0200                	c.addi4spn	s0,sp,256
    13d0:	1012                	c.slli	zero,0x24
    13d2:	0064                	c.addi4spn	s1,sp,12
    13d4:	0000                	c.unimp
    13d6:	9102                	c.jalr	sp
    13d8:	0070                	c.addi4spn	a2,sp,12
    13da:	0020                	c.addi4spn	s0,sp,8
    13dc:	0000                	c.unimp
    13de:	0200                	c.addi4spn	s0,sp,256
    13e0:	00641507          	.4byte	0x641507
    13e4:	0000                	c.unimp
    13e6:	03cc                	c.addi4spn	a1,sp,452
    13e8:	0000                	c.unimp
    13ea:	0044                	c.addi4spn	s1,sp,4
    13ec:	0000                	c.unimp
    13ee:	9c01                	.2byte	0x9c01
    13f0:	6c617617          	auipc	a2,0x6c617
    13f4:	0200                	c.addi4spn	s0,sp,256
    13f6:	00642e07          	.4byte	0x642e07
    13fa:	0000                	c.unimp
    13fc:	9102                	c.jalr	sp
    13fe:	176c                	c.addi4spn	a1,sp,940
    1400:	6f72                	.2byte	0x6f72
    1402:	0072                	c.slli	zero,0x1c
    1404:	0702                	c.slli64	a4
    1406:	6440                	.2byte	0x6440
    1408:	0000                	c.unimp
    140a:	0200                	c.addi4spn	s0,sp,256
    140c:	6891                	c.lui	a7,0x4
    140e:	0710                	c.addi4spn	a2,sp,896
    1410:	0000                	c.unimp
    1412:	0200                	c.addi4spn	s0,sp,256
    1414:	1009                	c.nop	-30
    1416:	0064                	c.addi4spn	s1,sp,12
    1418:	0000                	c.unimp
    141a:	9102                	c.jalr	sp
    141c:	007c                	c.addi4spn	a5,sp,12
    141e:	1f00                	c.addi4spn	s0,sp,944
    1420:	0000                	c.unimp
    1422:	0400                	c.addi4spn	s0,sp,512
    1424:	0900                	c.addi4spn	s0,sp,144
    1426:	0004                	.2byte	0x4
    1428:	0400                	c.addi4spn	s0,sp,512
    142a:	ff01                	c.bnez	a4,0x1342 <print+0x292>
    142c:	0006                	c.slli	zero,0x1
    142e:	0000                	c.unimp
    1430:	0000                	c.unimp
    1432:	4000                	c.lw	s0,0(s0)
    1434:	1d7a                	c.slli	s10,0x3e
    1436:	0000                	c.unimp
    1438:	0150                	c.addi4spn	a2,sp,132
    143a:	0000                	c.unimp
    143c:	1d8c                	c.addi4spn	a1,sp,752
    143e:	0000                	c.unimp
    1440:	8001                	c.srli64	s0
    1442:	0fce                	c.slli	t6,0x13
    1444:	0000                	c.unimp
    1446:	0004                	.2byte	0x4
    1448:	041d                	c.addi	s0,7
    144a:	0000                	c.unimp
    144c:	0104                	c.addi4spn	s1,sp,128
    144e:	000001bb          	.4byte	0x1bb
    1452:	f40c                	.2byte	0xf40c
    1454:	001d                	c.nop	7
    1456:	5000                	c.lw	s0,32(s0)
    1458:	0001                	c.nop
    145a:	2400                	.2byte	0x2400
    145c:	a8000007          	.4byte	0xa8000007
    1460:	0001                	c.nop
    1462:	7e00                	.2byte	0x7e00
    1464:	02000007          	.4byte	0x2000007
    1468:	19b6                	c.slli	s3,0x2d
    146a:	0000                	c.unimp
    146c:	0c4c0407          	.4byte	0xc4c0407
    1470:	0000                	c.unimp
    1472:	1602                	c.slli	a2,0x20
    1474:	4c06                	c.lwsp	s8,64(sp)
    1476:	000c                	.2byte	0xc
    1478:	0300                	c.addi4spn	s0,sp,384
    147a:	00000fc3          	.4byte	0xfc3
    147e:	0300                	c.addi4spn	s0,sp,384
    1480:	1310                	c.addi4spn	a2,sp,416
    1482:	0000                	c.unimp
    1484:	0304                	c.addi4spn	s1,sp,384
    1486:	1281                	c.addi	t0,-32
    1488:	0000                	c.unimp
    148a:	0305                	c.addi	t1,1
    148c:	0000150b          	addigp	a0,0 # 0x2498 <__global_pointer$>
    1490:	0340                	c.addi4spn	s0,sp,388
    1492:	079c                	c.addi4spn	a5,sp,960
    1494:	0000                	c.unimp
    1496:	0341                	c.addi	t1,16
    1498:	185c                	c.addi4spn	a5,sp,52
    149a:	0000                	c.unimp
    149c:	0342                	c.slli	t1,0x10
    149e:	00000df3          	.4byte	0xdf3
    14a2:	08bf0343          	.4byte	0x8bf0343
    14a6:	0000                	c.unimp
    14a8:	13af0343          	.4byte	0x13af0343
    14ac:	0000                	c.unimp
    14ae:	0344                	c.addi4spn	s1,sp,388
    14b0:	12bc                	c.addi4spn	a5,sp,360
    14b2:	0000                	c.unimp
    14b4:	0301                	c.addi	t1,0
    14b6:	1a91                	c.addi	s5,-28
    14b8:	0000                	c.unimp
    14ba:	0302                	c.slli64	t1
    14bc:	00000973          	.4byte	0x973
    14c0:	032c0403          	lb	s0,50(s8)
    14c4:	0000                	c.unimp
    14c6:	0c00                	c.addi4spn	s0,sp,528
    14c8:	ed04                	.2byte	0xed04
    14ca:	000a                	c.slli	zero,0x2
    14cc:	0100                	c.addi4spn	s0,sp,128
    14ce:	040c                	c.addi4spn	a1,sp,512
    14d0:	03a5                	c.addi	t2,9
    14d2:	0000                	c.unimp
    14d4:	0c02                	c.slli64	s8
    14d6:	fc04                	.2byte	0xfc04
    14d8:	0006                	c.slli	zero,0x1
    14da:	0300                	c.addi4spn	s0,sp,384
    14dc:	040c                	c.addi4spn	a1,sp,512
    14de:	070c                	c.addi4spn	a1,sp,896
    14e0:	0000                	c.unimp
    14e2:	0c04                	c.addi4spn	s1,sp,528
    14e4:	1c04                	c.addi4spn	s1,sp,560
    14e6:	05000007          	.4byte	0x5000007
    14ea:	040c                	c.addi4spn	a1,sp,512
    14ec:	072c                	c.addi4spn	a1,sp,904
    14ee:	0000                	c.unimp
    14f0:	0c06                	c.slli	s8,0x1
    14f2:	3c04                	.2byte	0x3c04
    14f4:	07000007          	.4byte	0x7000007
    14f8:	040c                	c.addi4spn	a1,sp,512
    14fa:	074c                	c.addi4spn	a1,sp,900
    14fc:	0000                	c.unimp
    14fe:	0c08                	c.addi4spn	a0,sp,528
    1500:	5c04                	c.lw	s1,56(s0)
    1502:	09000007          	.4byte	0x9000007
    1506:	040c                	c.addi4spn	a1,sp,512
    1508:	0000050b          	lbgp	a0,0 # 0x2498 <__global_pointer$>
    150c:	0c0a                	c.slli	s8,0x2
    150e:	1c04                	c.addi4spn	s1,sp,560
    1510:	0005                	c.nop	1
    1512:	0b00                	c.addi4spn	s0,sp,400
    1514:	040c                	c.addi4spn	a1,sp,512
    1516:	052d                	c.addi	a0,11
    1518:	0000                	c.unimp
    151a:	0c0c                	c.addi4spn	a1,sp,528
    151c:	3e04                	.2byte	0x3e04
    151e:	0005                	c.nop	1
    1520:	0d00                	c.addi4spn	s0,sp,656
    1522:	040c                	c.addi4spn	a1,sp,512
    1524:	0000054f          	.4byte	0x54f
    1528:	0c0e                	c.slli	s8,0x3
    152a:	6004                	.2byte	0x6004
    152c:	0005                	c.nop	1
    152e:	0f00                	c.addi4spn	s0,sp,912
    1530:	040c                	c.addi4spn	a1,sp,512
    1532:	0571                	c.addi	a0,28
    1534:	0000                	c.unimp
    1536:	0c10                	c.addi4spn	a2,sp,528
    1538:	8204                	exec.it	#72     !
    153a:	0005                	c.nop	1
    153c:	1100                	c.addi4spn	s0,sp,160
    153e:	040c                	c.addi4spn	a1,sp,512
    1540:	00000593          	li	a1,0
    1544:	0c12                	c.slli	s8,0x4
    1546:	a404                	.2byte	0xa404
    1548:	0005                	c.nop	1
    154a:	1300                	c.addi4spn	s0,sp,416
    154c:	040c                	c.addi4spn	a1,sp,512
    154e:	0000060f          	.4byte	0x60f
    1552:	0c14                	c.addi4spn	a3,sp,528
    1554:	2004                	.2byte	0x2004
    1556:	0006                	c.slli	zero,0x1
    1558:	1500                	c.addi4spn	s0,sp,672
    155a:	040c                	c.addi4spn	a1,sp,512
    155c:	0631                	c.addi	a2,12 # 0x6c6183fc <loader+0x5c7183fc>
    155e:	0000                	c.unimp
    1560:	0c16                	c.slli	s8,0x5
    1562:	4204                	c.lw	s1,0(a2)
    1564:	0006                	c.slli	zero,0x1
    1566:	1700                	c.addi4spn	s0,sp,928
    1568:	040c                	c.addi4spn	a1,sp,512
    156a:	00000653          	.4byte	0x653
    156e:	0c18                	c.addi4spn	a4,sp,528
    1570:	d904                	c.sw	s1,48(a0)
    1572:	19000003          	lb	zero,400(zero) # 0x190 <amoswapw_func+0x3c>
    1576:	040c                	c.addi4spn	a1,sp,512
    1578:	0664                	c.addi4spn	s1,sp,780
    157a:	0000                	c.unimp
    157c:	0c1a                	c.slli	s8,0x6
    157e:	7504                	.2byte	0x7504
    1580:	0006                	c.slli	zero,0x1
    1582:	1b00                	c.addi4spn	s0,sp,432
    1584:	040c                	c.addi4spn	a1,sp,512
    1586:	0686                	c.slli	a3,0x1
    1588:	0000                	c.unimp
    158a:	0c1c                	c.addi4spn	a5,sp,528
    158c:	9704                	exec.it	#842     !
    158e:	0006                	c.slli	zero,0x1
    1590:	1d00                	c.addi4spn	s0,sp,688
    1592:	040c                	c.addi4spn	a1,sp,512
    1594:	076c                	c.addi4spn	a1,sp,908
    1596:	0000                	c.unimp
    1598:	0c1e                	c.slli	s8,0x7
    159a:	7d04                	.2byte	0x7d04
    159c:	1f000007          	.4byte	0x1f000007
    15a0:	040c                	c.addi4spn	a1,sp,512
    15a2:	04ed                	c.addi	s1,27 # 0xfffe401b <boot_loader+0x7ffe401b>
    15a4:	0000                	c.unimp
    15a6:	0c80                	c.addi4spn	s0,sp,592
    15a8:	4004                	c.lw	s1,0(s0)
    15aa:	8100000b          	lbgp	zero,-131056 # 0xfffe24a8 <boot_loader+0x7ffe24a8>
    15ae:	040c                	c.addi4spn	a1,sp,512
    15b0:	1714                	c.addi4spn	a3,sp,928
    15b2:	0000                	c.unimp
    15b4:	0c82                	c.slli64	s9
    15b6:	b404                	.2byte	0xb404
    15b8:	83000007          	.4byte	0x83000007
    15bc:	040c                	c.addi4spn	a1,sp,512
    15be:	0000083b          	.4byte	0x83b
    15c2:	0c84                	c.addi4spn	s1,sp,592
    15c4:	cc04                	c.sw	s1,24(s0)
    15c6:	0008                	.2byte	0x8
    15c8:	8500                	exec.it	#514     !
    15ca:	040c                	c.addi4spn	a1,sp,512
    15cc:	0000094f          	.4byte	0x94f
    15d0:	0c86                	c.slli	s9,0x1
    15d2:	b004                	.2byte	0xb004
    15d4:	0009                	c.nop	2
    15d6:	8700                	exec.it	#578     !
    15d8:	040c                	c.addi4spn	a1,sp,512
    15da:	00000a33          	add	s4,zero,zero
    15de:	0c88                	c.addi4spn	a0,sp,592
    15e0:	f604                	.2byte	0xf604
    15e2:	000a                	c.slli	zero,0x2
    15e4:	8900                	exec.it	#516     !
    15e6:	040c                	c.addi4spn	a1,sp,512
    15e8:	0bb5                	c.addi	s7,13
    15ea:	0000                	c.unimp
    15ec:	0c8a                	c.slli	s9,0x2
    15ee:	7e04                	.2byte	0x7e04
    15f0:	000c                	.2byte	0xc
    15f2:	8b00                	exec.it	#580     !
    15f4:	040c                	c.addi4spn	a1,sp,512
    15f6:	0de1                	c.addi	s11,24
    15f8:	0000                	c.unimp
    15fa:	0c8c                	c.addi4spn	a1,sp,592
    15fc:	4804                	c.lw	s1,16(s0)
    15fe:	8d00000f          	.4byte	0x8d00000f
    1602:	040c                	c.addi4spn	a1,sp,512
    1604:	1006                	c.slli	zero,0x21
    1606:	0000                	c.unimp
    1608:	0c8e                	c.slli	s9,0x3
    160a:	7e04                	.2byte	0x7e04
    160c:	0011                	c.nop	4
    160e:	8f00                	exec.it	#582     !
    1610:	040c                	c.addi4spn	a1,sp,512
    1612:	0000036b          	.4byte	0x36b
    1616:	0c90                	c.addi4spn	a2,sp,592
    1618:	2e04                	.2byte	0x2e04
    161a:	0014                	.2byte	0x14
    161c:	9100                	exec.it	#768     !
    161e:	040c                	c.addi4spn	a1,sp,512
    1620:	153e                	c.slli	a0,0x2f
    1622:	0000                	c.unimp
    1624:	0c92                	c.slli	s9,0x4
    1626:	4f04                	c.lw	s1,24(a4)
    1628:	0016                	c.slli	zero,0x5
    162a:	9300                	exec.it	#832     !
    162c:	040c                	c.addi4spn	a1,sp,512
    162e:	1334                	c.addi4spn	a3,sp,424
    1630:	0000                	c.unimp
    1632:	0c94                	c.addi4spn	a3,sp,592
    1634:	8604                	exec.it	#74     !
    1636:	0014                	.2byte	0x14
    1638:	9500                	exec.it	#770     !
    163a:	040c                	c.addi4spn	a1,sp,512
    163c:	1592                	c.slli	a1,0x24
    163e:	0000                	c.unimp
    1640:	0c96                	c.slli	s9,0x5
    1642:	ab04                	.2byte	0xab04
    1644:	0016                	c.slli	zero,0x5
    1646:	9700                	exec.it	#834     !
    1648:	040c                	c.addi4spn	a1,sp,512
    164a:	1746                	c.slli	a4,0x31
    164c:	0000                	c.unimp
    164e:	0c98                	c.addi4spn	a4,sp,592
    1650:	2804                	.2byte	0x2804
    1652:	0018                	.2byte	0x18
    1654:	9900                	exec.it	#772     !
    1656:	040c                	c.addi4spn	a1,sp,512
    1658:	18e4                	c.addi4spn	s1,sp,124
    165a:	0000                	c.unimp
    165c:	0c9a                	c.slli	s9,0x6
    165e:	8504                	exec.it	#522     !
    1660:	0019                	c.nop	6
    1662:	9b00                	exec.it	#836     !
    1664:	040c                	c.addi4spn	a1,sp,512
    1666:	1a60                	c.addi4spn	s0,sp,316
    1668:	0000                	c.unimp
    166a:	0c9c                	c.addi4spn	a5,sp,592
    166c:	3704                	.2byte	0x3704
    166e:	9d00001b          	.4byte	0x9d00001b
    1672:	040c                	c.addi4spn	a1,sp,512
    1674:	18f6                	c.slli	a7,0x3d
    1676:	0000                	c.unimp
    1678:	0c9e                	c.slli	s9,0x7
    167a:	a404                	.2byte	0xa404
    167c:	0019                	c.nop	6
    167e:	9f00                	exec.it	#838     !
    1680:	040c                	c.addi4spn	a1,sp,512
    1682:	00000c33          	add	s8,zero,zero
    1686:	0100                	c.addi4spn	s0,sp,128
    1688:	4a04                	c.lw	s1,16(a2)
    168a:	0200000b          	lbgp	zero,32 # 0x24b8 <__global_pointer$+0x20>
    168e:	0401                	c.addi	s0,0
    1690:	14f0                	c.addi4spn	a2,sp,620
    1692:	0000                	c.unimp
    1694:	23040103          	lb	sp,560(s0)
    1698:	0008                	.2byte	0x8
    169a:	0400                	c.addi4spn	s0,sp,512
    169c:	0401                	c.addi	s0,0
    169e:	1b49                	c.addi	s6,-14
    16a0:	0000                	c.unimp
    16a2:	0105                	c.addi	sp,1 # 0x2007395 <__global_pointer$+0x2004efd>
    16a4:	fe04                	.2byte	0xfe04
    16a6:	0009                	c.nop	2
    16a8:	0600                	c.addi4spn	s0,sp,768
    16aa:	0401                	c.addi	s0,0
    16ac:	05de                	c.slli	a1,0x17
    16ae:	0000                	c.unimp
    16b0:	010a                	c.slli	sp,0x2
    16b2:	0d04                	c.addi4spn	s1,sp,656
    16b4:	0c00001b          	.4byte	0xc00001b
    16b8:	0401                	c.addi	s0,0
    16ba:	00001b1b          	.4byte	0x1b1b
    16be:	010d                	c.addi	sp,3
    16c0:	2904                	.2byte	0x2904
    16c2:	0e00001b          	.4byte	0xe00001b
    16c6:	0401                	c.addi	s0,0
    16c8:	0adf 0000 010f      	.byte	0xdf, 0x0a, 0x00, 0x00, 0x0f, 0x01
    16ce:	3304                	.2byte	0x3304
    16d0:	4000000b          	lbgp	zero,1024 # 0x2898 <__global_pointer$+0x400>
    16d4:	0401                	c.addi	s0,0
    16d6:	0a8c                	c.addi4spn	a1,sp,336
    16d8:	0000                	c.unimp
    16da:	0141                	c.addi	sp,16
    16dc:	9304                	exec.it	#840     !
    16de:	0008                	.2byte	0x8
    16e0:	4200                	c.lw	s0,0(a2)
    16e2:	0401                	c.addi	s0,0
    16e4:	097c                	c.addi4spn	a5,sp,156
    16e6:	0000                	c.unimp
    16e8:	c2040143          	.4byte	0xc2040143
    16ec:	0014                	.2byte	0x14
    16ee:	4300                	c.lw	s0,0(a4)
    16f0:	0401                	c.addi	s0,0
    16f2:	0859                	c.addi	a6,22
    16f4:	0000                	c.unimp
    16f6:	0144                	c.addi4spn	s1,sp,132
    16f8:	8104                	exec.it	#520     !
    16fa:	000e                	c.slli	zero,0x3
    16fc:	8000                	exec.it	#0     !
    16fe:	0401                	c.addi	s0,0
    1700:	0b7a                	c.slli	s6,0x1e
    1702:	0000                	c.unimp
    1704:	0180                	c.addi4spn	s0,sp,192
    1706:	7204                	.2byte	0x7204
    1708:	001a                	c.slli	zero,0x6
    170a:	a000                	.2byte	0xa000
    170c:	040d                	c.addi	s0,3
    170e:	16bd                	c.addi	a3,-17 # 0x679 <trap_entry+0x155>
    1710:	0000                	c.unimp
    1712:	0f11                	c.addi	t5,4
    1714:	7504                	.2byte	0x7504
    1716:	0012                	c.slli	zero,0x4
    1718:	1200                	c.addi4spn	s0,sp,288
    171a:	160c040f          	.4byte	0x160c040f
    171e:	0000                	c.unimp
    1720:	c0040f13          	addi	t5,s0,-1024
    1724:	14000017          	auipc	zero,0x14000
    1728:	1d2b040f          	.4byte	0x1d2b040f
    172c:	0000                	c.unimp
    172e:	0f15                	c.addi	t5,5
    1730:	fa04                	.2byte	0xfa04
    1732:	0005                	c.nop	1
    1734:	0000                	c.unimp
    1736:	03c30403          	lb	s0,60(t1)
    173a:	0000                	c.unimp
    173c:	0301                	c.addi	t1,0
    173e:	dd04                	c.sw	s1,56(a0)
    1740:	0008                	.2byte	0x8
    1742:	0200                	c.addi4spn	s0,sp,256
    1744:	18090403          	lb	s0,384(s2)
    1748:	0000                	c.unimp
    174a:	24040303          	lb	t1,576(s0)
    174e:	04000003          	lb	zero,64(zero) # 0x40 <__nds__rotr>
    1752:	0f7d0403          	lb	s0,247(s10)
    1756:	0000                	c.unimp
    1758:	0305                	c.addi	t1,1
    175a:	ed04                	.2byte	0xed04
    175c:	0600000b          	lbgp	zero,96 # 0x24f8 <__global_pointer$+0x60>
    1760:	08f60403          	lb	s0,143(a2)
    1764:	0000                	c.unimp
    1766:	0340                	c.addi4spn	s0,sp,388
    1768:	0604                	c.addi4spn	s1,sp,768
    176a:	0006                	c.slli	zero,0x1
    176c:	4100                	c.lw	s0,0(a0)
    176e:	1ac60403          	lb	s0,428(a2)
    1772:	0000                	c.unimp
    1774:	0342                	c.slli	t1,0x10
    1776:	5604                	c.lw	s1,40(a2)
    1778:	4300000b          	lbgp	zero,1072 # 0x28c8 <__global_pointer$+0x430>
    177c:	03360403          	lb	s0,51(a2)
    1780:	0000                	c.unimp
    1782:	0344                	c.addi4spn	s1,sp,388
    1784:	d404                	c.sw	s1,40(s0)
    1786:	000e                	c.slli	zero,0x3
    1788:	0a00                	c.addi4spn	s0,sp,272
    178a:	03170403          	lb	s0,49(a4)
    178e:	0000                	c.unimp
    1790:	031a                	c.slli	t1,0x6
    1792:	7704                	.2byte	0x7704
    1794:	0008                	.2byte	0x8
    1796:	4700                	c.lw	s0,8(a4)
    1798:	0cb30407          	.4byte	0xcb30407
    179c:	0000                	c.unimp
    179e:	df040757          	.4byte	0xdf040757
    17a2:	0011                	c.nop	4
    17a4:	0c00                	c.addi4spn	s0,sp,528
    17a6:	11ed0403          	lb	s0,286(s10)
    17aa:	0000                	c.unimp
    17ac:	030d                	c.addi	t1,3
    17ae:	fb04                	.2byte	0xfb04
    17b0:	0011                	c.nop	4
    17b2:	0e00                	c.addi4spn	s0,sp,784
    17b4:	12090403          	lb	s0,288(s2)
    17b8:	0000                	c.unimp
    17ba:	3a04030f          	.4byte	0x3a04030f
    17be:	001d                	c.nop	7
    17c0:	1c00                	c.addi4spn	s0,sp,560
    17c2:	034b0403          	lb	s0,52(s6)
    17c6:	0000                	c.unimp
    17c8:	031d                	c.addi	t1,7
    17ca:	6304                	.2byte	0x6304
    17cc:	0004                	.2byte	0x4
    17ce:	1e00                	c.addi4spn	s0,sp,816
    17d0:	04c10403          	lb	s0,76(sp)
    17d4:	0000                	c.unimp
    17d6:	031f 0f04 0009      	.byte	0x1f, 0x03, 0x04, 0x0f, 0x09, 0x00
    17dc:	a000                	.2byte	0xa000
    17de:	09270403          	lb	s0,146(a4)
    17e2:	0000                	c.unimp
    17e4:	03a2                	c.slli	t2,0x8
    17e6:	1b04                	c.addi4spn	s1,sp,432
    17e8:	0009                	c.nop	2
    17ea:	a100                	.2byte	0xa100
    17ec:	09330403          	lb	s0,147(t1)
    17f0:	0000                	c.unimp
    17f2:	cc0403a3          	sb	zero,-825(s0)
    17f6:	0010                	.2byte	0x10
    17f8:	b000                	.2byte	0xb000
    17fa:	10d90403          	lb	s0,269(s2)
    17fe:	0000                	c.unimp
    1800:	03b1                	c.addi	t2,12
    1802:	e604                	.2byte	0xe604
    1804:	0010                	.2byte	0x10
    1806:	b200                	.2byte	0xb200
    1808:	10f30403          	lb	s0,271(t1)
    180c:	0000                	c.unimp
    180e:	000403b3          	add	t2,s0,zero
    1812:	0011                	c.nop	4
    1814:	b400                	.2byte	0xb400
    1816:	110d0403          	lb	s0,272(s10)
    181a:	0000                	c.unimp
    181c:	03b5                	c.addi	t2,13
    181e:	1a04                	c.addi4spn	s1,sp,304
    1820:	0011                	c.nop	4
    1822:	b600                	.2byte	0xb600
    1824:	11270403          	lb	s0,274(a4)
    1828:	0000                	c.unimp
    182a:	340403b7          	lui	t2,0x34040
    182e:	0011                	c.nop	4
    1830:	b800                	.2byte	0xb800
    1832:	11410403          	lb	s0,276(sp)
    1836:	0000                	c.unimp
    1838:	03b9                	c.addi	t2,14 # 0x3404000e <loader+0x2414000e>
    183a:	1804                	c.addi4spn	s1,sp,48
    183c:	0010                	.2byte	0x10
    183e:	ba00                	.2byte	0xba00
    1840:	10260403          	lb	s0,258(a2)
    1844:	0000                	c.unimp
    1846:	340403bb          	.4byte	0x340403bb
    184a:	0010                	.2byte	0x10
    184c:	bc00                	.2byte	0xbc00
    184e:	10420403          	lb	s0,260(tp) # 0x104 <NDS_SAG_LMA_MEM+0x4>
    1852:	0000                	c.unimp
    1854:	03bd                	c.addi	t2,15
    1856:	5004                	c.lw	s1,32(s0)
    1858:	0010                	.2byte	0x10
    185a:	be00                	.2byte	0xbe00
    185c:	08b10403          	lb	s0,139(sp)
    1860:	0000                	c.unimp
    1862:	5e0403bf c0000010 	.8byte	0xc00000105e0403bf
    186a:	106c0403          	lb	s0,262(s8)
    186e:	0000                	c.unimp
    1870:	03c1                	c.addi	t2,16
    1872:	7a04                	.2byte	0x7a04
    1874:	0010                	.2byte	0x10
    1876:	c200                	c.sw	s0,0(a2)
    1878:	10880403          	lb	s0,264(a6)
    187c:	0000                	c.unimp
    187e:	990403c3          	.4byte	0x990403c3
    1882:	0011                	c.nop	4
    1884:	c400                	c.sw	s0,8(s0)
    1886:	11a70403          	lb	s0,282(a4)
    188a:	0000                	c.unimp
    188c:	03c5                	c.addi	t2,17
    188e:	b504                	.2byte	0xb504
    1890:	0011                	c.nop	4
    1892:	c600                	c.sw	s0,8(a2)
    1894:	11c30403          	lb	s0,284(t1)
    1898:	0000                	c.unimp
    189a:	d10403c7          	.4byte	0xd10403c7
    189e:	0011                	c.nop	4
    18a0:	c800                	c.sw	s0,16(s0)
    18a2:	09860403          	lb	s0,152(a2)
    18a6:	0000                	c.unimp
    18a8:	03c9                	c.addi	t2,18
    18aa:	9404                	exec.it	#266     !
    18ac:	0009                	c.nop	2
    18ae:	ca00                	c.sw	s0,16(a2)
    18b0:	09a20403          	lb	s0,154(tp) # 0x9a <__nds__wsbh+0x16>
    18b4:	0000                	c.unimp
    18b6:	450403cb          	.4byte	0x450403cb
    18ba:	0004                	.2byte	0x4
    18bc:	cc00                	c.sw	s0,24(s0)
    18be:	12170403          	lb	s0,289(a4)
    18c2:	0000                	c.unimp
    18c4:	03cd                	c.addi	t2,19
    18c6:	f404                	.2byte	0xf404
    18c8:	0012                	c.slli	zero,0x4
    18ca:	ce00                	c.sw	s0,24(a2)
    18cc:	13020403          	lb	s0,304(tp) # 0x130 <NDS_SAG_LMA_MEM+0x30>
    18d0:	0000                	c.unimp
    18d2:	c30403cf          	.4byte	0xc30403cf
    18d6:	000a                	c.slli	zero,0x2
    18d8:	d000                	c.sw	s0,32(s0)
    18da:	13180403          	lb	s0,305(a6)
    18de:	0000                	c.unimp
    18e0:	03d1                	c.addi	t2,20
    18e2:	2604                	.2byte	0x2604
    18e4:	d2000013          	li	zero,-736
    18e8:	0ad10403          	lb	s0,173(sp)
    18ec:	0000                	c.unimp
    18ee:	460403d3          	.4byte	0x460403d3
    18f2:	d4000013          	li	zero,-704
    18f6:	13540403          	lb	s0,309(s0)
    18fa:	0000                	c.unimp
    18fc:	03d5                	c.addi	t2,21
    18fe:	6204                	.2byte	0x6204
    1900:	d6000013          	li	zero,-672
    1904:	13700403          	lb	s0,311(zero) # 0x137 <NDS_SAG_LMA_MEM+0x37>
    1908:	0000                	c.unimp
    190a:	400403d7          	.4byte	0x400403d7
    190e:	0014                	.2byte	0x14
    1910:	d800                	c.sw	s0,48(s0)
    1912:	144e0403          	lb	s0,324(t3) # 0x10073f2 <__global_pointer$+0x1004f5a>
    1916:	0000                	c.unimp
    1918:	03d9                	c.addi	t2,22
    191a:	5c04                	c.lw	s1,56(s0)
    191c:	0014                	.2byte	0x14
    191e:	da00                	c.sw	s0,48(a2)
    1920:	146a0403          	lb	s0,326(s4)
    1924:	0000                	c.unimp
    1926:	780403db          	.4byte	0x780403db
    192a:	0014                	.2byte	0x14
    192c:	dc00                	c.sw	s0,56(s0)
    192e:	0c4f0403          	lb	s0,196(t5)
    1932:	0000                	c.unimp
    1934:	03dd                	c.addi	t2,23
    1936:	9804                	exec.it	#268     !
    1938:	0014                	.2byte	0x14
    193a:	de00                	c.sw	s0,56(a2)
    193c:	14a60403          	lb	s0,330(a2)
    1940:	0000                	c.unimp
    1942:	03df b404 0014      	.byte	0xdf, 0x03, 0x04, 0xb4, 0x14, 0x00
    1948:	e000                	.2byte	0xe000
    194a:	0c700403          	lb	s0,199(zero) # 0xc7 <__nds__wsbh+0x43>
    194e:	0000                	c.unimp
    1950:	03e1                	c.addi	t2,24
    1952:	5a04                	c.lw	s1,48(a2)
    1954:	0015                	c.nop	5
    1956:	e200                	.2byte	0xe200
    1958:	15680403          	lb	s0,342(a6)
    195c:	0000                	c.unimp
    195e:	760403e3          	beqz	s0,0x28c4 <__global_pointer$+0x42c>
    1962:	0015                	c.nop	5
    1964:	e400                	.2byte	0xe400
    1966:	15840403          	lb	s0,344(s0)
    196a:	0000                	c.unimp
    196c:	03e5                	c.addi	t2,25
    196e:	c604                	c.sw	s1,8(a2)
    1970:	000e                	c.slli	zero,0x3
    1972:	e600                	.2byte	0xe600
    1974:	0ee00403          	lb	s0,238(zero) # 0xee <__loader_lmaend+0x2>
    1978:	0000                	c.unimp
    197a:	a40403e7          	jalr	t2,-1472(s0)
    197e:	0015                	c.nop	5
    1980:	e800                	.2byte	0xe800
    1982:	15b20403          	lb	s0,347(tp) # 0x15b <amoswapw_func+0x7>
    1986:	0000                	c.unimp
    1988:	03e9                	c.addi	t2,26
    198a:	c004                	c.sw	s1,0(s0)
    198c:	0015                	c.nop	5
    198e:	ea00                	.2byte	0xea00
    1990:	15ce0403          	lb	s0,348(t3)
    1994:	0000                	c.unimp
    1996:	610403eb          	.4byte	0x610403eb
    199a:	0016                	c.slli	zero,0x5
    199c:	ec00                	.2byte	0xec00
    199e:	166f0403          	lb	s0,358(t5)
    19a2:	0000                	c.unimp
    19a4:	03ed                	c.addi	t2,27
    19a6:	7d04                	.2byte	0x7d04
    19a8:	0016                	c.slli	zero,0x5
    19aa:	ee00                	.2byte	0xee00
    19ac:	168b0403          	lb	s0,360(s6)
    19b0:	0000                	c.unimp
    19b2:	f10403ef          	jal	t2,0xfff420c2 <boot_loader+0x7ff420c2>
    19b6:	0006                	c.slli	zero,0x1
    19b8:	0000                	c.unimp
    19ba:	128b040b          	lbgp	s0,86312 # 0x175c0 <__global_pointer$+0x15128>
    19be:	0000                	c.unimp
    19c0:	0b02                	c.slli64	s6
    19c2:	4004                	c.lw	s1,0(s0)
    19c4:	000d                	c.nop	3
    19c6:	0300                	c.addi4spn	s0,sp,384
    19c8:	0d51040b          	lbgp	s0,67796 # 0x12d6c <__global_pointer$+0x108d4>
    19cc:	0000                	c.unimp
    19ce:	0b04                	c.addi4spn	s1,sp,400
    19d0:	6204                	.2byte	0x6204
    19d2:	000d                	c.nop	3
    19d4:	0500                	c.addi4spn	s0,sp,640
    19d6:	0d73040b          	lbgp	s0,71894 # 0x13d6e <__global_pointer$+0x118d6>
    19da:	0000                	c.unimp
    19dc:	0b06                	c.slli	s6,0x1
    19de:	8404                	exec.it	#10     !
    19e0:	000d                	c.nop	3
    19e2:	0700                	c.addi4spn	s0,sp,896
    19e4:	0d95040b          	lbgp	s0,75992 # 0x14d70 <__global_pointer$+0x128d8>
    19e8:	0000                	c.unimp
    19ea:	0b08                	c.addi4spn	a0,sp,400
    19ec:	a604                	.2byte	0xa604
    19ee:	000d                	c.nop	3
    19f0:	0900                	c.addi4spn	s0,sp,144
    19f2:	0cf8040b          	lbgp	s0,18638 # 0x6d66 <__global_pointer$+0x48ce>
    19f6:	0000                	c.unimp
    19f8:	0b0a                	c.slli	s6,0x2
    19fa:	0a04                	c.addi4spn	s1,sp,272
    19fc:	000d                	c.nop	3
    19fe:	0b00                	c.addi4spn	s0,sp,400
    1a00:	0d1c040b          	lbgp	s0,26832 # 0x8d68 <__global_pointer$+0x68d0>
    1a04:	0000                	c.unimp
    1a06:	0b0c                	c.addi4spn	a1,sp,400
    1a08:	2e04                	.2byte	0x2e04
    1a0a:	000d                	c.nop	3
    1a0c:	0d00                	c.addi4spn	s0,sp,656
    1a0e:	17ae040b          	lbgp	s0,29050 # 0x9612 <__global_pointer$+0x717a>
    1a12:	0000                	c.unimp
    1a14:	0b0e                	c.slli	s6,0x3
    1a16:	7e04                	.2byte	0x7e04
    1a18:	0f000013          	li	zero,240
    1a1c:	139d040b          	lbgp	s0,92472 # 0x18dd0 <__global_pointer$+0x16938>
    1a20:	0000                	c.unimp
    1a22:	0b10                	c.addi4spn	a2,sp,400
    1a24:	b704                	.2byte	0xb704
    1a26:	11000013          	li	zero,272
    1a2a:	13da040b          	lbgp	s0,22844 # 0x7dd4 <__global_pointer$+0x593c>
    1a2e:	0000                	c.unimp
    1a30:	0b12                	c.slli	s6,0x4
    1a32:	ec04                	.2byte	0xec04
    1a34:	13000013          	li	zero,304
    1a38:	0ea2040b          	lbgp	s0,4330 # 0x3582 <__global_pointer$+0x10ea>
    1a3c:	0000                	c.unimp
    1a3e:	0b14                	c.addi4spn	a3,sp,400
    1a40:	b404                	.2byte	0xb404
    1a42:	000e                	c.slli	zero,0x3
    1a44:	1500                	c.addi4spn	s0,sp,672
    1a46:	19f4040b          	lbgp	s0,10654 # 0x4e36 <__global_pointer$+0x299e>
    1a4a:	0000                	c.unimp
    1a4c:	0b16                	c.slli	s6,0x5
    1a4e:	0604                	c.addi4spn	s1,sp,768
    1a50:	001a                	c.slli	zero,0x6
    1a52:	1700                	c.addi4spn	s0,sp,928
    1a54:	1a18040b          	lbgp	s0,18848 # 0x6e38 <__global_pointer$+0x49a0>
    1a58:	0000                	c.unimp
    1a5a:	0b18                	c.addi4spn	a4,sp,400
    1a5c:	ee04                	.2byte	0xee04
    1a5e:	000e                	c.slli	zero,0x3
    1a60:	1900                	c.addi4spn	s0,sp,176
    1a62:	0f00040b          	lbgp	s0,240 # 0x2588 <__global_pointer$+0xf0>
    1a66:	0000                	c.unimp
    1a68:	0b1a                	c.slli	s6,0x6
    1a6a:	1204                	c.addi4spn	s1,sp,288
    1a6c:	1b00000f          	.4byte	0x1b00000f
    1a70:	0f24040b          	lbgp	s0,8434 # 0x458a <__global_pointer$+0x20f2>
    1a74:	0000                	c.unimp
    1a76:	0b1c                	c.addi4spn	a5,sp,400
    1a78:	3604                	.2byte	0x3604
    1a7a:	1d00000f          	.4byte	0x1d00000f
    1a7e:	0fcf040b          	lbgp	s0,94460 # 0x19594 <__global_pointer$+0x170fc>
    1a82:	0000                	c.unimp
    1a84:	0b1e                	c.slli	s6,0x7
    1a86:	e104                	.2byte	0xe104
    1a88:	1f00000f          	.4byte	0x1f00000f
    1a8c:	1775040b          	lbgp	s0,76150 # 0x14e0e <__global_pointer$+0x12976>
    1a90:	0000                	c.unimp
    1a92:	0b80                	c.addi4spn	s0,sp,464
    1a94:	b304                	.2byte	0xb304
    1a96:	0004                	.2byte	0x4
    1a98:	8200                	exec.it	#64     !
    1a9a:	17d7040b          	lbgp	s0,80252 # 0x15e14 <__global_pointer$+0x1397c>
    1a9e:	0000                	c.unimp
    1aa0:	3e040b83          	lb	s7,992(s0)
    1aa4:	0019                	c.nop	6
    1aa6:	8400                	exec.it	#2     !
    1aa8:	1adb040b          	lbgp	s0,88492 # 0x17e44 <__global_pointer$+0x159ac>
    1aac:	0000                	c.unimp
    1aae:	0b85                	c.addi	s7,1
    1ab0:	fe04                	.2byte	0xfe04
    1ab2:	001c                	.2byte	0x1c
    1ab4:	8600                	exec.it	#66     !
    1ab6:	03b1040b          	lbgp	s0,67642 # 0x12cd2 <__global_pointer$+0x1083a>
    1aba:	0000                	c.unimp
    1abc:	99040b87          	.4byte	0x99040b87
    1ac0:	0016                	c.slli	zero,0x5
    1ac2:	8800                	exec.it	#4     !
    1ac4:	1734040b          	lbgp	s0,10610 # 0x4e0a <__global_pointer$+0x2972>
    1ac8:	0000                	c.unimp
    1aca:	0b89                	c.addi	s7,2
    1acc:	ed04                	.2byte	0xed04
    1ace:	001a                	c.slli	zero,0x6
    1ad0:	8a00                	exec.it	#68     !
    1ad2:	0b84040b          	lbgp	s0,8376 # 0x4550 <__global_pointer$+0x20b8>
    1ad6:	0000                	c.unimp
    1ad8:	5d040b8b          	lbgp	s7,9680 # 0x4a68 <__global_pointer$+0x25d0>
    1adc:	000c                	.2byte	0xc
    1ade:	8c00                	exec.it	#6     !
    1ae0:	04f8040b          	lbgp	s0,18510 # 0x6ce6 <__global_pointer$+0x484e>
    1ae4:	0000                	c.unimp
    1ae6:	0b8d                	c.addi	s7,3
    1ae8:	1a04                	c.addi4spn	s1,sp,304
    1aea:	0019                	c.nop	6
    1aec:	8e00                	exec.it	#70     !
    1aee:	0ff3040b          	lbgp	s0,71934 # 0x13d96 <__global_pointer$+0x118fe>
    1af2:	0000                	c.unimp
    1af4:	4e040b8f          	.4byte	0x4e040b8f
    1af8:	0011                	c.nop	4
    1afa:	9000                	exec.it	#256     !
    1afc:	0a79040b          	lbgp	s0,84134 # 0x16d3e <__global_pointer$+0x148a6>
    1b00:	0000                	c.unimp
    1b02:	0b91                	c.addi	s7,4
    1b04:	0804                	c.addi4spn	s1,sp,16
    1b06:	0014                	.2byte	0x14
    1b08:	9200                	exec.it	#320     !
    1b0a:	1518040b          	lbgp	s0,18768 # 0x6de8 <__global_pointer$+0x4950>
    1b0e:	0000                	c.unimp
    1b10:	6b040b93          	addi	s7,s0,1712
    1b14:	0011                	c.nop	4
    1b16:	9400                	exec.it	#258     !
    1b18:	12a9040b          	lbgp	s0,82218 # 0x165c2 <__global_pointer$+0x1412a>
    1b1c:	0000                	c.unimp
    1b1e:	0b95                	c.addi	s7,5
    1b20:	1b04                	c.addi4spn	s1,sp,432
    1b22:	0014                	.2byte	0x14
    1b24:	9600                	exec.it	#322     !
    1b26:	152b040b          	lbgp	s0,86354 # 0x175ea <__global_pointer$+0x15152>
    1b2a:	0000                	c.unimp
    1b2c:	3c040b97          	auipc	s7,0x3c040
    1b30:	0016                	c.slli	zero,0x5
    1b32:	9800                	exec.it	#260     !
    1b34:	1721040b          	lbgp	s0,65906 # 0x1260a <__global_pointer$+0x10172>
    1b38:	0000                	c.unimp
    1b3a:	0b99                	c.addi	s7,6 # 0x3c041b32 <loader+0x2c141b32>
    1b3c:	f604                	.2byte	0xf604
    1b3e:	9a000017          	auipc	zero,0x9a000
    1b42:	18a2040b          	lbgp	s0,4490 # 0x3622 <__global_pointer$+0x118a>
    1b46:	0000                	c.unimp
    1b48:	57040b9b          	.4byte	0x57040b9b
    1b4c:	0019                	c.nop	6
    1b4e:	9c00                	exec.it	#262     !
    1b50:	1a37040b          	lbgp	s0,80290 # 0x15e3a <__global_pointer$+0x139a2>
    1b54:	0000                	c.unimp
    1b56:	0b9d                	c.addi	s7,7
    1b58:	1504                	c.addi4spn	s1,sp,672
    1b5a:	0018                	.2byte	0x18
    1b5c:	9e00                	exec.it	#326     !
    1b5e:	18d1040b          	lbgp	s0,67980 # 0x12e24 <__global_pointer$+0x1098c>
    1b62:	0000                	c.unimp
    1b64:	0b9f 9704 000b      	.byte	0x9f, 0x0b, 0x04, 0x97, 0x0b, 0x00
    1b6a:	2300                	.2byte	0x2300
    1b6c:	0ba60403          	lb	s0,186(a2)
    1b70:	0000                	c.unimp
    1b72:	0324                	c.addi4spn	s1,sp,392
    1b74:	c704                	c.sw	s1,8(a4)
    1b76:	0012                	c.slli	zero,0x4
    1b78:	2500                	.2byte	0x2500
    1b7a:	12d60403          	lb	s0,301(a2)
    1b7e:	0000                	c.unimp
    1b80:	0326                	c.slli	t1,0x9
    1b82:	e504                	.2byte	0xe504
    1b84:	0012                	c.slli	zero,0x4
    1b86:	2700                	.2byte	0x2700
    1b88:	0bc70403          	lb	s0,188(a4)
    1b8c:	0000                	c.unimp
    1b8e:	0328                	c.addi4spn	a0,sp,392
    1b90:	d604                	c.sw	s1,40(a2)
    1b92:	2900000b          	lbgp	zero,656 # 0x2728 <__global_pointer$+0x290>
    1b96:	1b530403          	lb	s0,437(t1)
    1b9a:	0000                	c.unimp
    1b9c:	032a                	c.slli	t1,0xa
    1b9e:	6304                	.2byte	0x6304
    1ba0:	2b00001b          	.4byte	0x2b00001b
    1ba4:	1b730403          	lb	s0,439(t1)
    1ba8:	0000                	c.unimp
    1baa:	032c                	c.addi4spn	a1,sp,392
    1bac:	8304                	exec.it	#584     !
    1bae:	2d00001b          	.4byte	0x2d00001b
    1bb2:	14cf0403          	lb	s0,332(t5)
    1bb6:	0000                	c.unimp
    1bb8:	032e                	c.slli	t1,0xb
    1bba:	9304                	exec.it	#840     !
    1bbc:	2f00001b          	.4byte	0x2f00001b
    1bc0:	1ba30403          	lb	s0,442(t1)
    1bc4:	0000                	c.unimp
    1bc6:	0330                	c.addi4spn	a2,sp,392
    1bc8:	b304                	.2byte	0xb304
    1bca:	3100001b          	.4byte	0x3100001b
    1bce:	1bc30403          	lb	s0,444(t1)
    1bd2:	0000                	c.unimp
    1bd4:	0332                	c.slli	t1,0xc
    1bd6:	d304                	c.sw	s1,32(a4)
    1bd8:	3300001b          	.4byte	0x3300001b
    1bdc:	1c4e0403          	lb	s0,452(t3)
    1be0:	0000                	c.unimp
    1be2:	0334                	c.addi4spn	a3,sp,392
    1be4:	5e04                	c.lw	s1,56(a2)
    1be6:	001c                	.2byte	0x1c
    1be8:	3500                	.2byte	0x3500
    1bea:	1c6e0403          	lb	s0,454(t3)
    1bee:	0000                	c.unimp
    1bf0:	0336                	c.slli	t1,0xd
    1bf2:	7e04                	.2byte	0x7e04
    1bf4:	001c                	.2byte	0x1c
    1bf6:	3700                	.2byte	0x3700
    1bf8:	1c8e0403          	lb	s0,456(t3)
    1bfc:	0000                	c.unimp
    1bfe:	0338                	c.addi4spn	a4,sp,392
    1c00:	9e04                	exec.it	#334     !
    1c02:	001c                	.2byte	0x1c
    1c04:	3900                	.2byte	0x3900
    1c06:	1cae0403          	lb	s0,458(t3)
    1c0a:	0000                	c.unimp
    1c0c:	033a                	c.slli	t1,0xe
    1c0e:	be04                	.2byte	0xbe04
    1c10:	001c                	.2byte	0x1c
    1c12:	3b00                	.2byte	0x3b00
    1c14:	1cce0403          	lb	s0,460(t3)
    1c18:	0000                	c.unimp
    1c1a:	033c                	c.addi4spn	a5,sp,392
    1c1c:	de04                	c.sw	s1,56(a2)
    1c1e:	001c                	.2byte	0x1c
    1c20:	3d00                	.2byte	0x3d00
    1c22:	1d490403          	lb	s0,468(s2)
    1c26:	0000                	c.unimp
    1c28:	033e                	c.slli	t1,0xf
    1c2a:	5904                	c.lw	s1,48(a0)
    1c2c:	001d                	c.nop	7
    1c2e:	3f00                	.2byte	0x3f00
    1c30:	03070403          	lb	s0,48(a4)
    1c34:	0000                	c.unimp
    1c36:	95040723          	sb	a6,-1714(s0)
    1c3a:	24000003          	lb	zero,576(zero) # 0x240 <amoandw_func+0x30>
    1c3e:	04960407          	.4byte	0x4960407
    1c42:	0000                	c.unimp
    1c44:	0725                	c.addi	a4,9
    1c46:	dd04                	c.sw	s1,56(a0)
    1c48:	0004                	.2byte	0x4
    1c4a:	2600                	.2byte	0x2600
    1c4c:	05ea0407          	.4byte	0x5ea0407
    1c50:	0000                	c.unimp
    1c52:	e1040727          	.4byte	0xe1040727
    1c56:	0006                	c.slli	zero,0x1
    1c58:	2800                	.2byte	0x2800
    1c5a:	07ca0407          	.4byte	0x7ca0407
    1c5e:	0000                	c.unimp
    1c60:	0729                	c.addi	a4,10
    1c62:	2304                	.2byte	0x2304
    1c64:	000e                	c.slli	zero,0x3
    1c66:	2a00                	.2byte	0x2a00
    1c68:	0f5a0407          	.4byte	0xf5a0407
    1c6c:	0000                	c.unimp
    1c6e:	9604072b          	shgp	zero,-122514 # 0xfffe4606 <boot_loader+0x7ffe4606>
    1c72:	0010                	.2byte	0x10
    1c74:	2c00                	.2byte	0x2c00
    1c76:	12250407          	.4byte	0x12250407
    1c7a:	0000                	c.unimp
    1c7c:	072d                	c.addi	a4,11
    1c7e:	c904                	c.sw	s1,16(a0)
    1c80:	2e000013          	li	zero,736
    1c84:	14df0407          	.4byte	0x14df0407
    1c88:	0000                	c.unimp
    1c8a:	ea04072f          	.4byte	0xea04072f
    1c8e:	0015                	c.nop	5
    1c90:	3000                	.2byte	0x3000
    1c92:	16cb0407          	.4byte	0x16cb0407
    1c96:	0000                	c.unimp
    1c98:	0731                	c.addi	a4,12
    1c9a:	6404                	.2byte	0x6404
    1c9c:	32000017          	auipc	zero,0x32000
    1ca0:	183a0407          	.4byte	0x183a0407
    1ca4:	0000                	c.unimp
    1ca6:	fb040733          	.4byte	0xfb040733
    1caa:	0015                	c.nop	5
    1cac:	3400                	.2byte	0x3400
    1cae:	16dc0407          	.4byte	0x16dc0407
    1cb2:	0000                	c.unimp
    1cb4:	0735                	c.addi	a4,13
    1cb6:	9d04                	exec.it	#782     !
    1cb8:	36000017          	auipc	zero,0x36000
    1cbc:	184b0407          	.4byte	0x184b0407
    1cc0:	0000                	c.unimp
    1cc2:	0c040737          	lui	a4,0xc040
    1cc6:	001c                	.2byte	0x1c
    1cc8:	3800                	.2byte	0x3800
    1cca:	19e30407          	.4byte	0x19e30407
    1cce:	0000                	c.unimp
    1cd0:	0739                	c.addi	a4,14 # 0xc04000e <_stack+0x404000e>
    1cd2:	8004                	exec.it	#8     !
    1cd4:	001a                	c.slli	zero,0x6
    1cd6:	3a00                	.2byte	0x3a00
    1cd8:	0a5a0407          	.4byte	0xa5a0407
    1cdc:	0000                	c.unimp
    1cde:	0404073b          	.4byte	0x404073b
    1ce2:	0008                	.2byte	0x8
    1ce4:	3c00                	.2byte	0x3c00
    1ce6:	1d690407          	.4byte	0x1d690407
    1cea:	0000                	c.unimp
    1cec:	073d                	c.addi	a4,15
    1cee:	9904                	exec.it	#780     !
    1cf0:	001a                	c.slli	zero,0x6
    1cf2:	3e00                	.2byte	0x3e00
    1cf4:	1bed0407          	.4byte	0x1bed0407
    1cf8:	0000                	c.unimp
    1cfa:	5804073f a0000017 	.8byte	0xa00000175804073f
    1d02:	08610407          	.4byte	0x8610407
    1d06:	0000                	c.unimp
    1d08:	07a1                	c.addi	a5,8
    1d0a:	cc04                	c.sw	s1,24(s0)
    1d0c:	a2000017          	auipc	zero,0xa2000
    1d10:	086c0407          	.4byte	0x86c0407
    1d14:	0000                	c.unimp
    1d16:	6a0407a3          	sb	zero,1711(s0)
    1d1a:	0009                	c.nop	2
    1d1c:	b000                	.2byte	0xb000
    1d1e:	0be50407          	.4byte	0xbe50407
    1d22:	0000                	c.unimp
    1d24:	07b1                	c.addi	a5,12
    1d26:	e904                	.2byte	0xe904
    1d28:	b2000007          	.4byte	0xb2000007
    1d2c:	05c10407          	.4byte	0x5c10407
    1d30:	0000                	c.unimp
    1d32:	0800                	c.addi4spn	s0,sp,16
    1d34:	b504                	.2byte	0xb504
    1d36:	0018                	.2byte	0x18
    1d38:	0100                	c.addi4spn	s0,sp,128
    1d3a:	0408                	c.addi4spn	a0,sp,512
    1d3c:	05b5                	c.addi	a1,13
    1d3e:	0000                	c.unimp
    1d40:	0809                	c.addi	a6,2
    1d42:	6704                	.2byte	0x6704
    1d44:	0018                	.2byte	0x18
    1d46:	0b00                	c.addi4spn	s0,sp,400
    1d48:	0408                	c.addi4spn	a0,sp,512
    1d4a:	1781                	c.addi	a5,-32
    1d4c:	0000                	c.unimp
    1d4e:	080c                	c.addi4spn	a1,sp,16
    1d50:	b404                	.2byte	0xb404
    1d52:	0010                	.2byte	0x10
    1d54:	1000                	c.addi4spn	s0,sp,32
    1d56:	0408                	c.addi4spn	a0,sp,512
    1d58:	000016f7          	.4byte	0x16f7
    1d5c:	0811                	c.addi	a6,4
    1d5e:	e304                	.2byte	0xe304
    1d60:	1200001b          	.4byte	0x1200001b
    1d64:	0408                	c.addi4spn	a0,sp,512
    1d66:	1bfe                	c.slli	s7,0x3f
    1d68:	0000                	c.unimp
    1d6a:	2a040813          	addi	a6,s0,672
    1d6e:	000a                	c.slli	zero,0x2
    1d70:	c400                	c.sw	s0,8(s0)
    1d72:	0409                	c.addi	s0,2
    1d74:	0a44                	c.addi4spn	s1,sp,276
    1d76:	0000                	c.unimp
    1d78:	09c5                	c.addi	s3,17
    1d7a:	0d04                	c.addi4spn	s1,sp,656
    1d7c:	000a                	c.slli	zero,0x2
    1d7e:	c900                	c.sw	s0,16(a0)
    1d80:	0409                	c.addi	s0,2
    1d82:	1d19                	c.addi	s10,-26
    1d84:	0000                	c.unimp
    1d86:	900409cf          	.4byte	0x900409cf
    1d8a:	000c                	.2byte	0xc
    1d8c:	d100                	c.sw	s0,32(a0)
    1d8e:	0409                	c.addi	s0,2
    1d90:	089e                	c.slli	a7,0x7
    1d92:	0000                	c.unimp
    1d94:	09d2                	c.slli	s3,0x14
    1d96:	c004                	c.sw	s1,0(s0)
    1d98:	000c                	.2byte	0xc
    1d9a:	d300                	c.sw	s0,32(a4)
    1d9c:	0409                	c.addi	s0,2
    1d9e:	000002f7          	.4byte	0x2f7
    1da2:	09d4                	c.addi4spn	a3,sp,212
    1da4:	6b04                	.2byte	0x6b04
    1da6:	e000000f          	.4byte	0xe000000f
    1daa:	0409                	c.addi	s0,2
    1dac:	00000f87          	.4byte	0xf87
    1db0:	960409e3          	beqz	s0,0x1722 <memset+0xe>
    1db4:	e400000f          	.4byte	0xe400000f
    1db8:	0409                	c.addi	s0,2
    1dba:	0fa5                	c.addi	t6,9
    1dbc:	0000                	c.unimp
    1dbe:	09e5                	c.addi	s3,25
    1dc0:	b404                	.2byte	0xb404
    1dc2:	e600000f          	.4byte	0xe600000f
    1dc6:	0409                	c.addi	s0,2
    1dc8:	15dc                	c.addi4spn	a5,sp,740
    1dca:	0000                	c.unimp
    1dcc:	09cd                	c.addi	s3,19
    1dce:	9404                	exec.it	#266     !
    1dd0:	000e                	c.slli	zero,0x3
    1dd2:	d000                	c.sw	s0,32(s0)
    1dd4:	0409                	c.addi	s0,2
    1dd6:	0a4d                	c.addi	s4,19
    1dd8:	0000                	c.unimp
    1dda:	0fc0                	c.addi4spn	s0,sp,980
    1ddc:	3e04                	.2byte	0x3e04
    1dde:	c1000003          	lb	zero,-1008(zero) # 0xfffffc10 <boot_loader+0x7ffffc10>
    1de2:	10a7040f          	.4byte	0x10a7040f
    1de6:	0000                	c.unimp
    1de8:	0fc2                	c.slli	t6,0x10
    1dea:	f604                	.2byte	0xf604
    1dec:	c3000007          	.4byte	0xc3000007
    1df0:	1894040f          	.4byte	0x1894040f
    1df4:	0000                	c.unimp
    1df6:	0fc4                	c.addi4spn	s1,sp,980
    1df8:	0004                	.2byte	0x4
    1dfa:	c700001b          	.4byte	0xc700001b
    1dfe:	0c06040f          	.4byte	0xc06040f
    1e02:	0000                	c.unimp
    1e04:	0fc8                	c.addi4spn	a0,sp,980
    1e06:	4a04                	c.lw	s1,16(a2)
    1e08:	001a                	c.slli	zero,0x6
    1e0a:	c900                	c.sw	s0,16(a0)
    1e0c:	1c41040f          	.4byte	0x1c41040f
    1e10:	0000                	c.unimp
    1e12:	0fd0                	c.addi4spn	a2,sp,980
    1e14:	ed04                	.2byte	0xed04
    1e16:	0016                	c.slli	zero,0x5
    1e18:	d100                	c.sw	s0,32(a0)
    1e1a:	0cde040f          	.4byte	0xcde040f
    1e1e:	0000                	c.unimp
    1e20:	07c0                	c.addi4spn	s0,sp,964
    1e22:	1704                	c.addi4spn	s1,sp,928
    1e24:	0016                	c.slli	zero,0x5
    1e26:	c100                	c.sw	s0,0(a0)
    1e28:	0b250407          	.4byte	0xb250407
    1e2c:	0000                	c.unimp
    1e2e:	07c2                	c.slli	a5,0x10
    1e30:	8a04                	exec.it	#76     !
    1e32:	000e                	c.slli	zero,0x3
    1e34:	c300                	c.sw	s0,0(a4)
    1e36:	08e90407          	.4byte	0x8e90407
    1e3a:	0000                	c.unimp
    1e3c:	07c5                	c.addi	a5,17
    1e3e:	3604                	.2byte	0x3604
    1e40:	0012                	c.slli	zero,0x4
    1e42:	ca00                	c.sw	s0,16(a2)
    1e44:	078e0407          	.4byte	0x78e0407
    1e48:	0000                	c.unimp
    1e4a:	07d0                	c.addi4spn	a2,sp,964
    1e4c:	d004                	c.sw	s1,32(s0)
    1e4e:	0004                	.2byte	0x4
    1e50:	df00                	c.sw	s0,56(a4)
    1e52:	1c1d0407          	.4byte	0x1c1d0407
    1e56:	0000                	c.unimp
    1e58:	300407cb          	.4byte	0x300407cb
    1e5c:	001c                	.2byte	0x1c
    1e5e:	cc00                	c.sw	s0,24(s0)
    1e60:	0a6b0407          	.4byte	0xa6b0407
    1e64:	0000                	c.unimp
    1e66:	07cd                	c.addi	a5,19
    1e68:	1b04                	c.addi4spn	s1,sp,432
    1e6a:	000c                	.2byte	0xc
    1e6c:	f000                	.2byte	0xf000
    1e6e:	15500407          	.4byte	0x15500407
    1e72:	0000                	c.unimp
    1e74:	07f1                	c.addi	a5,28
    1e76:	7a04                	.2byte	0x7a04
    1e78:	0018                	.2byte	0x18
    1e7a:	c400                	c.sw	s0,8(s0)
    1e7c:	04720407          	.4byte	0x4720407
    1e80:	0000                	c.unimp
    1e82:	07c9                	c.addi	a5,18
    1e84:	1504                	c.addi4spn	s1,sp,672
    1e86:	0008                	.2byte	0x8
    1e88:	d500                	c.sw	s0,40(a0)
    1e8a:	0dfd0407          	.4byte	0xdfd0407
    1e8e:	0000                	c.unimp
    1e90:	07d6                	c.slli	a5,0x15
    1e92:	9504                	exec.it	#778     !
    1e94:	000a                	c.slli	zero,0x2
    1e96:	d700                	c.sw	s0,40(a4)
    1e98:	09d00407          	.4byte	0x9d00407
    1e9c:	0000                	c.unimp
    1e9e:	07d8                	c.addi4spn	a4,sp,964
    1ea0:	a304                	.2byte	0xa304
    1ea2:	000a                	c.slli	zero,0x2
    1ea4:	d900                	c.sw	s0,48(a0)
    1ea6:	09e00407          	.4byte	0x9e00407
    1eaa:	0000                	c.unimp
    1eac:	07da                	c.slli	a5,0x16
    1eae:	c104                	c.sw	s1,0(a0)
    1eb0:	0019                	c.nop	6
    1eb2:	db00                	c.sw	s0,48(a4)
    1eb4:	19d20407          	.4byte	0x19d20407
    1eb8:	0000                	c.unimp
    1eba:	07dc                	c.addi4spn	a5,sp,964
    1ebc:	5304                	c.lw	s1,32(a4)
    1ebe:	0004                	.2byte	0x4
    1ec0:	dd00                	c.sw	s0,56(a0)
    1ec2:	093f0407          	.4byte	0x93f0407
    1ec6:	0000                	c.unimp
    1ec8:	07de                	c.slli	a5,0x17
    1eca:	e904                	.2byte	0xe904
    1ecc:	c6000017          	auipc	zero,0xc6000
    1ed0:	196a0407          	.4byte	0x196a0407
    1ed4:	0000                	c.unimp
    1ed6:	890407c7          	.4byte	0x890407c7
    1eda:	0004                	.2byte	0x4
    1edc:	c800                	c.sw	s0,16(s0)
    1ede:	0ca30407          	.4byte	0xca30407
    1ee2:	0000                	c.unimp
    1ee4:	07ce                	c.slli	a5,0x13
    1ee6:	a804                	.2byte	0xa804
    1ee8:	0006                	c.slli	zero,0x1
    1eea:	d100                	c.sw	s0,32(a0)
    1eec:	06bb0407          	.4byte	0x6bb0407
    1ef0:	0000                	c.unimp
    1ef2:	07d2                	c.slli	a5,0x14
    1ef4:	ce04                	c.sw	s1,24(a2)
    1ef6:	0006                	c.slli	zero,0x1
    1ef8:	d300                	c.sw	s0,32(a4)
    1efa:	19080407          	.4byte	0x19080407
    1efe:	0000                	c.unimp
    1f00:	e80407cf          	.4byte	0xe80407cf
    1f04:	000c                	.2byte	0xc
    1f06:	d400                	c.sw	s0,40(s0)
    1f08:	0ab10407          	.4byte	0xab10407
    1f0c:	0000                	c.unimp
    1f0e:	0320                	c.addi4spn	s0,sp,392
    1f10:	a504                	.2byte	0xa504
    1f12:	ec000007          	.4byte	0xec000007
    1f16:	08830407          	.4byte	0x8830407
    1f1a:	0000                	c.unimp
    1f1c:	07ed                	c.addi	a5,27
    1f1e:	3404                	.2byte	0x3404
    1f20:	000e                	c.slli	zero,0x3
    1f22:	ee00                	.2byte	0xee00
    1f24:	04a60407          	.4byte	0x4a60407
    1f28:	0000                	c.unimp
    1f2a:	190407ef          	jal	a5,0x420ba <__global_pointer$+0x3fc22>
    1f2e:	000a                	c.slli	zero,0x2
    1f30:	eb00                	.2byte	0xeb00
    1f32:	12450407          	.4byte	0x12450407
    1f36:	0000                	c.unimp
    1f38:	0bc0                	c.addi4spn	s0,sp,468
    1f3a:	5104                	c.lw	s1,32(a0)
    1f3c:	0012                	c.slli	zero,0x4
    1f3e:	c100                	c.sw	s0,0(a0)
    1f40:	125d040b          	lbgp	s0,92452 # 0x18dbc <__global_pointer$+0x16924>
    1f44:	0000                	c.unimp
    1f46:	0bc2                	c.slli	s7,0x10
    1f48:	6904                	.2byte	0x6904
    1f4a:	0012                	c.slli	zero,0x4
    1f4c:	c300                	c.sw	s0,0(a4)
    1f4e:	0b60040b          	lbgp	s0,182 # 0x254e <__global_pointer$+0xb6>
    1f52:	0000                	c.unimp
    1f54:	0bd0                	c.addi4spn	a2,sp,468
    1f56:	cc04                	c.sw	s1,24(s0)
    1f58:	d1000003          	lb	zero,-752(zero) # 0xfffffd10 <boot_loader+0x7ffffd10>
    1f5c:	0b6d040b          	lbgp	s0,90294 # 0x1854e <__global_pointer$+0x160b6>
    1f60:	0000                	c.unimp
    1f62:	0bd2                	c.slli	s7,0x14
    1f64:	ea04                	.2byte	0xea04
    1f66:	d3000003          	lb	zero,-720(zero) # 0xfffffd30 <boot_loader+0x7ffffd30>
    1f6a:	03f7040b          	lbgp	s0,79934 # 0x15cd6 <__global_pointer$+0x1383e>
    1f6e:	0000                	c.unimp
    1f70:	0bd4                	c.addi4spn	a3,sp,468
    1f72:	0404                	c.addi4spn	s1,sp,512
    1f74:	0004                	.2byte	0x4
    1f76:	d500                	c.sw	s0,40(a0)
    1f78:	0411040b          	lbgp	s0,67648 # 0x12cd8 <__global_pointer$+0x10840>
    1f7c:	0000                	c.unimp
    1f7e:	0bd6                	c.slli	s7,0x15
    1f80:	1e04                	c.addi4spn	s1,sp,816
    1f82:	0004                	.2byte	0x4
    1f84:	d700                	c.sw	s0,40(a4)
    1f86:	042b040b          	lbgp	s0,86082 # 0x174da <__global_pointer$+0x15042>
    1f8a:	0000                	c.unimp
    1f8c:	0bd8                	c.addi4spn	a4,sp,468
    1f8e:	3804                	.2byte	0x3804
    1f90:	0004                	.2byte	0x4
    1f92:	d900                	c.sw	s0,48(a0)
    1f94:	1aaa040b          	lbgp	s0,20906 # 0x7642 <__global_pointer$+0x51aa>
    1f98:	0000                	c.unimp
    1f9a:	0bda                	c.slli	s7,0x16
    1f9c:	b804                	.2byte	0xb804
    1f9e:	001a                	c.slli	zero,0x6
    1fa0:	db00                	c.sw	s0,48(a4)
    1fa2:	1706040b          	lbgp	s0,12656 # 0x5608 <__global_pointer$+0x3170>
    1fa6:	0000                	c.unimp
    1fa8:	0bdc                	c.addi4spn	a5,sp,468
    1faa:	b704                	.2byte	0xb704
    1fac:	000d                	c.nop	3
    1fae:	dd00                	c.sw	s0,56(a0)
    1fb0:	0dc5040b          	lbgp	s0,73948 # 0x14574 <__global_pointer$+0x120dc>
    1fb4:	0000                	c.unimp
    1fb6:	0bde                	c.slli	s7,0x17
    1fb8:	d304                	c.sw	s1,32(a4)
    1fba:	000d                	c.nop	3
    1fbc:	df00                	c.sw	s0,56(a4)
    1fbe:	0388040b          	lbgp	s0,16440 # 0x64d0 <__global_pointer$+0x4038>
    1fc2:	0000                	c.unimp
    1fc4:	07a1                	c.addi	a5,8
    1fc6:	7d04                	.2byte	0x7d04
    1fc8:	a1000003          	lb	zero,-1520(zero) # 0xfffffa10 <boot_loader+0x7ffffa10>
    1fcc:	0e160407          	.4byte	0xe160407
    1fd0:	0000                	c.unimp
    1fd2:	07a1                	c.addi	a5,8
    1fd4:	9004                	exec.it	#264     !
    1fd6:	a1000013          	li	zero,-1520
    1fda:	05ca0407          	.4byte	0x5ca0407
    1fde:	0000                	c.unimp
    1fe0:	4c0407a3          	sb	zero,1231(s0)
    1fe4:	0008                	.2byte	0x8
    1fe6:	a300                	.2byte	0xa300
    1fe8:	13fe0407          	.4byte	0x13fe0407
    1fec:	0000                	c.unimp
    1fee:	07a4                	c.addi4spn	s1,sp,968
    1ff0:	8704                	exec.it	#586     !
    1ff2:	0018                	.2byte	0x18
    1ff4:	a500                	.2byte	0xa500
    1ff6:	162f0407          	.4byte	0x162f0407
    1ffa:	0000                	c.unimp
    1ffc:	07a8                	c.addi4spn	a0,sp,968
    1ffe:	7804                	.2byte	0x7804
    2000:	0019                	c.nop	6
    2002:	aa00                	.2byte	0xaa00
    2004:	09f00407          	.4byte	0x9f00407
    2008:	0000                	c.unimp
    200a:	07b2                	c.slli	a5,0xc
    200c:	2504                	.2byte	0x2504
    200e:	000c                	.2byte	0xc
    2010:	b300                	.2byte	0xb300
    2012:	1a2a0407          	.4byte	0x1a2a0407
    2016:	0000                	c.unimp
    2018:	07e0                	c.addi4spn	s0,sp,972
    201a:	0304                	c.addi4spn	s1,sp,384
    201c:	0009                	c.nop	2
    201e:	e100                	.2byte	0xe100
    2020:	0e0d0407          	.4byte	0xe0d0407
    2024:	0000                	c.unimp
    2026:	61040307          	.4byte	0x61040307
    202a:	0011                	c.nop	4
    202c:	4500                	c.lw	s0,8(a0)
    202e:	14fc0403          	lb	s0,335(s8)
    2032:	0000                	c.unimp
    2034:	3f040347          	.4byte	0x3f040347
    2038:	000c                	.2byte	0xc
    203a:	4800                	c.lw	s0,16(s0)
    203c:	12980403          	lb	s0,297(a6)
    2040:	0000                	c.unimp
    2042:	0349                	c.addi	t1,18
    2044:	000cd303          	lhu	t1,0(s9) # 0x4000 <__global_pointer$+0x1b68>
    2048:	0800                	c.addi4spn	s0,sp,16
    204a:	001ad103          	lhu	sp,1(s5)
    204e:	0900                	c.addi4spn	s0,sp,144
    2050:	00119003          	lh	zero,1(gp) # 0x2499 <__global_pointer$+0x1>
    2054:	0a00                	c.addi4spn	s0,sp,272
    2056:	000b1c03          	lh	s8,0(s6)
    205a:	0f00                	c.addi4spn	s0,sp,912
    205c:	d704                	c.sw	s1,40(a4)
    205e:	0005                	c.nop	1
    2060:	2000                	.2byte	0x2000
    2062:	040c                	c.addi4spn	a1,sp,512
    2064:	0bfc                	c.addi4spn	a5,sp,476
    2066:	0000                	c.unimp
    2068:	0c21                	c.addi	s8,8
    206a:	6004                	.2byte	0x6004
    206c:	0009                	c.nop	2
    206e:	2200                	.2byte	0x2200
    2070:	040c                	c.addi4spn	a1,sp,512
    2072:	10bc                	c.addi4spn	a5,sp,104
    2074:	0000                	c.unimp
    2076:	0fca                	c.slli	t6,0x12
    2078:	5a04                	c.lw	s1,48(a2)
    207a:	cb000003          	lb	zero,-848(zero) # 0xfffffcb0 <boot_loader+0x7ffffcb0>
    207e:	18bf040f          	.4byte	0x18bf040f
    2082:	0000                	c.unimp
    2084:	07040fcf          	.4byte	0x7040fcf
    2088:	cf00000b          	lbgp	zero,-129808 # 0xfffe2988 <boot_loader+0x7ffe2988>
    208c:	0405000f          	.4byte	0x405000f
    2090:	0000e307          	.4byte	0xe307
    2094:	0600                	c.addi4spn	s0,sp,768
    2096:	0c4c                	c.addi4spn	a1,sp,532
    2098:	0000                	c.unimp
    209a:	000c5307          	.4byte	0xc5307
    209e:	0500                	c.addi4spn	s0,sp,640
    20a0:	0601                	c.addi	a2,0
    20a2:	009d                	c.addi	ra,7
    20a4:	0000                	c.unimp
    20a6:	0205                	c.addi	tp,1 # 0x1 <_start+0x1>
    20a8:	3305                	c.jal	0x1dc8 <__bss_start+0x128>
    20aa:	0001                	c.nop
    20ac:	0800                	c.addi4spn	s0,sp,16
    20ae:	0504                	c.addi4spn	s1,sp,640
    20b0:	6e69                	c.lui	t3,0x1a
    20b2:	0074                	c.addi4spn	a3,sp,12
    20b4:	0105                	c.addi	sp,1
    20b6:	9b08                	exec.it	#964     !
    20b8:	0000                	c.unimp
    20ba:	0500                	c.addi4spn	s0,sp,640
    20bc:	0702                	c.slli64	a4
    20be:	0076                	c.slli	zero,0x1d
    20c0:	0000                	c.unimp
    20c2:	4c09                	c.li	s8,2
    20c4:	000c                	.2byte	0xc
    20c6:	9000                	exec.it	#256     !
    20c8:	000c                	.2byte	0xc
    20ca:	0a00                	c.addi4spn	s0,sp,272
    20cc:	0c4c                	c.addi4spn	a1,sp,532
    20ce:	0000                	c.unimp
    20d0:	0001                	c.nop
    20d2:	0401200b          	lbugp	zero,65600 # 0x124d8 <__global_pointer$+0x10040>
    20d6:	0978                	c.addi4spn	a4,sp,156
    20d8:	0e29                	c.addi	t3,10 # 0x1a00a <__global_pointer$+0x17b72>
    20da:	0000                	c.unimp
    20dc:	ea0c                	.2byte	0xea0c
    20de:	001d                	c.nop	7
    20e0:	0400                	c.addi4spn	s0,sp,512
    20e2:	147a                	c.slli	s0,0x3e
    20e4:	0c58                	c.addi4spn	a4,sp,532
    20e6:	0000                	c.unimp
    20e8:	0c00                	c.addi4spn	s0,sp,528
    20ea:	00001e4b          	.4byte	0x1e4b
    20ee:	7b04                	.2byte	0x7b04
    20f0:	5814                	c.lw	a3,48(s0)
    20f2:	000c                	.2byte	0xc
    20f4:	0400                	c.addi4spn	s0,sp,512
    20f6:	c70c                	c.sw	a1,8(a4)
    20f8:	001e                	c.slli	zero,0x7
    20fa:	0400                	c.addi4spn	s0,sp,512
    20fc:	147c                	c.addi4spn	a5,sp,556
    20fe:	0c58                	c.addi4spn	a4,sp,532
    2100:	0000                	c.unimp
    2102:	0c08                	c.addi4spn	a0,sp,528
    2104:	1e5f 0000 7d04      	.byte	0x5f, 0x1e, 0x00, 0x00, 0x04, 0x7d
    210a:	4c14                	c.lw	a3,24(s0)
    210c:	000c                	.2byte	0xc
    210e:	0c00                	c.addi4spn	s0,sp,528
    2110:	bd0c                	.2byte	0xbd0c
    2112:	001e                	c.slli	zero,0x7
    2114:	0400                	c.addi4spn	s0,sp,512
    2116:	147e                	c.slli	s0,0x3f
    2118:	00000c53          	.4byte	0xc53
    211c:	0c10                	c.addi4spn	a2,sp,528
    211e:	1dda                	c.slli	s11,0x36
    2120:	0000                	c.unimp
    2122:	7f04                	.2byte	0x7f04
    2124:	5314                	c.lw	a3,32(a4)
    2126:	000c                	.2byte	0xc
    2128:	1400                	c.addi4spn	s0,sp,544
    212a:	690c                	.2byte	0x690c
    212c:	001e                	c.slli	zero,0x7
    212e:	0400                	c.addi4spn	s0,sp,512
    2130:	1480                	c.addi4spn	s0,sp,608
    2132:	0c4c                	c.addi4spn	a1,sp,532
    2134:	0000                	c.unimp
    2136:	0c18                	c.addi4spn	a4,sp,528
    2138:	1e99                	c.addi	t4,-26
    213a:	0000                	c.unimp
    213c:	8104                	exec.it	#520     !
    213e:	5314                	c.lw	a3,32(a4)
    2140:	000c                	.2byte	0xc
    2142:	1c00                	c.addi4spn	s0,sp,560
    2144:	430d                	c.li	t1,3
    2146:	5245                	c.li	tp,-15
    2148:	0400                	c.addi4spn	s0,sp,512
    214a:	1482                	c.slli	s1,0x20
    214c:	00000c53          	.4byte	0xc53
    2150:	0d20                	c.addi4spn	s0,sp,664
    2152:	00525243          	.4byte	0x525243
    2156:	8304                	exec.it	#584     !
    2158:	5314                	c.lw	a3,32(a4)
    215a:	000c                	.2byte	0xc
    215c:	2400                	.2byte	0x2400
    215e:	e10c                	.2byte	0xe10c
    2160:	001e                	c.slli	zero,0x7
    2162:	0400                	c.addi4spn	s0,sp,512
    2164:	1484                	c.addi4spn	s1,sp,608
    2166:	0c80                	c.addi4spn	s0,sp,592
    2168:	0000                	c.unimp
    216a:	0c28                	c.addi4spn	a0,sp,536
    216c:	1e8d                	c.addi	t4,-29
    216e:	0000                	c.unimp
    2170:	8504                	exec.it	#522     !
    2172:	5314                	c.lw	a3,32(a4)
    2174:	000c                	.2byte	0xc
    2176:	3000                	.2byte	0x3000
    2178:	440c                	c.lw	a1,8(s0)
    217a:	001e                	c.slli	zero,0x7
    217c:	0400                	c.addi4spn	s0,sp,512
    217e:	1486                	c.slli	s1,0x21
    2180:	00000c53          	.4byte	0xc53
    2184:	0c34                	c.addi4spn	a3,sp,536
    2186:	00001eeb          	.4byte	0x1eeb
    218a:	8704                	exec.it	#586     !
    218c:	8014                	exec.it	#9     !
    218e:	000c                	.2byte	0xc
    2190:	3800                	.2byte	0x3800
    2192:	ee0c                	.2byte	0xee0c
    2194:	04000007          	.4byte	0x4000007
    2198:	1488                	c.addi4spn	a0,sp,608
    219a:	00000c53          	.4byte	0xc53
    219e:	0c40                	c.addi4spn	s0,sp,532
    21a0:	1ed1                	c.addi	t4,-12
    21a2:	0000                	c.unimp
    21a4:	8904                	exec.it	#524     !
    21a6:	5314                	c.lw	a3,32(a4)
    21a8:	000c                	.2byte	0xc
    21aa:	4400                	c.lw	s0,8(s0)
    21ac:	730c                	.2byte	0x730c
    21ae:	001e                	c.slli	zero,0x7
    21b0:	0400                	c.addi4spn	s0,sp,512
    21b2:	148a                	c.slli	s1,0x22
    21b4:	0c80                	c.addi4spn	s0,sp,592
    21b6:	0000                	c.unimp
    21b8:	0c48                	c.addi4spn	a0,sp,532
    21ba:	1e31                	c.addi	t3,-20
    21bc:	0000                	c.unimp
    21be:	8b04                	exec.it	#588     !
    21c0:	5314                	c.lw	a3,32(a4)
    21c2:	000c                	.2byte	0xc
    21c4:	5000                	c.lw	s0,32(s0)
    21c6:	c70c                	c.sw	a1,8(a4)
    21c8:	001d                	c.nop	7
    21ca:	0400                	c.addi4spn	s0,sp,512
    21cc:	148c                	c.addi4spn	a1,sp,608
    21ce:	00000c53          	.4byte	0xc53
    21d2:	0c54                	c.addi4spn	a3,sp,532
    21d4:	1e19                	c.addi	t3,-26
    21d6:	0000                	c.unimp
    21d8:	8d04                	exec.it	#526     !
    21da:	5314                	c.lw	a3,32(a4)
    21dc:	000c                	.2byte	0xc
    21de:	5800                	c.lw	s0,48(s0)
    21e0:	060c                	c.addi4spn	a1,sp,768
    21e2:	001e                	c.slli	zero,0x7
    21e4:	0400                	c.addi4spn	s0,sp,512
    21e6:	148e                	c.slli	s1,0x23
    21e8:	00000c53          	.4byte	0xc53
    21ec:	0c5c                	c.addi4spn	a5,sp,532
    21ee:	1e7d                	c.addi	t3,-1
    21f0:	0000                	c.unimp
    21f2:	8f04                	exec.it	#590     !
    21f4:	2914                	.2byte	0x2914
    21f6:	000e                	c.slli	zero,0x3
    21f8:	6000                	.2byte	0x6000
    21fa:	530e                	c.lwsp	t1,224(sp)
    21fc:	001e                	c.slli	zero,0x7
    21fe:	0400                	c.addi4spn	s0,sp,512
    2200:	1490                	c.addi4spn	a2,sp,608
    2202:	00000c53          	.4byte	0xc53
    2206:	0100                	c.addi4spn	s0,sp,128
    2208:	870e                	c.mv	a4,gp
    220a:	001e                	c.slli	zero,0x7
    220c:	0400                	c.addi4spn	s0,sp,512
    220e:	1491                	c.addi	s1,-28
    2210:	00000c53          	.4byte	0xc53
    2214:	0104                	c.addi4spn	s1,sp,128
    2216:	e50e                	.2byte	0xe50e
    2218:	001d                	c.nop	7
    221a:	0400                	c.addi4spn	s0,sp,512
    221c:	1492                	c.slli	s1,0x24
    221e:	00000c53          	.4byte	0xc53
    2222:	0108                	c.addi4spn	a0,sp,128
    2224:	5253500f          	.4byte	0x5253500f
    2228:	0400                	c.addi4spn	s0,sp,512
    222a:	0c531493          	.4byte	0xc531493
    222e:	0000                	c.unimp
    2230:	010c                	c.addi4spn	a1,sp,128
    2232:	e00e                	.2byte	0xe00e
    2234:	001d                	c.nop	7
    2236:	0400                	c.addi4spn	s0,sp,512
    2238:	1494                	c.addi4spn	a3,sp,608
    223a:	00000c53          	.4byte	0xc53
    223e:	0110                	c.addi4spn	a2,sp,128
    2240:	c20e                	c.swsp	gp,4(sp)
    2242:	001e                	c.slli	zero,0x7
    2244:	0400                	c.addi4spn	s0,sp,512
    2246:	1495                	c.addi	s1,-27
    2248:	00000c53          	.4byte	0xc53
    224c:	0114                	c.addi4spn	a3,sp,128
    224e:	5243500f          	.4byte	0x5243500f
    2252:	0400                	c.addi4spn	s0,sp,512
    2254:	1496                	c.slli	s1,0x25
    2256:	00000c53          	.4byte	0xc53
    225a:	0118                	c.addi4spn	a4,sp,128
    225c:	5249500f          	.4byte	0x5249500f
    2260:	0400                	c.addi4spn	s0,sp,512
    2262:	0c531497          	auipc	s1,0xc531
    2266:	0000                	c.unimp
    2268:	011c                	c.addi4spn	a5,sp,128
    226a:	0900                	c.addi4spn	s0,sp,144
    226c:	0c4c                	c.addi4spn	a1,sp,532
    226e:	0000                	c.unimp
    2270:	0e39                	c.addi	t3,14
    2272:	0000                	c.unimp
    2274:	4c0a                	c.lwsp	s8,128(sp)
    2276:	000c                	.2byte	0xc
    2278:	2700                	.2byte	0x2700
    227a:	1000                	c.addi4spn	s0,sp,32
    227c:	1db0                	c.addi4spn	a2,sp,760
    227e:	0000                	c.unimp
    2280:	9804                	exec.it	#268     !
    2282:	000c9003          	lh	zero,0(s9)
    2286:	1100                	c.addi4spn	s0,sp,160
    2288:	1eb0                	c.addi4spn	a2,sp,888
    228a:	0000                	c.unimp
    228c:	0f01                	c.addi	t5,0
    228e:	120d                	c.addi	tp,-29 # 0xffffffe3 <boot_loader+0x7fffffe3>
    2290:	02cc                	c.addi4spn	a1,sp,324
    2292:	0000                	c.unimp
    2294:	4701                	c.li	a4,0
    2296:	5c06                	c.lwsp	s8,96(sp)
    2298:	0008                	.2byte	0x8
    229a:	7000                	.2byte	0x7000
    229c:	0000                	c.unimp
    229e:	0100                	c.addi4spn	s0,sp,128
    22a0:	aa9c                	.2byte	0xaa9c
    22a2:	000e                	c.slli	zero,0x3
    22a4:	1300                	c.addi4spn	s0,sp,416
    22a6:	0f01                	c.addi	t5,0
    22a8:	0000                	c.unimp
    22aa:	0880                	c.addi4spn	s0,sp,80
    22ac:	0000                	c.unimp
    22ae:	0020                	c.addi4spn	s0,sp,8
    22b0:	0000                	c.unimp
    22b2:	5601                	c.li	a2,-32
    22b4:	000e8803          	lb	a6,0(t4)
    22b8:	1400                	c.addi4spn	s0,sp,544
    22ba:	0f0e                	c.slli	t5,0x3
    22bc:	0000                	c.unimp
    22be:	9102                	c.jalr	sp
    22c0:	157c                	c.addi4spn	a5,sp,684
    22c2:	0f1a                	c.slli	t5,0x6
    22c4:	0000                	c.unimp
    22c6:	9102                	c.jalr	sp
    22c8:	0078                	c.addi4spn	a4,sp,12
    22ca:	0116                	c.slli	sp,0x5
    22cc:	a000000f          	.4byte	0xa000000f
    22d0:	0008                	.2byte	0x8
    22d2:	1800                	c.addi4spn	s0,sp,48
    22d4:	0000                	c.unimp
    22d6:	0100                	c.addi4spn	s0,sp,128
    22d8:	0e14035b          	lea.d	t1,s0,ra
    22dc:	0200000f          	fence	r,unknown
    22e0:	7491                	c.lui	s1,0xfffe4
    22e2:	1a15                	c.addi	s4,-27
    22e4:	0200000f          	fence	r,unknown
    22e8:	7091                	c.lui	ra,0xfffe4
    22ea:	0000                	c.unimp
    22ec:	0002c217          	auipc	tp,0x2c
    22f0:	0100                	c.addi4spn	s0,sp,128
    22f2:	081c062f          	.4byte	0x81c062f
    22f6:	0000                	c.unimp
    22f8:	0040                	c.addi4spn	s0,sp,4
    22fa:	0000                	c.unimp
    22fc:	9c01                	.2byte	0x9c01
    22fe:	0ee8                	c.addi4spn	a0,sp,860
    2300:	0000                	c.unimp
    2302:	5818                	c.lw	a4,48(s0)
    2304:	001e                	c.slli	zero,0x7
    2306:	0100                	c.addi4spn	s0,sp,128
    2308:	0f35                	c.addi	t5,13
    230a:	0ee8                	c.addi4spn	a0,sp,860
    230c:	0000                	c.unimp
    230e:	9418                	exec.it	#387     !
    2310:	001e                	c.slli	zero,0x7
    2312:	0100                	c.addi4spn	s0,sp,128
    2314:	1735                	c.addi	a4,-19
    2316:	0ee8                	c.addi4spn	a0,sp,860
    2318:	0000                	c.unimp
    231a:	2c19                	c.jal	0x2530 <__global_pointer$+0x98>
    231c:	001e                	c.slli	zero,0x7
    231e:	0100                	c.addi4spn	s0,sp,128
    2320:	0f36                	c.slli	t5,0xd
    2322:	0c4c                	c.addi4spn	a1,sp,532
    2324:	0000                	c.unimp
    2326:	9102                	c.jalr	sp
    2328:	006c                	c.addi4spn	a1,sp,12
    232a:	0105                	c.addi	sp,1
    232c:	a408                	.2byte	0xa408
    232e:	0000                	c.unimp
    2330:	1a00                	c.addi4spn	s0,sp,304
    2332:	1ea0                	c.addi4spn	s0,sp,888
    2334:	0000                	c.unimp
    2336:	1501                	c.addi	a0,-32
    2338:	dc06                	c.swsp	ra,56(sp)
    233a:	40000007          	.4byte	0x40000007
    233e:	0000                	c.unimp
    2340:	0100                	c.addi4spn	s0,sp,128
    2342:	1b9c                	c.addi4spn	a5,sp,496
    2344:	1d98                	c.addi4spn	a4,sp,752
    2346:	0000                	c.unimp
    2348:	03333003          	.4byte	0x3333003
    234c:	00000f27          	.4byte	0xf27
    2350:	a81c                	.2byte	0xa81c
    2352:	001d                	c.nop	7
    2354:	0300                	c.addi4spn	s0,sp,384
    2356:	5930                	c.lw	a2,112(a0)
    2358:	0c4c                	c.addi4spn	a1,sp,532
    235a:	0000                	c.unimp
    235c:	bb1d                	c.j	0x2092 <__bss_start+0x3f2>
    235e:	001d                	c.nop	7
    2360:	0300                	c.addi4spn	s0,sp,384
    2362:	1a32                	c.slli	s4,0x2c
    2364:	00000f27          	.4byte	0xf27
    2368:	1e00                	c.addi4spn	s0,sp,816
    236a:	5304                	c.lw	s1,32(a4)
    236c:	000c                	.2byte	0xc
    236e:	1f00                	c.addi4spn	s0,sp,944
    2370:	000000bb          	.4byte	0xbb
    2374:	0d02                	c.slli64	s10
    2376:	4c15                	c.li	s8,5
    2378:	000c                	.2byte	0xc
    237a:	6800                	.2byte	0x6800
    237c:	74000007          	.4byte	0x74000007
    2380:	0000                	c.unimp
    2382:	0100                	c.addi4spn	s0,sp,128
    2384:	8d9c                	.2byte	0x8d9c
    2386:	2000000f          	.4byte	0x2000000f
    238a:	0061                	c.nop	24
    238c:	0d02                	c.slli64	s10
    238e:	4c2e                	c.lwsp	s8,200(sp)
    2390:	000c                	.2byte	0xc
    2392:	0200                	c.addi4spn	s0,sp,256
    2394:	6c91                	c.lui	s9,0x4
    2396:	6221                	c.lui	tp,0x8
    2398:	0030                	c.addi4spn	a2,sp,8
    239a:	0f02                	c.slli64	t5
    239c:	4c10                	c.lw	a2,24(s0)
    239e:	000c                	.2byte	0xc
    23a0:	0200                	c.addi4spn	s0,sp,256
    23a2:	7c91                	c.lui	s9,0xfffe4
    23a4:	6221                	c.lui	tp,0x8
    23a6:	0031                	c.nop	12
    23a8:	1002                	c.slli	zero,0x20
    23aa:	4c10                	c.lw	a2,24(s0)
    23ac:	000c                	.2byte	0xc
    23ae:	0200                	c.addi4spn	s0,sp,256
    23b0:	7891                	c.lui	a7,0xfffe4
    23b2:	6221                	c.lui	tp,0x8
    23b4:	0032                	c.slli	zero,0xc
    23b6:	1102                	c.slli	sp,0x20
    23b8:	4c10                	c.lw	a2,24(s0)
    23ba:	000c                	.2byte	0xc
    23bc:	0200                	c.addi4spn	s0,sp,256
    23be:	7491                	c.lui	s1,0xfffe4
    23c0:	6221                	c.lui	tp,0x8
    23c2:	12020033          	.4byte	0x12020033
    23c6:	4c10                	c.lw	a2,24(s0)
    23c8:	000c                	.2byte	0xc
    23ca:	0200                	c.addi4spn	s0,sp,256
    23cc:	7091                	c.lui	ra,0xfffe4
    23ce:	2200                	.2byte	0x2200
    23d0:	0000                	c.unimp
    23d2:	0000                	c.unimp
    23d4:	0702                	c.slli64	a4
    23d6:	4c15                	c.li	s8,5
    23d8:	000c                	.2byte	0xc
    23da:	2400                	.2byte	0x2400
    23dc:	44000007          	.4byte	0x44000007
    23e0:	0000                	c.unimp
    23e2:	0100                	c.addi4spn	s0,sp,128
    23e4:	209c                	.2byte	0x209c
    23e6:	6176                	.2byte	0x6176
    23e8:	006c                	c.addi4spn	a1,sp,12
    23ea:	0702                	c.slli64	a4
    23ec:	4c2e                	c.lwsp	s8,200(sp)
    23ee:	000c                	.2byte	0xc
    23f0:	0200                	c.addi4spn	s0,sp,256
    23f2:	6c91                	c.lui	s9,0x4
    23f4:	7220                	.2byte	0x7220
    23f6:	0200726f          	jal	tp,0x9416 <__global_pointer$+0x6f7e>
    23fa:	0c4c4007          	.4byte	0xc4c4007
    23fe:	0000                	c.unimp
    2400:	9102                	c.jalr	sp
    2402:	1968                	c.addi4spn	a0,sp,188
    2404:	00000007          	.4byte	0x7
    2408:	0902                	c.slli64	s2
    240a:	4c10                	c.lw	a2,24(s0)
    240c:	000c                	.2byte	0xc
    240e:	0200                	c.addi4spn	s0,sp,256
    2410:	7c91                	c.lui	s9,0xfffe4
    2412:	0000                	c.unimp
    2414:	0e45                	c.addi	t3,17
    2416:	0000                	c.unimp
    2418:	0004                	.2byte	0x4
    241a:	0641                	c.addi	a2,16
    241c:	0000                	c.unimp
    241e:	0104                	c.addi4spn	s1,sp,128
    2420:	000001bb          	.4byte	0x1bb
    2424:	280c                	.2byte	0x280c
    2426:	001f 5000 0001      	.byte	0x1f, 0x00, 0x00, 0x50, 0x01, 0x00
    242c:	cc00                	c.sw	s0,24(s0)
    242e:	0008                	.2byte	0x8
    2430:	4c00                	c.lw	s0,24(s0)
    2432:	0001                	c.nop
    2434:	b700                	.2byte	0xb700
    2436:	0009                	c.nop	2
    2438:	0200                	c.addi4spn	s0,sp,256
    243a:	0601                	c.addi	a2,0
    243c:	009d                	c.addi	ra,7 # 0xfffe4007 <boot_loader+0x7ffe4007>
    243e:	0000                	c.unimp
    2440:	0102                	c.slli64	sp
    2442:	9b08                	exec.it	#964     !
    2444:	0000                	c.unimp
    2446:	0200                	c.addi4spn	s0,sp,256
    2448:	0502                	c.slli64	a0
    244a:	00000133          	add	sp,zero,zero
    244e:	0202                	c.slli64	tp
    2450:	00007607          	.4byte	0x7607
    2454:	0200                	c.addi4spn	s0,sp,256
    2456:	0504                	c.addi4spn	s1,sp,640
    2458:	0052                	c.slli	zero,0x14
    245a:	0000                	c.unimp
    245c:	0402                	c.slli64	s0
    245e:	0000de07          	.4byte	0xde07
    2462:	0200                	c.addi4spn	s0,sp,256
    2464:	0508                	c.addi4spn	a0,sp,640
    2466:	004d                	c.nop	19
    2468:	0000                	c.unimp
    246a:	0802                	c.slli64	a6
    246c:	0000d907          	.4byte	0xd907
    2470:	0300                	c.addi4spn	s0,sp,384
    2472:	0504                	c.addi4spn	s1,sp,640
    2474:	6e69                	c.lui	t3,0x1a
    2476:	0074                	c.addi4spn	a3,sp,12
    2478:	0402                	c.slli64	s0
    247a:	0000e307          	.4byte	0xe307
    247e:	0400                	c.addi4spn	s0,sp,512
    2480:	0064                	c.addi4spn	s1,sp,12
    2482:	0000                	c.unimp
    2484:	1002                	c.slli	zero,0x20
    2486:	af04                	.2byte	0xaf04
    2488:	0001                	c.nop
    248a:	0500                	c.addi4spn	s0,sp,640
    248c:	8904                	exec.it	#524     !
    248e:	0000                	c.unimp
    2490:	0600                	c.addi4spn	s0,sp,768
    2492:	00000077          	.4byte	0x77
    2496:	0102                	c.slli64	sp
    2498:	a408                	.2byte	0xa408
    249a:	0000                	c.unimp
    249c:	0700                	c.addi4spn	s0,sp,896
    249e:	0082                	c.slli64	ra
    24a0:	0000                	c.unimp
    24a2:	b608                	.2byte	0xb608
    24a4:	0019                	c.nop	6
    24a6:	0700                	c.addi4spn	s0,sp,896
    24a8:	6404                	.2byte	0x6404
    24aa:	0000                	c.unimp
    24ac:	0200                	c.addi4spn	s0,sp,256
    24ae:	0616                	c.slli	a2,0x5
    24b0:	0cb5                	c.addi	s9,13 # 0xfffe400d <boot_loader+0x7ffe400d>
    24b2:	0000                	c.unimp
    24b4:	c309                	c.beqz	a4,0x24b6 <__global_pointer$+0x1e>
    24b6:	0000000f          	fence	unknown,unknown
    24ba:	1009                	c.nop	-30
    24bc:	04000013          	li	zero,64
    24c0:	8109                	c.srli	a0,0x2
    24c2:	0012                	c.slli	zero,0x4
    24c4:	0500                	c.addi4spn	s0,sp,640
    24c6:	0b09                	c.addi	s6,2
    24c8:	0015                	c.nop	5
    24ca:	4000                	c.lw	s0,0(s0)
    24cc:	9c09                	.2byte	0x9c09
    24ce:	41000007          	.4byte	0x41000007
    24d2:	5c09                	c.li	s8,-30
    24d4:	0018                	.2byte	0x18
    24d6:	4200                	c.lw	s0,0(a2)
    24d8:	f309                	c.bnez	a4,0x23da <__bss_start+0x73a>
    24da:	000d                	c.nop	3
    24dc:	4300                	c.lw	s0,0(a4)
    24de:	bf09                	c.j	0x23f0 <__bss_start+0x750>
    24e0:	0008                	.2byte	0x8
    24e2:	4300                	c.lw	s0,0(a4)
    24e4:	af09                	c.j	0x2bf6 <__global_pointer$+0x75e>
    24e6:	44000013          	li	zero,1088
    24ea:	bc09                	c.j	0x1efc <__bss_start+0x25c>
    24ec:	0012                	c.slli	zero,0x4
    24ee:	0100                	c.addi4spn	s0,sp,128
    24f0:	9109                	c.srli	a0,0x22
    24f2:	001a                	c.slli	zero,0x6
    24f4:	0200                	c.addi4spn	s0,sp,256
    24f6:	7309                	c.lui	t1,0xfffe2
    24f8:	0009                	c.nop	2
    24fa:	0300                	c.addi4spn	s0,sp,384
    24fc:	2c0a                	.2byte	0x2c0a
    24fe:	00000003          	lb	zero,0(zero) # 0x0 <_start>
    2502:	0a0c                	c.addi4spn	a1,sp,272
    2504:	0aed                	c.addi	s5,27
    2506:	0000                	c.unimp
    2508:	0c01                	c.addi	s8,0
    250a:	a50a                	.2byte	0xa50a
    250c:	02000003          	lb	zero,32(zero) # 0x20 <_start+0x20>
    2510:	0a0c                	c.addi4spn	a1,sp,272
    2512:	06fc                	c.addi4spn	a5,sp,844
    2514:	0000                	c.unimp
    2516:	0c0a0c03          	lb	s8,192(s4)
    251a:	04000007          	.4byte	0x4000007
    251e:	0a0c                	c.addi4spn	a1,sp,272
    2520:	071c                	c.addi4spn	a5,sp,896
    2522:	0000                	c.unimp
    2524:	0c05                	c.addi	s8,1
    2526:	2c0a                	.2byte	0x2c0a
    2528:	06000007          	.4byte	0x6000007
    252c:	0a0c                	c.addi4spn	a1,sp,272
    252e:	073c                	c.addi4spn	a5,sp,904
    2530:	0000                	c.unimp
    2532:	4c0a0c07          	.4byte	0x4c0a0c07
    2536:	08000007          	.4byte	0x8000007
    253a:	0a0c                	c.addi4spn	a1,sp,272
    253c:	075c                	c.addi4spn	a5,sp,900
    253e:	0000                	c.unimp
    2540:	0c09                	c.addi	s8,2
    2542:	0b0a                	c.slli	s6,0x2
    2544:	0005                	c.nop	1
    2546:	0a00                	c.addi4spn	s0,sp,272
    2548:	0a0c                	c.addi4spn	a1,sp,272
    254a:	051c                	c.addi4spn	a5,sp,640
    254c:	0000                	c.unimp
    254e:	2d0a0c0b          	lbgp	s8,21200 # 0x7768 <__global_pointer$+0x52d0>
    2552:	0005                	c.nop	1
    2554:	0c00                	c.addi4spn	s0,sp,528
    2556:	0a0c                	c.addi4spn	a1,sp,272
    2558:	053e                	c.slli	a0,0xf
    255a:	0000                	c.unimp
    255c:	0c0d                	c.addi	s8,3
    255e:	4f0a                	c.lwsp	t5,128(sp)
    2560:	0005                	c.nop	1
    2562:	0e00                	c.addi4spn	s0,sp,784
    2564:	0a0c                	c.addi4spn	a1,sp,272
    2566:	0560                	c.addi4spn	s0,sp,652
    2568:	0000                	c.unimp
    256a:	710a0c0f          	.4byte	0x710a0c0f
    256e:	0005                	c.nop	1
    2570:	1000                	c.addi4spn	s0,sp,32
    2572:	0a0c                	c.addi4spn	a1,sp,272
    2574:	0582                	c.slli64	a1
    2576:	0000                	c.unimp
    2578:	0c11                	c.addi	s8,4
    257a:	930a                	c.add	t1,sp
    257c:	0005                	c.nop	1
    257e:	1200                	c.addi4spn	s0,sp,288
    2580:	0a0c                	c.addi4spn	a1,sp,272
    2582:	05a4                	c.addi4spn	s1,sp,712
    2584:	0000                	c.unimp
    2586:	0f0a0c13          	addi	s8,s4,240
    258a:	0006                	c.slli	zero,0x1
    258c:	1400                	c.addi4spn	s0,sp,544
    258e:	0a0c                	c.addi4spn	a1,sp,272
    2590:	0620                	c.addi4spn	s0,sp,776
    2592:	0000                	c.unimp
    2594:	0c15                	c.addi	s8,5
    2596:	310a                	.2byte	0x310a
    2598:	0006                	c.slli	zero,0x1
    259a:	1600                	c.addi4spn	s0,sp,800
    259c:	0a0c                	c.addi4spn	a1,sp,272
    259e:	0642                	c.slli	a2,0x10
    25a0:	0000                	c.unimp
    25a2:	530a0c17          	auipc	s8,0x530a0
    25a6:	0006                	c.slli	zero,0x1
    25a8:	1800                	c.addi4spn	s0,sp,48
    25aa:	0a0c                	c.addi4spn	a1,sp,272
    25ac:	03d9                	c.addi	t2,22
    25ae:	0000                	c.unimp
    25b0:	0c19                	c.addi	s8,6 # 0x530a25a8 <loader+0x431a25a8>
    25b2:	640a                	.2byte	0x640a
    25b4:	0006                	c.slli	zero,0x1
    25b6:	1a00                	c.addi4spn	s0,sp,304
    25b8:	0a0c                	c.addi4spn	a1,sp,272
    25ba:	0675                	c.addi	a2,29
    25bc:	0000                	c.unimp
    25be:	860a0c1b          	.4byte	0x860a0c1b
    25c2:	0006                	c.slli	zero,0x1
    25c4:	1c00                	c.addi4spn	s0,sp,560
    25c6:	0a0c                	c.addi4spn	a1,sp,272
    25c8:	00000697          	auipc	a3,0x0
    25cc:	0c1d                	c.addi	s8,7
    25ce:	6c0a                	.2byte	0x6c0a
    25d0:	1e000007          	.4byte	0x1e000007
    25d4:	0a0c                	c.addi4spn	a1,sp,272
    25d6:	077d                	c.addi	a4,31
    25d8:	0000                	c.unimp
    25da:	0c1f ed0a 0004      	.byte	0x1f, 0x0c, 0x0a, 0xed, 0x04, 0x00
    25e0:	8000                	exec.it	#0     !
    25e2:	0a0c                	c.addi4spn	a1,sp,272
    25e4:	0b40                	c.addi4spn	s0,sp,404
    25e6:	0000                	c.unimp
    25e8:	0c81                	c.addi	s9,0
    25ea:	140a                	c.slli	s0,0x22
    25ec:	82000017          	auipc	zero,0x82000
    25f0:	0a0c                	c.addi4spn	a1,sp,272
    25f2:	07b4                	c.addi4spn	a3,sp,968
    25f4:	0000                	c.unimp
    25f6:	3b0a0c83          	lb	s9,944(s4)
    25fa:	0008                	.2byte	0x8
    25fc:	8400                	exec.it	#2     !
    25fe:	0a0c                	c.addi4spn	a1,sp,272
    2600:	08cc                	c.addi4spn	a1,sp,84
    2602:	0000                	c.unimp
    2604:	0c85                	c.addi	s9,1
    2606:	4f0a                	c.lwsp	t5,128(sp)
    2608:	0009                	c.nop	2
    260a:	8600                	exec.it	#66     !
    260c:	0a0c                	c.addi4spn	a1,sp,272
    260e:	09b0                	c.addi4spn	a2,sp,216
    2610:	0000                	c.unimp
    2612:	330a0c87          	.4byte	0x330a0c87
    2616:	000a                	c.slli	zero,0x2
    2618:	8800                	exec.it	#4     !
    261a:	0a0c                	c.addi4spn	a1,sp,272
    261c:	0af6                	c.slli	s5,0x1d
    261e:	0000                	c.unimp
    2620:	0c89                	c.addi	s9,2
    2622:	b50a                	.2byte	0xb50a
    2624:	8a00000b          	lbgp	zero,-130912 # 0xfffe2538 <boot_loader+0x7ffe2538>
    2628:	0a0c                	c.addi4spn	a1,sp,272
    262a:	0c7e                	c.slli	s8,0x1f
    262c:	0000                	c.unimp
    262e:	e10a0c8b          	lbgp	s9,-109040 # 0xfffe7aa8 <boot_loader+0x7ffe7aa8>
    2632:	000d                	c.nop	3
    2634:	8c00                	exec.it	#6     !
    2636:	0a0c                	c.addi4spn	a1,sp,272
    2638:	0f48                	c.addi4spn	a0,sp,916
    263a:	0000                	c.unimp
    263c:	0c8d                	c.addi	s9,3
    263e:	060a                	c.slli	a2,0x2
    2640:	0010                	.2byte	0x10
    2642:	8e00                	exec.it	#70     !
    2644:	0a0c                	c.addi4spn	a1,sp,272
    2646:	117e                	c.slli	sp,0x3f
    2648:	0000                	c.unimp
    264a:	6b0a0c8f          	.4byte	0x6b0a0c8f
    264e:	90000003          	lb	zero,-1792(zero) # 0xfffff900 <boot_loader+0x7ffff900>
    2652:	0a0c                	c.addi4spn	a1,sp,272
    2654:	142e                	c.slli	s0,0x2b
    2656:	0000                	c.unimp
    2658:	0c91                	c.addi	s9,4
    265a:	3e0a                	.2byte	0x3e0a
    265c:	0015                	c.nop	5
    265e:	9200                	exec.it	#320     !
    2660:	0a0c                	c.addi4spn	a1,sp,272
    2662:	0000164f          	.4byte	0x164f
    2666:	340a0c93          	addi	s9,s4,832
    266a:	94000013          	li	zero,-1728
    266e:	0a0c                	c.addi4spn	a1,sp,272
    2670:	1486                	c.slli	s1,0x21
    2672:	0000                	c.unimp
    2674:	0c95                	c.addi	s9,5
    2676:	920a                	c.add	tp,sp
    2678:	0015                	c.nop	5
    267a:	9600                	exec.it	#322     !
    267c:	0a0c                	c.addi4spn	a1,sp,272
    267e:	000016ab          	lhgp	a3,0 # 0x2498 <__global_pointer$>
    2682:	460a0c97          	auipc	s9,0x460a0
    2686:	98000017          	auipc	zero,0x98000
    268a:	0a0c                	c.addi4spn	a1,sp,272
    268c:	1828                	c.addi4spn	a0,sp,56
    268e:	0000                	c.unimp
    2690:	0c99                	c.addi	s9,6 # 0x460a2688 <loader+0x361a2688>
    2692:	e40a                	.2byte	0xe40a
    2694:	0018                	.2byte	0x18
    2696:	9a00                	exec.it	#324     !
    2698:	0a0c                	c.addi4spn	a1,sp,272
    269a:	1985                	c.addi	s3,-31
    269c:	0000                	c.unimp
    269e:	600a0c9b          	.4byte	0x600a0c9b
    26a2:	001a                	c.slli	zero,0x6
    26a4:	9c00                	exec.it	#262     !
    26a6:	0a0c                	c.addi4spn	a1,sp,272
    26a8:	00001b37          	lui	s6,0x1
    26ac:	0c9d                	c.addi	s9,7
    26ae:	f60a                	.2byte	0xf60a
    26b0:	0018                	.2byte	0x18
    26b2:	9e00                	exec.it	#326     !
    26b4:	0a0c                	c.addi4spn	a1,sp,272
    26b6:	19a4                	c.addi4spn	s1,sp,248
    26b8:	0000                	c.unimp
    26ba:	0c9f 330a 000c      	.byte	0x9f, 0x0c, 0x0a, 0x33, 0x0c, 0x00
    26c0:	0000                	c.unimp
    26c2:	0a01                	c.addi	s4,0
    26c4:	0b4a                	c.slli	s6,0x12
    26c6:	0000                	c.unimp
    26c8:	0102                	c.slli64	sp
    26ca:	f00a                	.2byte	0xf00a
    26cc:	0014                	.2byte	0x14
    26ce:	0300                	c.addi4spn	s0,sp,384
    26d0:	0a01                	c.addi	s4,0
    26d2:	00000823          	sb	zero,16(zero) # 0x10 <_start+0x10>
    26d6:	0104                	c.addi4spn	s1,sp,128
    26d8:	490a                	c.lwsp	s2,128(sp)
    26da:	0500001b          	.4byte	0x500001b
    26de:	0a01                	c.addi	s4,0
    26e0:	09fe                	c.slli	s3,0x1f
    26e2:	0000                	c.unimp
    26e4:	0106                	c.slli	sp,0x1
    26e6:	de0a                	c.swsp	sp,60(sp)
    26e8:	0005                	c.nop	1
    26ea:	0a00                	c.addi4spn	s0,sp,272
    26ec:	0a01                	c.addi	s4,0
    26ee:	1b0d                	c.addi	s6,-29 # 0xfe3 <printi+0x5f>
    26f0:	0000                	c.unimp
    26f2:	010c                	c.addi4spn	a1,sp,128
    26f4:	1b0a                	c.slli	s6,0x22
    26f6:	0d00001b          	.4byte	0xd00001b
    26fa:	0a01                	c.addi	s4,0
    26fc:	1b29                	c.addi	s6,-22
    26fe:	0000                	c.unimp
    2700:	010e                	c.slli	sp,0x3
    2702:	df0a                	c.swsp	sp,188(sp)
    2704:	000a                	c.slli	zero,0x2
    2706:	0f00                	c.addi4spn	s0,sp,912
    2708:	0a01                	c.addi	s4,0
    270a:	00000b33          	add	s6,zero,zero
    270e:	0140                	c.addi4spn	s0,sp,132
    2710:	8c0a                	c.mv	s8,sp
    2712:	000a                	c.slli	zero,0x2
    2714:	4100                	c.lw	s0,0(a0)
    2716:	0a01                	c.addi	s4,0
    2718:	00000893          	li	a7,0
    271c:	0142                	c.slli	sp,0x10
    271e:	7c0a                	.2byte	0x7c0a
    2720:	0009                	c.nop	2
    2722:	4300                	c.lw	s0,0(a4)
    2724:	0a01                	c.addi	s4,0
    2726:	14c2                	c.slli	s1,0x30
    2728:	0000                	c.unimp
    272a:	590a0143          	.4byte	0x590a0143
    272e:	0008                	.2byte	0x8
    2730:	4400                	c.lw	s0,8(s0)
    2732:	0a01                	c.addi	s4,0
    2734:	0e81                	c.addi	t4,0
    2736:	0000                	c.unimp
    2738:	0180                	c.addi4spn	s0,sp,192
    273a:	7a0a                	.2byte	0x7a0a
    273c:	8000000b          	lbgp	zero,-131072 # 0xfffe2498 <boot_loader+0x7ffe2498>
    2740:	0a01                	c.addi	s4,0
    2742:	1a72                	c.slli	s4,0x3c
    2744:	0000                	c.unimp
    2746:	0da0                	c.addi4spn	s0,sp,728
    2748:	bd0a                	.2byte	0xbd0a
    274a:	0016                	c.slli	zero,0x5
    274c:	1100                	c.addi4spn	s0,sp,160
    274e:	12750a0f          	.4byte	0x12750a0f
    2752:	0000                	c.unimp
    2754:	0f12                	c.slli	t5,0x4
    2756:	0c0a                	c.slli	s8,0x2
    2758:	0016                	c.slli	zero,0x5
    275a:	1300                	c.addi4spn	s0,sp,416
    275c:	17c00a0f          	.4byte	0x17c00a0f
    2760:	0000                	c.unimp
    2762:	0f14                	c.addi4spn	a3,sp,912
    2764:	2b0a                	.2byte	0x2b0a
    2766:	001d                	c.nop	7
    2768:	1500                	c.addi4spn	s0,sp,672
    276a:	05fa0a0f          	.4byte	0x5fa0a0f
    276e:	0000                	c.unimp
    2770:	0300                	c.addi4spn	s0,sp,384
    2772:	c30a                	c.swsp	sp,132(sp)
    2774:	01000003          	lb	zero,16(zero) # 0x10 <_start+0x10>
    2778:	08dd0a03          	lb	s4,141(s10)
    277c:	0000                	c.unimp
    277e:	0302                	c.slli64	t1
    2780:	090a                	c.slli	s2,0x2
    2782:	0018                	.2byte	0x18
    2784:	0300                	c.addi4spn	s0,sp,384
    2786:	03240a03          	lb	s4,50(s0)
    278a:	0000                	c.unimp
    278c:	0304                	c.addi4spn	s1,sp,384
    278e:	7d0a                	.2byte	0x7d0a
    2790:	0500000f          	fence	ow,unknown
    2794:	0bed0a03          	lb	s4,190(s10)
    2798:	0000                	c.unimp
    279a:	0306                	c.slli	t1,0x1
    279c:	f60a                	.2byte	0xf60a
    279e:	0008                	.2byte	0x8
    27a0:	4000                	c.lw	s0,0(s0)
    27a2:	06060a03          	lb	s4,96(a2)
    27a6:	0000                	c.unimp
    27a8:	0341                	c.addi	t1,16 # 0xfffe2010 <boot_loader+0x7ffe2010>
    27aa:	c60a                	c.swsp	sp,12(sp)
    27ac:	001a                	c.slli	zero,0x6
    27ae:	4200                	c.lw	s0,0(a2)
    27b0:	0b560a03          	lb	s4,181(a2)
    27b4:	0000                	c.unimp
    27b6:	360a0343          	.4byte	0x360a0343
    27ba:	44000003          	lb	zero,1088(zero) # 0x440 <__nds__wsbh+0x30>
    27be:	0ed40a03          	lb	s4,237(s0)
    27c2:	0000                	c.unimp
    27c4:	030a                	c.slli	t1,0x2
    27c6:	170a                	c.slli	a4,0x22
    27c8:	1a000003          	lb	zero,416(zero) # 0x1a0 <amoaddw_func+0xc>
    27cc:	08770a03          	lb	s4,135(a4)
    27d0:	0000                	c.unimp
    27d2:	b30a0747          	.4byte	0xb30a0747
    27d6:	000c                	.2byte	0xc
    27d8:	5700                	c.lw	s0,40(a4)
    27da:	11df0a07          	.4byte	0x11df0a07
    27de:	0000                	c.unimp
    27e0:	030c                	c.addi4spn	a1,sp,384
    27e2:	ed0a                	.2byte	0xed0a
    27e4:	0011                	c.nop	4
    27e6:	0d00                	c.addi4spn	s0,sp,656
    27e8:	11fb0a03          	lb	s4,287(s6)
    27ec:	0000                	c.unimp
    27ee:	030e                	c.slli	t1,0x3
    27f0:	090a                	c.slli	s2,0x2
    27f2:	0012                	c.slli	zero,0x4
    27f4:	0f00                	c.addi4spn	s0,sp,912
    27f6:	1d3a0a03          	lb	s4,467(s4)
    27fa:	0000                	c.unimp
    27fc:	031c                	c.addi4spn	a5,sp,384
    27fe:	4b0a                	c.lwsp	s6,128(sp)
    2800:	1d000003          	lb	zero,464(zero) # 0x1d0 <amoxorw_func>
    2804:	04630a03          	lb	s4,70(t1)
    2808:	0000                	c.unimp
    280a:	031e                	c.slli	t1,0x7
    280c:	c10a                	c.swsp	sp,128(sp)
    280e:	0004                	.2byte	0x4
    2810:	1f00                	c.addi4spn	s0,sp,944
    2812:	090f0a03          	lb	s4,144(t5)
    2816:	0000                	c.unimp
    2818:	03a0                	c.addi4spn	s0,sp,456
    281a:	270a                	.2byte	0x270a
    281c:	0009                	c.nop	2
    281e:	a200                	.2byte	0xa200
    2820:	091b0a03          	lb	s4,145(s6)
    2824:	0000                	c.unimp
    2826:	03a1                	c.addi	t2,8
    2828:	330a                	.2byte	0x330a
    282a:	0009                	c.nop	2
    282c:	a300                	.2byte	0xa300
    282e:	10cc0a03          	lb	s4,268(s8)
    2832:	0000                	c.unimp
    2834:	03b0                	c.addi4spn	a2,sp,456
    2836:	d90a                	c.swsp	sp,176(sp)
    2838:	0010                	.2byte	0x10
    283a:	b100                	.2byte	0xb100
    283c:	10e60a03          	lb	s4,270(a2)
    2840:	0000                	c.unimp
    2842:	03b2                	c.slli	t2,0xc
    2844:	f30a                	.2byte	0xf30a
    2846:	0010                	.2byte	0x10
    2848:	b300                	.2byte	0xb300
    284a:	11000a03          	lb	s4,272(zero) # 0x110 <NDS_SAG_LMA_MEM+0x10>
    284e:	0000                	c.unimp
    2850:	03b4                	c.addi4spn	a3,sp,456
    2852:	0d0a                	c.slli	s10,0x2
    2854:	0011                	c.nop	4
    2856:	b500                	.2byte	0xb500
    2858:	111a0a03          	lb	s4,273(s4)
    285c:	0000                	c.unimp
    285e:	03b6                	c.slli	t2,0xd
    2860:	270a                	.2byte	0x270a
    2862:	0011                	c.nop	4
    2864:	b700                	.2byte	0xb700
    2866:	11340a03          	lb	s4,275(s0)
    286a:	0000                	c.unimp
    286c:	03b8                	c.addi4spn	a4,sp,456
    286e:	410a                	c.lwsp	sp,128(sp)
    2870:	0011                	c.nop	4
    2872:	b900                	.2byte	0xb900
    2874:	10180a03          	lb	s4,257(a6)
    2878:	0000                	c.unimp
    287a:	03ba                	c.slli	t2,0xe
    287c:	260a                	.2byte	0x260a
    287e:	0010                	.2byte	0x10
    2880:	bb00                	.2byte	0xbb00
    2882:	10340a03          	lb	s4,259(s0)
    2886:	0000                	c.unimp
    2888:	03bc                	c.addi4spn	a5,sp,456
    288a:	420a                	c.lwsp	tp,128(sp)
    288c:	0010                	.2byte	0x10
    288e:	bd00                	.2byte	0xbd00
    2890:	10500a03          	lb	s4,261(zero) # 0x105 <NDS_SAG_LMA_MEM+0x5>
    2894:	0000                	c.unimp
    2896:	03be                	c.slli	t2,0xf
    2898:	b10a                	.2byte	0xb10a
    289a:	0008                	.2byte	0x8
    289c:	bf00                	.2byte	0xbf00
    289e:	105e0a03          	lb	s4,261(t3) # 0x1a105 <__global_pointer$+0x17c6d>
    28a2:	0000                	c.unimp
    28a4:	03c0                	c.addi4spn	s0,sp,452
    28a6:	6c0a                	.2byte	0x6c0a
    28a8:	0010                	.2byte	0x10
    28aa:	c100                	c.sw	s0,0(a0)
    28ac:	107a0a03          	lb	s4,263(s4)
    28b0:	0000                	c.unimp
    28b2:	03c2                	c.slli	t2,0x10
    28b4:	880a                	c.mv	a6,sp
    28b6:	0010                	.2byte	0x10
    28b8:	c300                	c.sw	s0,0(a4)
    28ba:	11990a03          	lb	s4,281(s2)
    28be:	0000                	c.unimp
    28c0:	03c4                	c.addi4spn	s1,sp,452
    28c2:	a70a                	.2byte	0xa70a
    28c4:	0011                	c.nop	4
    28c6:	c500                	c.sw	s0,8(a0)
    28c8:	11b50a03          	lb	s4,283(a0)
    28cc:	0000                	c.unimp
    28ce:	03c6                	c.slli	t2,0x11
    28d0:	c30a                	c.swsp	sp,132(sp)
    28d2:	0011                	c.nop	4
    28d4:	c700                	c.sw	s0,8(a4)
    28d6:	11d10a03          	lb	s4,285(sp)
    28da:	0000                	c.unimp
    28dc:	03c8                	c.addi4spn	a0,sp,452
    28de:	860a                	c.mv	a2,sp
    28e0:	0009                	c.nop	2
    28e2:	c900                	c.sw	s0,16(a0)
    28e4:	09940a03          	lb	s4,153(s0)
    28e8:	0000                	c.unimp
    28ea:	03ca                	c.slli	t2,0x12
    28ec:	a20a                	.2byte	0xa20a
    28ee:	0009                	c.nop	2
    28f0:	cb00                	c.sw	s0,16(a4)
    28f2:	04450a03          	lb	s4,68(a0)
    28f6:	0000                	c.unimp
    28f8:	03cc                	c.addi4spn	a1,sp,452
    28fa:	170a                	c.slli	a4,0x22
    28fc:	0012                	c.slli	zero,0x4
    28fe:	cd00                	c.sw	s0,24(a0)
    2900:	12f40a03          	lb	s4,303(s0)
    2904:	0000                	c.unimp
    2906:	03ce                	c.slli	t2,0x13
    2908:	020a                	c.slli	tp,0x2
    290a:	cf000013          	li	zero,-784
    290e:	0ac30a03          	lb	s4,172(t1)
    2912:	0000                	c.unimp
    2914:	03d0                	c.addi4spn	a2,sp,452
    2916:	180a                	c.slli	a6,0x22
    2918:	d1000013          	li	zero,-752
    291c:	13260a03          	lb	s4,306(a2)
    2920:	0000                	c.unimp
    2922:	03d2                	c.slli	t2,0x14
    2924:	d10a                	c.swsp	sp,160(sp)
    2926:	000a                	c.slli	zero,0x2
    2928:	d300                	c.sw	s0,32(a4)
    292a:	13460a03          	lb	s4,308(a2)
    292e:	0000                	c.unimp
    2930:	03d4                	c.addi4spn	a3,sp,452
    2932:	540a                	c.lwsp	s0,160(sp)
    2934:	d5000013          	li	zero,-688
    2938:	13620a03          	lb	s4,310(tp) # 0x8136 <__global_pointer$+0x5c9e>
    293c:	0000                	c.unimp
    293e:	03d6                	c.slli	t2,0x15
    2940:	700a                	.2byte	0x700a
    2942:	d7000013          	li	zero,-656
    2946:	14400a03          	lb	s4,324(zero) # 0x144 <NDS_SAG_LMA_MEM+0x44>
    294a:	0000                	c.unimp
    294c:	03d8                	c.addi4spn	a4,sp,452
    294e:	4e0a                	c.lwsp	t3,128(sp)
    2950:	0014                	.2byte	0x14
    2952:	d900                	c.sw	s0,48(a0)
    2954:	145c0a03          	lb	s4,325(s8)
    2958:	0000                	c.unimp
    295a:	03da                	c.slli	t2,0x16
    295c:	6a0a                	.2byte	0x6a0a
    295e:	0014                	.2byte	0x14
    2960:	db00                	c.sw	s0,48(a4)
    2962:	14780a03          	lb	s4,327(a6)
    2966:	0000                	c.unimp
    2968:	03dc                	c.addi4spn	a5,sp,452
    296a:	4f0a                	c.lwsp	t5,128(sp)
    296c:	000c                	.2byte	0xc
    296e:	dd00                	c.sw	s0,56(a0)
    2970:	14980a03          	lb	s4,329(a6)
    2974:	0000                	c.unimp
    2976:	03de                	c.slli	t2,0x17
    2978:	a60a                	.2byte	0xa60a
    297a:	0014                	.2byte	0x14
    297c:	df00                	c.sw	s0,56(a4)
    297e:	14b40a03          	lb	s4,331(s0)
    2982:	0000                	c.unimp
    2984:	03e0                	c.addi4spn	s0,sp,460
    2986:	700a                	.2byte	0x700a
    2988:	000c                	.2byte	0xc
    298a:	e100                	.2byte	0xe100
    298c:	155a0a03          	lb	s4,341(s4)
    2990:	0000                	c.unimp
    2992:	03e2                	c.slli	t2,0x18
    2994:	680a                	.2byte	0x680a
    2996:	0015                	c.nop	5
    2998:	e300                	.2byte	0xe300
    299a:	15760a03          	lb	s4,343(a2)
    299e:	0000                	c.unimp
    29a0:	03e4                	c.addi4spn	s1,sp,460
    29a2:	840a                	c.mv	s0,sp
    29a4:	0015                	c.nop	5
    29a6:	e500                	.2byte	0xe500
    29a8:	0ec60a03          	lb	s4,236(a2)
    29ac:	0000                	c.unimp
    29ae:	03e6                	c.slli	t2,0x19
    29b0:	e00a                	.2byte	0xe00a
    29b2:	000e                	c.slli	zero,0x3
    29b4:	e700                	.2byte	0xe700
    29b6:	15a40a03          	lb	s4,346(s0)
    29ba:	0000                	c.unimp
    29bc:	03e8                	c.addi4spn	a0,sp,460
    29be:	b20a                	.2byte	0xb20a
    29c0:	0015                	c.nop	5
    29c2:	e900                	.2byte	0xe900
    29c4:	15c00a03          	lb	s4,348(zero) # 0x15c <amoswapw_func+0x8>
    29c8:	0000                	c.unimp
    29ca:	03ea                	c.slli	t2,0x1a
    29cc:	ce0a                	c.swsp	sp,28(sp)
    29ce:	0015                	c.nop	5
    29d0:	eb00                	.2byte	0xeb00
    29d2:	16610a03          	lb	s4,358(sp)
    29d6:	0000                	c.unimp
    29d8:	03ec                	c.addi4spn	a1,sp,460
    29da:	6f0a                	.2byte	0x6f0a
    29dc:	0016                	c.slli	zero,0x5
    29de:	ed00                	.2byte	0xed00
    29e0:	167d0a03          	lb	s4,359(s10)
    29e4:	0000                	c.unimp
    29e6:	03ee                	c.slli	t2,0x1b
    29e8:	8b0a                	c.mv	s6,sp
    29ea:	0016                	c.slli	zero,0x5
    29ec:	ef00                	.2byte	0xef00
    29ee:	06f10a03          	lb	s4,111(sp)
    29f2:	0000                	c.unimp
    29f4:	0b00                	c.addi4spn	s0,sp,400
    29f6:	8b0a                	c.mv	s6,sp
    29f8:	0012                	c.slli	zero,0x4
    29fa:	0200                	c.addi4spn	s0,sp,256
    29fc:	0d400a0b          	lbgp	s4,212 # 0x256c <__global_pointer$+0xd4>
    2a00:	0000                	c.unimp
    2a02:	510a0b03          	lb	s6,1296(s4)
    2a06:	000d                	c.nop	3
    2a08:	0400                	c.addi4spn	s0,sp,512
    2a0a:	0d620a0b          	lbgp	s4,4310 # 0x356e <__global_pointer$+0x10d6>
    2a0e:	0000                	c.unimp
    2a10:	0b05                	c.addi	s6,1
    2a12:	730a                	.2byte	0x730a
    2a14:	000d                	c.nop	3
    2a16:	0600                	c.addi4spn	s0,sp,768
    2a18:	0d840a0b          	lbgp	s4,8408 # 0x4570 <__global_pointer$+0x20d8>
    2a1c:	0000                	c.unimp
    2a1e:	950a0b07          	.4byte	0x950a0b07
    2a22:	000d                	c.nop	3
    2a24:	0800                	c.addi4spn	s0,sp,16
    2a26:	0da60a0b          	lbgp	s4,12506 # 0x5572 <__global_pointer$+0x30da>
    2a2a:	0000                	c.unimp
    2a2c:	0b09                	c.addi	s6,2
    2a2e:	f80a                	.2byte	0xf80a
    2a30:	000c                	.2byte	0xc
    2a32:	0a00                	c.addi4spn	s0,sp,272
    2a34:	0d0a0a0b          	lbgp	s4,20688 # 0x7568 <__global_pointer$+0x50d0>
    2a38:	0000                	c.unimp
    2a3a:	1c0a0b0b          	lbgp	s6,20928 # 0x7658 <__global_pointer$+0x51c0>
    2a3e:	000d                	c.nop	3
    2a40:	0c00                	c.addi4spn	s0,sp,528
    2a42:	0d2e0a0b          	lbgp	s4,28882 # 0x956a <__global_pointer$+0x70d2>
    2a46:	0000                	c.unimp
    2a48:	0b0d                	c.addi	s6,3
    2a4a:	ae0a                	.2byte	0xae0a
    2a4c:	0e000017          	auipc	zero,0xe000
    2a50:	137e0a0b          	lbgp	s4,31030 # 0x9dce <__global_pointer$+0x7936>
    2a54:	0000                	c.unimp
    2a56:	9d0a0b0f          	.4byte	0x9d0a0b0f
    2a5a:	10000013          	li	zero,256
    2a5e:	13b70a0b          	lbgp	s4,80186 # 0x15dd2 <__global_pointer$+0x1393a>
    2a62:	0000                	c.unimp
    2a64:	0b11                	c.addi	s6,4
    2a66:	da0a                	c.swsp	sp,52(sp)
    2a68:	12000013          	li	zero,288
    2a6c:	13ec0a0b          	lbgp	s4,24894 # 0x85d6 <__global_pointer$+0x613e>
    2a70:	0000                	c.unimp
    2a72:	a20a0b13          	addi	s6,s4,-1504
    2a76:	000e                	c.slli	zero,0x3
    2a78:	1400                	c.addi4spn	s0,sp,544
    2a7a:	0eb40a0b          	lbgp	s4,10474 # 0x4d82 <__global_pointer$+0x28ea>
    2a7e:	0000                	c.unimp
    2a80:	0b15                	c.addi	s6,5
    2a82:	f40a                	.2byte	0xf40a
    2a84:	0019                	c.nop	6
    2a86:	1600                	c.addi4spn	s0,sp,800
    2a88:	1a060a0b          	lbgp	s4,12704 # 0x5638 <__global_pointer$+0x31a0>
    2a8c:	0000                	c.unimp
    2a8e:	180a0b17          	auipc	s6,0x180a0
    2a92:	001a                	c.slli	zero,0x6
    2a94:	1800                	c.addi4spn	s0,sp,48
    2a96:	0eee0a0b          	lbgp	s4,28910 # 0x9586 <__global_pointer$+0x70ee>
    2a9a:	0000                	c.unimp
    2a9c:	0b19                	c.addi	s6,6 # 0x180a2a94 <loader+0x81a2a94>
    2a9e:	000a                	c.slli	zero,0x2
    2aa0:	1a00000f          	.4byte	0x1a00000f
    2aa4:	0f120a0b          	lbgp	s4,6384 # 0x3d88 <__global_pointer$+0x18f0>
    2aa8:	0000                	c.unimp
    2aaa:	240a0b1b          	.4byte	0x240a0b1b
    2aae:	1c00000f          	.4byte	0x1c00000f
    2ab2:	0f360a0b          	lbgp	s4,14578 # 0x5d8a <__global_pointer$+0x38f2>
    2ab6:	0000                	c.unimp
    2ab8:	0b1d                	c.addi	s6,7
    2aba:	cf0a                	c.swsp	sp,156(sp)
    2abc:	1e00000f          	.4byte	0x1e00000f
    2ac0:	0fe10a0b          	lbgp	s4,65790 # 0x12596 <__global_pointer$+0x100fe>
    2ac4:	0000                	c.unimp
    2ac6:	0b1f 750a 0017      	.byte	0x1f, 0x0b, 0x0a, 0x75, 0x17, 0x00
    2acc:	8000                	exec.it	#0     !
    2ace:	04b30a0b          	lbgp	s4,71754 # 0x13ce2 <__global_pointer$+0x1184a>
    2ad2:	0000                	c.unimp
    2ad4:	0b82                	c.slli64	s7
    2ad6:	d70a                	c.swsp	sp,172(sp)
    2ad8:	83000017          	auipc	zero,0x83000
    2adc:	193e0a0b          	lbgp	s4,31122 # 0x9e2a <__global_pointer$+0x7992>
    2ae0:	0000                	c.unimp
    2ae2:	0b84                	c.addi4spn	s1,sp,464
    2ae4:	db0a                	c.swsp	sp,180(sp)
    2ae6:	001a                	c.slli	zero,0x6
    2ae8:	8500                	exec.it	#514     !
    2aea:	1cfe0a0b          	lbgp	s4,31182 # 0x9e66 <__global_pointer$+0x79ce>
    2aee:	0000                	c.unimp
    2af0:	0b86                	c.slli	s7,0x1
    2af2:	b10a                	.2byte	0xb10a
    2af4:	87000003          	lb	zero,-1936(zero) # 0xfffff870 <boot_loader+0x7ffff870>
    2af8:	16990a0b          	lbgp	s4,84328 # 0x16e00 <__global_pointer$+0x14968>
    2afc:	0000                	c.unimp
    2afe:	0b88                	c.addi4spn	a0,sp,464
    2b00:	340a                	.2byte	0x340a
    2b02:	89000017          	auipc	zero,0x89000
    2b06:	1aed0a0b          	lbgp	s4,90542 # 0x18646 <__global_pointer$+0x161ae>
    2b0a:	0000                	c.unimp
    2b0c:	0b8a                	c.slli	s7,0x2
    2b0e:	840a                	c.mv	s0,sp
    2b10:	8b00000b          	lbgp	zero,-130896 # 0xfffe2548 <boot_loader+0x7ffe2548>
    2b14:	0c5d0a0b          	lbgp	s4,92356 # 0x18d5c <__global_pointer$+0x168c4>
    2b18:	0000                	c.unimp
    2b1a:	0b8c                	c.addi4spn	a1,sp,464
    2b1c:	f80a                	.2byte	0xf80a
    2b1e:	0004                	.2byte	0x4
    2b20:	8d00                	exec.it	#518     !
    2b22:	191a0a0b          	lbgp	s4,22928 # 0x7e28 <__global_pointer$+0x5990>
    2b26:	0000                	c.unimp
    2b28:	0b8e                	c.slli	s7,0x3
    2b2a:	f30a                	.2byte	0xf30a
    2b2c:	8f00000f          	.4byte	0x8f00000f
    2b30:	114e0a0b          	lbgp	s4,28948 # 0x95ac <__global_pointer$+0x7114>
    2b34:	0000                	c.unimp
    2b36:	0b90                	c.addi4spn	a2,sp,464
    2b38:	790a                	.2byte	0x790a
    2b3a:	000a                	c.slli	zero,0x2
    2b3c:	9100                	exec.it	#768     !
    2b3e:	14080a0b          	lbgp	s4,16704 # 0x65d8 <__global_pointer$+0x4140>
    2b42:	0000                	c.unimp
    2b44:	0b92                	c.slli	s7,0x4
    2b46:	180a                	c.slli	a6,0x22
    2b48:	0015                	c.nop	5
    2b4a:	9300                	exec.it	#832     !
    2b4c:	116b0a0b          	lbgp	s4,86294 # 0x175ae <__global_pointer$+0x15116>
    2b50:	0000                	c.unimp
    2b52:	0b94                	c.addi4spn	a3,sp,464
    2b54:	a90a                	.2byte	0xa90a
    2b56:	0012                	c.slli	zero,0x4
    2b58:	9500                	exec.it	#770     !
    2b5a:	141b0a0b          	lbgp	s4,88384 # 0x17dd8 <__global_pointer$+0x15940>
    2b5e:	0000                	c.unimp
    2b60:	0b96                	c.slli	s7,0x5
    2b62:	2b0a                	.2byte	0x2b0a
    2b64:	0015                	c.nop	5
    2b66:	9700                	exec.it	#834     !
    2b68:	163c0a0b          	lbgp	s4,26978 # 0x8dfa <__global_pointer$+0x6962>
    2b6c:	0000                	c.unimp
    2b6e:	0b98                	c.addi4spn	a4,sp,464
    2b70:	210a                	.2byte	0x210a
    2b72:	99000017          	auipc	zero,0x99000
    2b76:	17f60a0b          	lbgp	s4,14718 # 0x5e16 <__global_pointer$+0x397e>
    2b7a:	0000                	c.unimp
    2b7c:	0b9a                	c.slli	s7,0x6
    2b7e:	a20a                	.2byte	0xa20a
    2b80:	0018                	.2byte	0x18
    2b82:	9b00                	exec.it	#836     !
    2b84:	19570a0b          	lbgp	s4,80276 # 0x15e2c <__global_pointer$+0x13994>
    2b88:	0000                	c.unimp
    2b8a:	0b9c                	c.addi4spn	a5,sp,464
    2b8c:	370a                	.2byte	0x370a
    2b8e:	001a                	c.slli	zero,0x6
    2b90:	9d00                	exec.it	#774     !
    2b92:	18150a0b          	lbgp	s4,76160 # 0x14e18 <__global_pointer$+0x12980>
    2b96:	0000                	c.unimp
    2b98:	0b9e                	c.slli	s7,0x7
    2b9a:	d10a                	c.swsp	sp,160(sp)
    2b9c:	0018                	.2byte	0x18
    2b9e:	9f00                	exec.it	#838     !
    2ba0:	0b970a0b          	lbgp	s4,80056 # 0x15d50 <__global_pointer$+0x138b8>
    2ba4:	0000                	c.unimp
    2ba6:	a60a0323          	sb	zero,-1434(s4)
    2baa:	2400000b          	lbgp	zero,576 # 0x26d8 <__global_pointer$+0x240>
    2bae:	12c70a03          	lb	s4,300(a4)
    2bb2:	0000                	c.unimp
    2bb4:	0325                	c.addi	t1,9
    2bb6:	d60a                	c.swsp	sp,44(sp)
    2bb8:	0012                	c.slli	zero,0x4
    2bba:	2600                	.2byte	0x2600
    2bbc:	12e50a03          	lb	s4,302(a0)
    2bc0:	0000                	c.unimp
    2bc2:	c70a0327          	.4byte	0xc70a0327
    2bc6:	2800000b          	lbgp	zero,640 # 0x2718 <__global_pointer$+0x280>
    2bca:	0bd60a03          	lb	s4,189(a2)
    2bce:	0000                	c.unimp
    2bd0:	0329                	c.addi	t1,10
    2bd2:	530a                	c.lwsp	t1,160(sp)
    2bd4:	2a00001b          	.4byte	0x2a00001b
    2bd8:	1b630a03          	lb	s4,438(t1)
    2bdc:	0000                	c.unimp
    2bde:	730a032b          	shgp	a6,22310 # 0x7bbe <__global_pointer$+0x5726>
    2be2:	2c00001b          	.4byte	0x2c00001b
    2be6:	1b830a03          	lb	s4,440(t1)
    2bea:	0000                	c.unimp
    2bec:	032d                	c.addi	t1,11
    2bee:	cf0a                	c.swsp	sp,156(sp)
    2bf0:	0014                	.2byte	0x14
    2bf2:	2e00                	.2byte	0x2e00
    2bf4:	1b930a03          	lb	s4,441(t1)
    2bf8:	0000                	c.unimp
    2bfa:	a30a032f          	.4byte	0xa30a032f
    2bfe:	3000001b          	.4byte	0x3000001b
    2c02:	1bb30a03          	lb	s4,443(t1)
    2c06:	0000                	c.unimp
    2c08:	0331                	c.addi	t1,12
    2c0a:	c30a                	c.swsp	sp,132(sp)
    2c0c:	3200001b          	.4byte	0x3200001b
    2c10:	1bd30a03          	lb	s4,445(t1)
    2c14:	0000                	c.unimp
    2c16:	4e0a0333          	.4byte	0x4e0a0333
    2c1a:	001c                	.2byte	0x1c
    2c1c:	3400                	.2byte	0x3400
    2c1e:	1c5e0a03          	lb	s4,453(t3)
    2c22:	0000                	c.unimp
    2c24:	0335                	c.addi	t1,13
    2c26:	6e0a                	.2byte	0x6e0a
    2c28:	001c                	.2byte	0x1c
    2c2a:	3600                	.2byte	0x3600
    2c2c:	1c7e0a03          	lb	s4,455(t3)
    2c30:	0000                	c.unimp
    2c32:	8e0a0337          	lui	t1,0x8e0a0
    2c36:	001c                	.2byte	0x1c
    2c38:	3800                	.2byte	0x3800
    2c3a:	1c9e0a03          	lb	s4,457(t3)
    2c3e:	0000                	c.unimp
    2c40:	0339                	c.addi	t1,14 # 0x8e0a000e <boot_loader+0xe0a000e>
    2c42:	ae0a                	.2byte	0xae0a
    2c44:	001c                	.2byte	0x1c
    2c46:	3a00                	.2byte	0x3a00
    2c48:	1cbe0a03          	lb	s4,459(t3)
    2c4c:	0000                	c.unimp
    2c4e:	ce0a033b          	.4byte	0xce0a033b
    2c52:	001c                	.2byte	0x1c
    2c54:	3c00                	.2byte	0x3c00
    2c56:	1cde0a03          	lb	s4,461(t3)
    2c5a:	0000                	c.unimp
    2c5c:	033d                	c.addi	t1,15
    2c5e:	490a                	c.lwsp	s2,128(sp)
    2c60:	001d                	c.nop	7
    2c62:	3e00                	.2byte	0x3e00
    2c64:	1d590a03          	lb	s4,469(s2)
    2c68:	0000                	c.unimp
    2c6a:	070a033f 23000003 	.8byte	0x23000003070a033f
    2c72:	03950a07          	.4byte	0x3950a07
    2c76:	0000                	c.unimp
    2c78:	0724                	c.addi4spn	s1,sp,904
    2c7a:	960a                	c.add	a2,sp
    2c7c:	0004                	.2byte	0x4
    2c7e:	2500                	.2byte	0x2500
    2c80:	04dd0a07          	.4byte	0x4dd0a07
    2c84:	0000                	c.unimp
    2c86:	0726                	c.slli	a4,0x9
    2c88:	ea0a                	.2byte	0xea0a
    2c8a:	0005                	c.nop	1
    2c8c:	2700                	.2byte	0x2700
    2c8e:	06e10a07          	.4byte	0x6e10a07
    2c92:	0000                	c.unimp
    2c94:	0728                	c.addi4spn	a0,sp,904
    2c96:	ca0a                	c.swsp	sp,20(sp)
    2c98:	29000007          	.4byte	0x29000007
    2c9c:	0e230a07          	.4byte	0xe230a07
    2ca0:	0000                	c.unimp
    2ca2:	072a                	c.slli	a4,0xa
    2ca4:	5a0a                	c.lwsp	s4,160(sp)
    2ca6:	2b00000f          	.4byte	0x2b00000f
    2caa:	10960a07          	.4byte	0x10960a07
    2cae:	0000                	c.unimp
    2cb0:	072c                	c.addi4spn	a1,sp,904
    2cb2:	250a                	.2byte	0x250a
    2cb4:	0012                	c.slli	zero,0x4
    2cb6:	2d00                	.2byte	0x2d00
    2cb8:	13c90a07          	.4byte	0x13c90a07
    2cbc:	0000                	c.unimp
    2cbe:	072e                	c.slli	a4,0xb
    2cc0:	df0a                	c.swsp	sp,188(sp)
    2cc2:	0014                	.2byte	0x14
    2cc4:	2f00                	.2byte	0x2f00
    2cc6:	15ea0a07          	.4byte	0x15ea0a07
    2cca:	0000                	c.unimp
    2ccc:	0730                	c.addi4spn	a2,sp,904
    2cce:	cb0a                	c.swsp	sp,148(sp)
    2cd0:	0016                	c.slli	zero,0x5
    2cd2:	3100                	.2byte	0x3100
    2cd4:	17640a07          	.4byte	0x17640a07
    2cd8:	0000                	c.unimp
    2cda:	0732                	c.slli	a4,0xc
    2cdc:	3a0a                	.2byte	0x3a0a
    2cde:	0018                	.2byte	0x18
    2ce0:	3300                	.2byte	0x3300
    2ce2:	15fb0a07          	.4byte	0x15fb0a07
    2ce6:	0000                	c.unimp
    2ce8:	0734                	c.addi4spn	a3,sp,904
    2cea:	dc0a                	c.swsp	sp,56(sp)
    2cec:	0016                	c.slli	zero,0x5
    2cee:	3500                	.2byte	0x3500
    2cf0:	179d0a07          	.4byte	0x179d0a07
    2cf4:	0000                	c.unimp
    2cf6:	0736                	c.slli	a4,0xd
    2cf8:	4b0a                	c.lwsp	s6,128(sp)
    2cfa:	0018                	.2byte	0x18
    2cfc:	3700                	.2byte	0x3700
    2cfe:	1c0c0a07          	.4byte	0x1c0c0a07
    2d02:	0000                	c.unimp
    2d04:	0738                	c.addi4spn	a4,sp,904
    2d06:	e30a                	.2byte	0xe30a
    2d08:	0019                	c.nop	6
    2d0a:	3900                	.2byte	0x3900
    2d0c:	1a800a07          	.4byte	0x1a800a07
    2d10:	0000                	c.unimp
    2d12:	073a                	c.slli	a4,0xe
    2d14:	5a0a                	c.lwsp	s4,160(sp)
    2d16:	000a                	c.slli	zero,0x2
    2d18:	3b00                	.2byte	0x3b00
    2d1a:	08040a07          	.4byte	0x8040a07
    2d1e:	0000                	c.unimp
    2d20:	073c                	c.addi4spn	a5,sp,904
    2d22:	690a                	.2byte	0x690a
    2d24:	001d                	c.nop	7
    2d26:	3d00                	.2byte	0x3d00
    2d28:	1a990a07          	.4byte	0x1a990a07
    2d2c:	0000                	c.unimp
    2d2e:	073e                	c.slli	a4,0xf
    2d30:	ed0a                	.2byte	0xed0a
    2d32:	3f00001b          	.4byte	0x3f00001b
    2d36:	17580a07          	.4byte	0x17580a07
    2d3a:	0000                	c.unimp
    2d3c:	07a0                	c.addi4spn	s0,sp,968
    2d3e:	610a                	.2byte	0x610a
    2d40:	0008                	.2byte	0x8
    2d42:	a100                	.2byte	0xa100
    2d44:	17cc0a07          	.4byte	0x17cc0a07
    2d48:	0000                	c.unimp
    2d4a:	07a2                	c.slli	a5,0x8
    2d4c:	6c0a                	.2byte	0x6c0a
    2d4e:	0008                	.2byte	0x8
    2d50:	a300                	.2byte	0xa300
    2d52:	096a0a07          	.4byte	0x96a0a07
    2d56:	0000                	c.unimp
    2d58:	07b0                	c.addi4spn	a2,sp,968
    2d5a:	e50a                	.2byte	0xe50a
    2d5c:	b100000b          	lbgp	zero,-130288 # 0xfffe27a8 <boot_loader+0x7ffe27a8>
    2d60:	07e90a07          	.4byte	0x7e90a07
    2d64:	0000                	c.unimp
    2d66:	07b2                	c.slli	a5,0xc
    2d68:	c10a                	c.swsp	sp,128(sp)
    2d6a:	0005                	c.nop	1
    2d6c:	0000                	c.unimp
    2d6e:	0a08                	c.addi4spn	a0,sp,272
    2d70:	18b5                	c.addi	a7,-19 # 0xfffe3fed <boot_loader+0x7ffe3fed>
    2d72:	0000                	c.unimp
    2d74:	0801                	c.addi	a6,0
    2d76:	b50a                	.2byte	0xb50a
    2d78:	0005                	c.nop	1
    2d7a:	0900                	c.addi4spn	s0,sp,144
    2d7c:	0a08                	c.addi4spn	a0,sp,272
    2d7e:	00001867          	.4byte	0x1867
    2d82:	810a080b          	lbgp	a6,-110576 # 0xfffe74a8 <boot_loader+0x7ffe74a8>
    2d86:	0c000017          	auipc	zero,0xc000
    2d8a:	0a08                	c.addi4spn	a0,sp,272
    2d8c:	10b4                	c.addi4spn	a3,sp,104
    2d8e:	0000                	c.unimp
    2d90:	0810                	c.addi4spn	a2,sp,16
    2d92:	f70a                	.2byte	0xf70a
    2d94:	0016                	c.slli	zero,0x5
    2d96:	1100                	c.addi4spn	s0,sp,160
    2d98:	0a08                	c.addi4spn	a0,sp,272
    2d9a:	00001be3          	bnez	zero,0x35b0 <__global_pointer$+0x1118>
    2d9e:	0812                	c.slli	a6,0x4
    2da0:	fe0a                	.2byte	0xfe0a
    2da2:	1300001b          	.4byte	0x1300001b
    2da6:	0a08                	c.addi4spn	a0,sp,272
    2da8:	0a2a                	c.slli	s4,0xa
    2daa:	0000                	c.unimp
    2dac:	09c4                	c.addi4spn	s1,sp,212
    2dae:	440a                	c.lwsp	s0,128(sp)
    2db0:	000a                	c.slli	zero,0x2
    2db2:	c500                	c.sw	s0,8(a0)
    2db4:	0a09                	c.addi	s4,2
    2db6:	0a0d                	c.addi	s4,3
    2db8:	0000                	c.unimp
    2dba:	09c9                	c.addi	s3,18
    2dbc:	190a                	c.slli	s2,0x22
    2dbe:	001d                	c.nop	7
    2dc0:	cf00                	c.sw	s0,24(a4)
    2dc2:	0a09                	c.addi	s4,2
    2dc4:	0c90                	c.addi4spn	a2,sp,592
    2dc6:	0000                	c.unimp
    2dc8:	09d1                	c.addi	s3,20
    2dca:	9e0a                	c.add	t3,sp
    2dcc:	0008                	.2byte	0x8
    2dce:	d200                	c.sw	s0,32(a2)
    2dd0:	0a09                	c.addi	s4,2
    2dd2:	0cc0                	c.addi4spn	s0,sp,596
    2dd4:	0000                	c.unimp
    2dd6:	f70a09d3          	.4byte	0xf70a09d3
    2dda:	0002                	c.slli64	zero
    2ddc:	d400                	c.sw	s0,40(s0)
    2dde:	0a09                	c.addi	s4,2
    2de0:	00000f6b          	.4byte	0xf6b
    2de4:	09e0                	c.addi4spn	s0,sp,220
    2de6:	870a                	c.mv	a4,sp
    2de8:	e300000f          	.4byte	0xe300000f
    2dec:	0a09                	c.addi	s4,2
    2dee:	0f96                	c.slli	t6,0x5
    2df0:	0000                	c.unimp
    2df2:	09e4                	c.addi4spn	s1,sp,220
    2df4:	a50a                	.2byte	0xa50a
    2df6:	e500000f          	.4byte	0xe500000f
    2dfa:	0a09                	c.addi	s4,2
    2dfc:	0fb4                	c.addi4spn	a3,sp,984
    2dfe:	0000                	c.unimp
    2e00:	09e6                	c.slli	s3,0x19
    2e02:	dc0a                	c.swsp	sp,56(sp)
    2e04:	0015                	c.nop	5
    2e06:	cd00                	c.sw	s0,24(a0)
    2e08:	0a09                	c.addi	s4,2
    2e0a:	0e94                	c.addi4spn	a3,sp,848
    2e0c:	0000                	c.unimp
    2e0e:	09d0                	c.addi4spn	a2,sp,212
    2e10:	4d0a                	c.lwsp	s10,128(sp)
    2e12:	000a                	c.slli	zero,0x2
    2e14:	c000                	c.sw	s0,0(s0)
    2e16:	033e0a0f          	.4byte	0x33e0a0f
    2e1a:	0000                	c.unimp
    2e1c:	0fc1                	c.addi	t6,16
    2e1e:	a70a                	.2byte	0xa70a
    2e20:	0010                	.2byte	0x10
    2e22:	c200                	c.sw	s0,0(a2)
    2e24:	07f60a0f          	.4byte	0x7f60a0f
    2e28:	0000                	c.unimp
    2e2a:	940a0fc3          	.4byte	0x940a0fc3
    2e2e:	0018                	.2byte	0x18
    2e30:	c400                	c.sw	s0,8(s0)
    2e32:	1b000a0f          	.4byte	0x1b000a0f
    2e36:	0000                	c.unimp
    2e38:	060a0fc7          	.4byte	0x60a0fc7
    2e3c:	000c                	.2byte	0xc
    2e3e:	c800                	c.sw	s0,16(s0)
    2e40:	1a4a0a0f          	.4byte	0x1a4a0a0f
    2e44:	0000                	c.unimp
    2e46:	0fc9                	c.addi	t6,18
    2e48:	410a                	c.lwsp	sp,128(sp)
    2e4a:	001c                	.2byte	0x1c
    2e4c:	d000                	c.sw	s0,32(s0)
    2e4e:	16ed0a0f          	.4byte	0x16ed0a0f
    2e52:	0000                	c.unimp
    2e54:	0fd1                	c.addi	t6,20
    2e56:	de0a                	c.swsp	sp,60(sp)
    2e58:	000c                	.2byte	0xc
    2e5a:	c000                	c.sw	s0,0(s0)
    2e5c:	16170a07          	.4byte	0x16170a07
    2e60:	0000                	c.unimp
    2e62:	07c1                	c.addi	a5,16
    2e64:	250a                	.2byte	0x250a
    2e66:	c200000b          	lbgp	zero,-130016 # 0xfffe28b8 <boot_loader+0x7ffe28b8>
    2e6a:	0e8a0a07          	.4byte	0xe8a0a07
    2e6e:	0000                	c.unimp
    2e70:	e90a07c3          	.4byte	0xe90a07c3
    2e74:	0008                	.2byte	0x8
    2e76:	c500                	c.sw	s0,8(a0)
    2e78:	12360a07          	.4byte	0x12360a07
    2e7c:	0000                	c.unimp
    2e7e:	07ca                	c.slli	a5,0x12
    2e80:	8e0a                	c.mv	t3,sp
    2e82:	d0000007          	.4byte	0xd0000007
    2e86:	04d00a07          	.4byte	0x4d00a07
    2e8a:	0000                	c.unimp
    2e8c:	07df 1d0a 001c      	.byte	0xdf, 0x07, 0x0a, 0x1d, 0x1c, 0x00
    2e92:	cb00                	c.sw	s0,16(a4)
    2e94:	1c300a07          	.4byte	0x1c300a07
    2e98:	0000                	c.unimp
    2e9a:	07cc                	c.addi4spn	a1,sp,964
    2e9c:	6b0a                	.2byte	0x6b0a
    2e9e:	000a                	c.slli	zero,0x2
    2ea0:	cd00                	c.sw	s0,24(a0)
    2ea2:	0c1b0a07          	.4byte	0xc1b0a07
    2ea6:	0000                	c.unimp
    2ea8:	07f0                	c.addi4spn	a2,sp,972
    2eaa:	500a                	.2byte	0x500a
    2eac:	0015                	c.nop	5
    2eae:	f100                	.2byte	0xf100
    2eb0:	187a0a07          	.4byte	0x187a0a07
    2eb4:	0000                	c.unimp
    2eb6:	07c4                	c.addi4spn	s1,sp,964
    2eb8:	720a                	.2byte	0x720a
    2eba:	0004                	.2byte	0x4
    2ebc:	c900                	c.sw	s0,16(a0)
    2ebe:	08150a07          	.4byte	0x8150a07
    2ec2:	0000                	c.unimp
    2ec4:	07d5                	c.addi	a5,21
    2ec6:	fd0a                	.2byte	0xfd0a
    2ec8:	000d                	c.nop	3
    2eca:	d600                	c.sw	s0,40(a2)
    2ecc:	0a950a07          	.4byte	0xa950a07
    2ed0:	0000                	c.unimp
    2ed2:	d00a07d7          	.4byte	0xd00a07d7
    2ed6:	0009                	c.nop	2
    2ed8:	d800                	c.sw	s0,48(s0)
    2eda:	0aa30a07          	.4byte	0xaa30a07
    2ede:	0000                	c.unimp
    2ee0:	07d9                	c.addi	a5,22
    2ee2:	e00a                	.2byte	0xe00a
    2ee4:	0009                	c.nop	2
    2ee6:	da00                	c.sw	s0,48(a2)
    2ee8:	19c10a07          	.4byte	0x19c10a07
    2eec:	0000                	c.unimp
    2eee:	d20a07db          	.4byte	0xd20a07db
    2ef2:	0019                	c.nop	6
    2ef4:	dc00                	c.sw	s0,56(s0)
    2ef6:	04530a07          	.4byte	0x4530a07
    2efa:	0000                	c.unimp
    2efc:	07dd                	c.addi	a5,23
    2efe:	3f0a                	.2byte	0x3f0a
    2f00:	0009                	c.nop	2
    2f02:	de00                	c.sw	s0,56(a2)
    2f04:	17e90a07          	.4byte	0x17e90a07
    2f08:	0000                	c.unimp
    2f0a:	07c6                	c.slli	a5,0x11
    2f0c:	6a0a                	.2byte	0x6a0a
    2f0e:	0019                	c.nop	6
    2f10:	c700                	c.sw	s0,8(a4)
    2f12:	04890a07          	.4byte	0x4890a07
    2f16:	0000                	c.unimp
    2f18:	07c8                	c.addi4spn	a0,sp,964
    2f1a:	a30a                	.2byte	0xa30a
    2f1c:	000c                	.2byte	0xc
    2f1e:	ce00                	c.sw	s0,24(a2)
    2f20:	06a80a07          	.4byte	0x6a80a07
    2f24:	0000                	c.unimp
    2f26:	07d1                	c.addi	a5,20
    2f28:	bb0a                	.2byte	0xbb0a
    2f2a:	0006                	c.slli	zero,0x1
    2f2c:	d200                	c.sw	s0,32(a2)
    2f2e:	06ce0a07          	.4byte	0x6ce0a07
    2f32:	0000                	c.unimp
    2f34:	080a07d3          	.4byte	0x80a07d3
    2f38:	0019                	c.nop	6
    2f3a:	cf00                	c.sw	s0,24(a4)
    2f3c:	0ce80a07          	.4byte	0xce80a07
    2f40:	0000                	c.unimp
    2f42:	07d4                	c.addi4spn	a3,sp,964
    2f44:	b10a                	.2byte	0xb10a
    2f46:	000a                	c.slli	zero,0x2
    2f48:	2000                	.2byte	0x2000
    2f4a:	07a50a03          	lb	s4,122(a0)
    2f4e:	0000                	c.unimp
    2f50:	07ec                	c.addi4spn	a1,sp,972
    2f52:	830a                	c.mv	t1,sp
    2f54:	0008                	.2byte	0x8
    2f56:	ed00                	.2byte	0xed00
    2f58:	0e340a07          	.4byte	0xe340a07
    2f5c:	0000                	c.unimp
    2f5e:	07ee                	c.slli	a5,0x1b
    2f60:	a60a                	.2byte	0xa60a
    2f62:	0004                	.2byte	0x4
    2f64:	ef00                	.2byte	0xef00
    2f66:	0a190a07          	.4byte	0xa190a07
    2f6a:	0000                	c.unimp
    2f6c:	450a07eb          	.4byte	0x450a07eb
    2f70:	0012                	c.slli	zero,0x4
    2f72:	c000                	c.sw	s0,0(s0)
    2f74:	12510a0b          	lbgp	s4,67876 # 0x12dbc <__global_pointer$+0x10924>
    2f78:	0000                	c.unimp
    2f7a:	0bc1                	c.addi	s7,16
    2f7c:	5d0a                	c.lwsp	s10,160(sp)
    2f7e:	0012                	c.slli	zero,0x4
    2f80:	c200                	c.sw	s0,0(a2)
    2f82:	12690a0b          	lbgp	s4,82214 # 0x165be <__global_pointer$+0x14126>
    2f86:	0000                	c.unimp
    2f88:	600a0bc3          	.4byte	0x600a0bc3
    2f8c:	d000000b          	lbgp	zero,-129792 # 0xfffe2998 <boot_loader+0x7ffe2998>
    2f90:	03cc0a0b          	lbgp	s4,24636 # 0x84d4 <__global_pointer$+0x603c>
    2f94:	0000                	c.unimp
    2f96:	0bd1                	c.addi	s7,20
    2f98:	6d0a                	.2byte	0x6d0a
    2f9a:	d200000b          	lbgp	zero,-129760 # 0xfffe29b8 <boot_loader+0x7ffe29b8>
    2f9e:	03ea0a0b          	lbgp	s4,20542 # 0x74d6 <__global_pointer$+0x503e>
    2fa2:	0000                	c.unimp
    2fa4:	f70a0bd3          	.4byte	0xf70a0bd3
    2fa8:	d4000003          	lb	zero,-704(zero) # 0xfffffd40 <boot_loader+0x7ffffd40>
    2fac:	04040a0b          	lbgp	s4,8256 # 0x44d8 <__global_pointer$+0x2040>
    2fb0:	0000                	c.unimp
    2fb2:	0bd5                	c.addi	s7,21
    2fb4:	110a                	c.slli	sp,0x22
    2fb6:	0004                	.2byte	0x4
    2fb8:	d600                	c.sw	s0,40(a2)
    2fba:	041e0a0b          	lbgp	s4,30784 # 0x9cd8 <__global_pointer$+0x7840>
    2fbe:	0000                	c.unimp
    2fc0:	2b0a0bd7          	.4byte	0x2b0a0bd7
    2fc4:	0004                	.2byte	0x4
    2fc6:	d800                	c.sw	s0,48(s0)
    2fc8:	04380a0b          	lbgp	s4,18498 # 0x6cda <__global_pointer$+0x4842>
    2fcc:	0000                	c.unimp
    2fce:	0bd9                	c.addi	s7,22
    2fd0:	aa0a                	.2byte	0xaa0a
    2fd2:	001a                	c.slli	zero,0x6
    2fd4:	da00                	c.sw	s0,48(a2)
    2fd6:	1ab80a0b          	lbgp	s4,18858 # 0x6e42 <__global_pointer$+0x49aa>
    2fda:	0000                	c.unimp
    2fdc:	060a0bdb          	.4byte	0x60a0bdb
    2fe0:	dc000017          	auipc	zero,0xdc000
    2fe4:	0db70a0b          	lbgp	s4,80090 # 0x15d72 <__global_pointer$+0x138da>
    2fe8:	0000                	c.unimp
    2fea:	0bdd                	c.addi	s7,23
    2fec:	c50a                	c.swsp	sp,136(sp)
    2fee:	000d                	c.nop	3
    2ff0:	de00                	c.sw	s0,56(a2)
    2ff2:	0dd30a0b          	lbgp	s4,71900 # 0x13d74 <__global_pointer$+0x118dc>
    2ff6:	0000                	c.unimp
    2ff8:	0bdf 880a 0003      	.byte	0xdf, 0x0b, 0x0a, 0x88, 0x03, 0x00
    2ffe:	a100                	.2byte	0xa100
    3000:	037d0a07          	.4byte	0x37d0a07
    3004:	0000                	c.unimp
    3006:	07a1                	c.addi	a5,8
    3008:	160a                	c.slli	a2,0x22
    300a:	000e                	c.slli	zero,0x3
    300c:	a100                	.2byte	0xa100
    300e:	13900a07          	.4byte	0x13900a07
    3012:	0000                	c.unimp
    3014:	07a1                	c.addi	a5,8
    3016:	ca0a                	c.swsp	sp,20(sp)
    3018:	0005                	c.nop	1
    301a:	a300                	.2byte	0xa300
    301c:	084c0a07          	.4byte	0x84c0a07
    3020:	0000                	c.unimp
    3022:	fe0a07a3          	sb	zero,-17(s4)
    3026:	a4000013          	li	zero,-1472
    302a:	18870a07          	.4byte	0x18870a07
    302e:	0000                	c.unimp
    3030:	07a5                	c.addi	a5,9
    3032:	2f0a                	.2byte	0x2f0a
    3034:	0016                	c.slli	zero,0x5
    3036:	a800                	.2byte	0xa800
    3038:	19780a07          	.4byte	0x19780a07
    303c:	0000                	c.unimp
    303e:	07aa                	c.slli	a5,0xa
    3040:	f00a                	.2byte	0xf00a
    3042:	0009                	c.nop	2
    3044:	b200                	.2byte	0xb200
    3046:	0c250a07          	.4byte	0xc250a07
    304a:	0000                	c.unimp
    304c:	2a0a07b3          	.4byte	0x2a0a07b3
    3050:	001a                	c.slli	zero,0x6
    3052:	e000                	.2byte	0xe000
    3054:	09030a07          	.4byte	0x9030a07
    3058:	0000                	c.unimp
    305a:	07e1                	c.addi	a5,24
    305c:	0d0a                	c.slli	s10,0x2
    305e:	000e                	c.slli	zero,0x3
    3060:	0700                	c.addi4spn	s0,sp,896
    3062:	11610a03          	lb	s4,278(sp)
    3066:	0000                	c.unimp
    3068:	0345                	c.addi	t1,17
    306a:	fc0a                	.2byte	0xfc0a
    306c:	0014                	.2byte	0x14
    306e:	4700                	c.lw	s0,8(a4)
    3070:	0c3f0a03          	lb	s4,195(t5)
    3074:	0000                	c.unimp
    3076:	0348                	c.addi4spn	a0,sp,388
    3078:	980a                	c.add	a6,sp
    307a:	0012                	c.slli	zero,0x4
    307c:	4900                	c.lw	s0,16(a0)
    307e:	0cd30903          	lb	s2,205(t1)
    3082:	0000                	c.unimp
    3084:	0908                	c.addi4spn	a0,sp,144
    3086:	1ad1                	c.addi	s5,-12
    3088:	0000                	c.unimp
    308a:	0909                	c.addi	s2,2
    308c:	1190                	c.addi4spn	a2,sp,224
    308e:	0000                	c.unimp
    3090:	090a                	c.slli	s2,0x2
    3092:	0b1c                	c.addi4spn	a5,sp,400
    3094:	0000                	c.unimp
    3096:	05d70a0f          	.4byte	0x5d70a0f
    309a:	0000                	c.unimp
    309c:	0c20                	c.addi4spn	s0,sp,536
    309e:	fc0a                	.2byte	0xfc0a
    30a0:	2100000b          	lbgp	zero,528 # 0x26a8 <__global_pointer$+0x210>
    30a4:	0a0c                	c.addi4spn	a1,sp,272
    30a6:	0960                	c.addi4spn	s0,sp,156
    30a8:	0000                	c.unimp
    30aa:	0c22                	c.slli	s8,0x8
    30ac:	bc0a                	.2byte	0xbc0a
    30ae:	0010                	.2byte	0x10
    30b0:	ca00                	c.sw	s0,16(a2)
    30b2:	035a0a0f          	.4byte	0x35a0a0f
    30b6:	0000                	c.unimp
    30b8:	bf0a0fcb          	.4byte	0xbf0a0fcb
    30bc:	0018                	.2byte	0x18
    30be:	cf00                	c.sw	s0,24(a4)
    30c0:	0b070a0f          	.4byte	0xb070a0f
    30c4:	0000                	c.unimp
    30c6:	0b000fcf          	.4byte	0xb000fcf
    30ca:	1f1f 0000 1401      	.byte	0x1f, 0x1f, 0x00, 0x00, 0x01, 0x14
    30d0:	c610                	c.sw	a2,8(a2)
    30d2:	000c                	.2byte	0xc
    30d4:	0700                	c.addi4spn	s0,sp,896
    30d6:	0cb5                	c.addi	s9,13
    30d8:	0000                	c.unimp
    30da:	0405                	c.addi	s0,1
    30dc:	0ccc                	c.addi4spn	a1,sp,596
    30de:	0000                	c.unimp
    30e0:	0d0c                	c.addi4spn	a1,sp,656
    30e2:	0cc1                	c.addi	s9,16
    30e4:	0000                	c.unimp
    30e6:	0cdd                	c.addi	s9,23
    30e8:	0000                	c.unimp
    30ea:	640e                	.2byte	0x640e
    30ec:	0000                	c.unimp
    30ee:	1f00                	c.addi4spn	s0,sp,944
    30f0:	0700                	c.addi4spn	s0,sp,896
    30f2:	0ccd                	c.addi	s9,19
    30f4:	0000                	c.unimp
    30f6:	001f460f          	.4byte	0x1f460f
    30fa:	0100                	c.addi4spn	s0,sp,128
    30fc:	103c                	c.addi4spn	a5,sp,40
    30fe:	0cdd                	c.addi	s9,23
    3100:	0000                	c.unimp
    3102:	0305                	c.addi	t1,1
    3104:	1a18                	c.addi4spn	a4,sp,304
    3106:	0000                	c.unimp
    3108:	2110                	.2byte	0x2110
    310a:	0001                	c.nop
    310c:	0400                	c.addi4spn	s0,sp,512
    310e:	05ba                	c.slli	a1,0xe
    3110:	005d                	c.nop	23
    3112:	0000                	c.unimp
    3114:	00000d0b          	lbgp	s10,0 # 0x2498 <__global_pointer$>
    3118:	7d11                	c.lui	s10,0xfffe4
    311a:	0000                	c.unimp
    311c:	1200                	c.addi4spn	s0,sp,288
    311e:	1300                	c.addi4spn	s0,sp,416
    3120:	07da                	c.slli	a5,0x16
    3122:	0000                	c.unimp
    3124:	6201                	.2byte	0x6201
    3126:	a406                	.2byte	0xa406
    3128:	0009                	c.nop	2
    312a:	7400                	.2byte	0x7400
    312c:	0000                	c.unimp
    312e:	0100                	c.addi4spn	s0,sp,128
    3130:	5a9c                	c.lw	a5,48(a3)
    3132:	000d                	c.nop	3
    3134:	1400                	c.addi4spn	s0,sp,544
    3136:	1f14                	c.addi4spn	a3,sp,944
    3138:	0000                	c.unimp
    313a:	6201                	.2byte	0x6201
    313c:	6422                	.2byte	0x6422
    313e:	0000                	c.unimp
    3140:	0200                	c.addi4spn	s0,sp,256
    3142:	5c91                	c.li	s9,-28
    3144:	6c15                	c.lui	s8,0x5
    3146:	000d                	c.nop	3
    3148:	d400                	c.sw	s0,40(s0)
    314a:	0009                	c.nop	2
    314c:	3000                	.2byte	0x3000
    314e:	0000                	c.unimp
    3150:	0100                	c.addi4spn	s0,sp,128
    3152:	026a                	c.slli	tp,0x1a
    3154:	7916                	.2byte	0x7916
    3156:	000d                	c.nop	3
    3158:	0200                	c.addi4spn	s0,sp,256
    315a:	6c91                	c.lui	s9,0x4
    315c:	000d8517          	auipc	a0,0xd8
    3160:	0200                	c.addi4spn	s0,sp,256
    3162:	6891                	c.lui	a7,0x4
    3164:	000d9117          	auipc	sp,0xd9
    3168:	0200                	c.addi4spn	s0,sp,256
    316a:	6491                	c.lui	s1,0x4
    316c:	0000                	c.unimp
    316e:	3e18                	.2byte	0x3e18
    3170:	001f 0100 0617      	.byte	0x1f, 0x00, 0x00, 0x01, 0x17, 0x06
    3176:	0984                	c.addi4spn	s1,sp,208
    3178:	0000                	c.unimp
    317a:	0020                	c.addi4spn	s0,sp,8
    317c:	0000                	c.unimp
    317e:	9c01                	.2byte	0x9c01
    3180:	f519                	c.bnez	a0,0x308e <__global_pointer$+0xbf6>
    3182:	001e                	c.slli	zero,0x7
    3184:	0300                	c.addi4spn	s0,sp,384
    3186:	3376                	.2byte	0x3376
    3188:	000d9e03          	lh	t3,0(s11)
    318c:	1a00                	c.addi4spn	s0,sp,304
    318e:	1f18                	c.addi4spn	a4,sp,944
    3190:	0000                	c.unimp
    3192:	645f7603          	.4byte	0x645f7603
    3196:	0000                	c.unimp
    3198:	1b00                	c.addi4spn	s0,sp,432
    319a:	0000082b          	shgp	zero,16 # 0x24a8 <__global_pointer$+0x10>
    319e:	64107803          	.4byte	0x64107803
    31a2:	0000                	c.unimp
    31a4:	1b00                	c.addi4spn	s0,sp,432
    31a6:	047e                	c.slli	s0,0x1f
    31a8:	0000                	c.unimp
    31aa:	9e1a7903          	.4byte	0x9e1a7903
    31ae:	000d                	c.nop	3
    31b0:	0000                	c.unimp
    31b2:	0405                	c.addi	s0,1
    31b4:	0000006b          	.4byte	0x6b
    31b8:	bb1c                	.2byte	0xbb1c
    31ba:	0000                	c.unimp
    31bc:	0200                	c.addi4spn	s0,sp,256
    31be:	150d                	c.addi	a0,-29 # 0xdb13f <__global_pointer$+0xd8ca7>
    31c0:	0064                	c.addi4spn	s1,sp,12
    31c2:	0000                	c.unimp
    31c4:	0910                	c.addi4spn	a2,sp,144
    31c6:	0000                	c.unimp
    31c8:	0074                	c.addi4spn	a3,sp,12
    31ca:	0000                	c.unimp
    31cc:	9c01                	.2byte	0x9c01
    31ce:	0e04                	c.addi4spn	s1,sp,784
    31d0:	0000                	c.unimp
    31d2:	611d                	c.addi16sp	sp,416
    31d4:	0200                	c.addi4spn	s0,sp,256
    31d6:	2e0d                	c.jal	0x3508 <__global_pointer$+0x1070>
    31d8:	0064                	c.addi4spn	s1,sp,12
    31da:	0000                	c.unimp
    31dc:	9102                	c.jalr	sp
    31de:	1e6c                	c.addi4spn	a1,sp,828
    31e0:	3062                	.2byte	0x3062
    31e2:	0200                	c.addi4spn	s0,sp,256
    31e4:	0064100f          	.4byte	0x64100f
    31e8:	0000                	c.unimp
    31ea:	9102                	c.jalr	sp
    31ec:	1e7c                	c.addi4spn	a5,sp,828
    31ee:	3162                	.2byte	0x3162
    31f0:	0200                	c.addi4spn	s0,sp,256
    31f2:	1010                	c.addi4spn	a2,sp,32
    31f4:	0064                	c.addi4spn	s1,sp,12
    31f6:	0000                	c.unimp
    31f8:	9102                	c.jalr	sp
    31fa:	1e78                	c.addi4spn	a4,sp,828
    31fc:	3262                	.2byte	0x3262
    31fe:	0200                	c.addi4spn	s0,sp,256
    3200:	1011                	c.nop	-28
    3202:	0064                	c.addi4spn	s1,sp,12
    3204:	0000                	c.unimp
    3206:	9102                	c.jalr	sp
    3208:	1e74                	c.addi4spn	a3,sp,828
    320a:	3362                	.2byte	0x3362
    320c:	0200                	c.addi4spn	s0,sp,256
    320e:	1012                	c.slli	zero,0x24
    3210:	0064                	c.addi4spn	s1,sp,12
    3212:	0000                	c.unimp
    3214:	9102                	c.jalr	sp
    3216:	0070                	c.addi4spn	a2,sp,12
    3218:	001f 0000 0200      	.byte	0x1f, 0x00, 0x00, 0x00, 0x00, 0x02
    321e:	00641507          	.4byte	0x641507
    3222:	0000                	c.unimp
    3224:	08cc                	c.addi4spn	a1,sp,84
    3226:	0000                	c.unimp
    3228:	0044                	c.addi4spn	s1,sp,4
    322a:	0000                	c.unimp
    322c:	9c01                	.2byte	0x9c01
    322e:	761d                	c.lui	a2,0xfffe7
    3230:	6c61                	c.lui	s8,0x18
    3232:	0200                	c.addi4spn	s0,sp,256
    3234:	00642e07          	.4byte	0x642e07
    3238:	0000                	c.unimp
    323a:	9102                	c.jalr	sp
    323c:	1d6c                	c.addi4spn	a1,sp,700
    323e:	6f72                	.2byte	0x6f72
    3240:	0072                	c.slli	zero,0x1c
    3242:	0702                	c.slli64	a4
    3244:	6440                	.2byte	0x6440
    3246:	0000                	c.unimp
    3248:	0200                	c.addi4spn	s0,sp,256
    324a:	6891                	c.lui	a7,0x4
    324c:	0720                	c.addi4spn	s0,sp,904
    324e:	0000                	c.unimp
    3250:	0200                	c.addi4spn	s0,sp,256
    3252:	1009                	c.nop	-30
    3254:	0064                	c.addi4spn	s1,sp,12
    3256:	0000                	c.unimp
    3258:	9102                	c.jalr	sp
    325a:	007c                	c.addi4spn	a5,sp,12
    325c:	0700                	c.addi4spn	s0,sp,896
    325e:	04000003          	lb	zero,64(zero) # 0x40 <__nds__rotr>
    3262:	1200                	c.addi4spn	s0,sp,288
    3264:	0008                	.2byte	0x8
    3266:	0400                	c.addi4spn	s0,sp,512
    3268:	bb01                	c.j	0x2f78 <__global_pointer$+0xae0>
    326a:	0001                	c.nop
    326c:	0c00                	c.addi4spn	s0,sp,528
    326e:	1f52                	c.slli	t5,0x34
    3270:	0000                	c.unimp
    3272:	0150                	c.addi4spn	a2,sp,132
    3274:	0000                	c.unimp
    3276:	0a18                	c.addi4spn	a4,sp,272
    3278:	0000                	c.unimp
    327a:	025c                	c.addi4spn	a5,sp,260
    327c:	0000                	c.unimp
    327e:	0b98                	c.addi4spn	a4,sp,464
    3280:	0000                	c.unimp
    3282:	0402                	c.slli64	s0
    3284:	0000e307          	.4byte	0xe307
    3288:	0300                	c.addi4spn	s0,sp,384
    328a:	0025                	c.nop	9
    328c:	0000                	c.unimp
    328e:	2c04                	.2byte	0x2c04
    3290:	0000                	c.unimp
    3292:	0200                	c.addi4spn	s0,sp,256
    3294:	0601                	c.addi	a2,0 # 0xfffe7000 <boot_loader+0x7ffe7000>
    3296:	009d                	c.addi	ra,7
    3298:	0000                	c.unimp
    329a:	0202                	c.slli64	tp
    329c:	3305                	c.jal	0x2fbc <__global_pointer$+0xb24>
    329e:	0001                	c.nop
    32a0:	0500                	c.addi4spn	s0,sp,640
    32a2:	0504                	c.addi4spn	s1,sp,640
    32a4:	6e69                	c.lui	t3,0x1a
    32a6:	0074                	c.addi4spn	a3,sp,12
    32a8:	0102                	c.slli64	sp
    32aa:	9b08                	exec.it	#964     !
    32ac:	0000                	c.unimp
    32ae:	0200                	c.addi4spn	s0,sp,256
    32b0:	0702                	c.slli64	a4
    32b2:	0076                	c.slli	zero,0x1d
    32b4:	0000                	c.unimp
    32b6:	2506                	.2byte	0x2506
    32b8:	0000                	c.unimp
    32ba:	6900                	.2byte	0x6900
    32bc:	0000                	c.unimp
    32be:	0700                	c.addi4spn	s0,sp,896
    32c0:	0025                	c.nop	9
    32c2:	0000                	c.unimp
    32c4:	0002                	c.slli64	zero
    32c6:	2506                	.2byte	0x2506
    32c8:	0000                	c.unimp
    32ca:	7900                	.2byte	0x7900
    32cc:	0000                	c.unimp
    32ce:	0700                	c.addi4spn	s0,sp,896
    32d0:	0025                	c.nop	9
    32d2:	0000                	c.unimp
    32d4:	0001                	c.nop
    32d6:	0408                	c.addi4spn	a0,sp,512
    32d8:	a702a403          	lw	s0,-1424(t0)
    32dc:	0000                	c.unimp
    32de:	0900                	c.addi4spn	s0,sp,144
    32e0:	4252                	c.lwsp	tp,20(sp)
    32e2:	0052                	c.slli	zero,0x14
    32e4:	3115a603          	lw	a2,785(a1)
    32e8:	0000                	c.unimp
    32ea:	0900                	c.addi4spn	s0,sp,144
    32ec:	4854                	c.lw	a3,20(s0)
    32ee:	0052                	c.slli	zero,0x14
    32f0:	2c15a703          	lw	a4,705(a1)
    32f4:	0000                	c.unimp
    32f6:	0900                	c.addi4spn	s0,sp,144
    32f8:	4c44                	c.lw	s1,28(s0)
    32fa:	004c                	c.addi4spn	a1,sp,4
    32fc:	2c15a803          	lw	a6,705(a1)
    3300:	0000                	c.unimp
    3302:	0000                	c.unimp
    3304:	0408                	c.addi4spn	a0,sp,512
    3306:	c902aa03          	lw	s4,-880(t0)
    330a:	0000                	c.unimp
    330c:	0900                	c.addi4spn	s0,sp,144
    330e:	4549                	c.li	a0,18
    3310:	0052                	c.slli	zero,0x14
    3312:	2c15ac03          	lw	s8,705(a1)
    3316:	0000                	c.unimp
    3318:	0900                	c.addi4spn	s0,sp,144
    331a:	4c44                	c.lw	s1,28(s0)
    331c:	004d                	c.nop	19
    331e:	2c15ad03          	lw	s10,705(a1)
    3322:	0000                	c.unimp
    3324:	0000                	c.unimp
    3326:	0408                	c.addi4spn	a0,sp,512
    3328:	eb02af03          	lw	t5,-336(t0)
    332c:	0000                	c.unimp
    332e:	0900                	c.addi4spn	s0,sp,144
    3330:	4949                	c.li	s2,18
    3332:	0052                	c.slli	zero,0x14
    3334:	3115b103          	.4byte	0x3115b103
    3338:	0000                	c.unimp
    333a:	0900                	c.addi4spn	s0,sp,144
    333c:	4346                	c.lwsp	t1,80(sp)
    333e:	0052                	c.slli	zero,0x14
    3340:	2c15b203          	.4byte	0x2c15b203
    3344:	0000                	c.unimp
    3346:	0000                	c.unimp
    3348:	400a                	.2byte	0x400a
    334a:	89099d03          	lh	s10,-1904(s3)
    334e:	0001                	c.nop
    3350:	0b00                	c.addi4spn	s0,sp,400
    3352:	00001f77          	.4byte	0x1f77
    3356:	31149f03          	lh	t5,785(s1) # 0x4311 <__global_pointer$+0x1e79>
    335a:	0000                	c.unimp
    335c:	0000                	c.unimp
    335e:	001e5f0b          	addigp	t5,30721 # 0x9c99 <__global_pointer$+0x7801>
    3362:	0300                	c.addi4spn	s0,sp,384
    3364:	14a0                	c.addi4spn	s0,sp,616
    3366:	0059                	c.nop	22
    3368:	0000                	c.unimp
    336a:	0c04                	c.addi4spn	s1,sp,528
    336c:	00474643          	.4byte	0x474643
    3370:	3114a103          	lw	sp,785(s1)
    3374:	0000                	c.unimp
    3376:	1000                	c.addi4spn	s0,sp,32
    3378:	001fa20b          	lbugp	tp,129024 # 0x21c98 <__global_pointer$+0x1f800>
    337c:	0300                	c.addi4spn	s0,sp,384
    337e:	14a2                	c.slli	s1,0x28
    3380:	002c                	c.addi4spn	a1,sp,8
    3382:	0000                	c.unimp
    3384:	0b14                	c.addi4spn	a3,sp,400
    3386:	1e69                	c.addi	t3,-6 # 0x19ffa <__global_pointer$+0x17b62>
    3388:	0000                	c.unimp
    338a:	6914a303          	lw	t1,1681(s1)
    338e:	0000                	c.unimp
    3390:	1800                	c.addi4spn	s0,sp,48
    3392:	790d                	c.lui	s2,0xfffe3
    3394:	0000                	c.unimp
    3396:	2000                	.2byte	0x2000
    3398:	a70d                	c.j	0x3aba <__global_pointer$+0x1622>
    339a:	0000                	c.unimp
    339c:	2400                	.2byte	0x2400
    339e:	c90d                	c.beqz	a0,0x33d0 <__global_pointer$+0xf38>
    33a0:	0000                	c.unimp
    33a2:	2800                	.2byte	0x2800
    33a4:	4c0c                	c.lw	a1,24(s0)
    33a6:	03005243          	.4byte	0x3005243
    33aa:	14b4                	c.addi4spn	a3,sp,616
    33ac:	002c                	c.addi4spn	a1,sp,8
    33ae:	0000                	c.unimp
    33b0:	0c2c                	c.addi4spn	a1,sp,536
    33b2:	434d                	c.li	t1,19
    33b4:	0052                	c.slli	zero,0x14
    33b6:	2c14b503          	.4byte	0x2c14b503
    33ba:	0000                	c.unimp
    33bc:	3000                	.2byte	0x3000
    33be:	4c0c                	c.lw	a1,24(s0)
    33c0:	03005253          	.4byte	0x3005253
    33c4:	14b6                	c.slli	s1,0x2d
    33c6:	002c                	c.addi4spn	a1,sp,8
    33c8:	0000                	c.unimp
    33ca:	0c34                	c.addi4spn	a3,sp,536
    33cc:	534d                	c.li	t1,-13
    33ce:	0052                	c.slli	zero,0x14
    33d0:	2c14b703          	.4byte	0x2c14b703
    33d4:	0000                	c.unimp
    33d6:	3800                	.2byte	0x3800
    33d8:	530c                	c.lw	a1,32(a4)
    33da:	03005243          	.4byte	0x3005243
    33de:	14b8                	c.addi4spn	a4,sp,616
    33e0:	002c                	c.addi4spn	a1,sp,8
    33e2:	0000                	c.unimp
    33e4:	003c                	c.addi4spn	a5,sp,8
    33e6:	610e                	.2byte	0x610e
    33e8:	001f 0300 03b9      	.byte	0x1f, 0x00, 0x00, 0x03, 0xb9, 0x03
    33ee:	000000eb          	.4byte	0xeb
    33f2:	001f900f          	.4byte	0x1f900f
    33f6:	0100                	c.addi4spn	s0,sp,128
    33f8:	0556                	c.slli	a0,0x15
    33fa:	0044                	c.addi4spn	s1,sp,4
    33fc:	0000                	c.unimp
    33fe:	0c38                	c.addi4spn	a4,sp,536
    3400:	0000                	c.unimp
    3402:	003c                	c.addi4spn	a5,sp,8
    3404:	0000                	c.unimp
    3406:	9c01                	.2byte	0x9c01
    3408:	01bd                	c.addi	gp,15 # 0x24a7 <__global_pointer$+0xf>
    340a:	0000                	c.unimp
    340c:	6310                	.2byte	0x6310
    340e:	0100                	c.addi4spn	s0,sp,128
    3410:	1156                	c.slli	sp,0x35
    3412:	0044                	c.addi4spn	s1,sp,4
    3414:	0000                	c.unimp
    3416:	9102                	c.jalr	sp
    3418:	006c                	c.addi4spn	a1,sp,12
    341a:	001f980f          	.4byte	0x1f980f
    341e:	0100                	c.addi4spn	s0,sp,128
    3420:	0541                	c.addi	a0,16
    3422:	0044                	c.addi4spn	s1,sp,4
    3424:	0000                	c.unimp
    3426:	0bc4                	c.addi4spn	s1,sp,468
    3428:	0000                	c.unimp
    342a:	0074                	c.addi4spn	a3,sp,12
    342c:	0000                	c.unimp
    342e:	9c01                	.2byte	0x9c01
    3430:	01f4                	c.addi4spn	a3,sp,204
    3432:	0000                	c.unimp
    3434:	7310                	.2byte	0x7310
    3436:	0100                	c.addi4spn	s0,sp,128
    3438:	1b41                	c.addi	s6,-16
    343a:	01f4                	c.addi4spn	a3,sp,204
    343c:	0000                	c.unimp
    343e:	9102                	c.jalr	sp
    3440:	115c                	c.addi4spn	a5,sp,164
    3442:	656c                	.2byte	0x656c
    3444:	006e                	c.slli	zero,0x1b
    3446:	4301                	c.li	t1,0
    3448:	4406                	c.lwsp	s0,64(sp)
    344a:	0000                	c.unimp
    344c:	0200                	c.addi4spn	s0,sp,256
    344e:	6c91                	c.lui	s9,0x4
    3450:	1200                	c.addi4spn	s0,sp,288
    3452:	0104                	c.addi4spn	s1,sp,128
    3454:	0002                	c.slli64	zero
    3456:	0200                	c.addi4spn	s0,sp,256
    3458:	0801                	c.addi	a6,0
    345a:	00a4                	c.addi4spn	s1,sp,72
    345c:	0000                	c.unimp
    345e:	fa04                	.2byte	0xfa04
    3460:	0001                	c.nop
    3462:	1300                	c.addi4spn	s0,sp,416
    3464:	1f86                	c.slli	t6,0x21
    3466:	0000                	c.unimp
    3468:	3701                	c.jal	0x3368 <__global_pointer$+0xed0>
    346a:	9006                	c.add	zero,ra
    346c:	3400000b          	lbgp	zero,832 # 0x27d8 <__global_pointer$+0x340>
    3470:	0000                	c.unimp
    3472:	0100                	c.addi4spn	s0,sp,128
    3474:	2a9c                	.2byte	0x2a9c
    3476:	0002                	c.slli64	zero
    3478:	1000                	c.addi4spn	s0,sp,32
    347a:	37010063          	beq	sp,a6,0x37da <__global_pointer$+0x1342>
    347e:	4414                	c.lw	a3,8(s0)
    3480:	0000                	c.unimp
    3482:	0200                	c.addi4spn	s0,sp,256
    3484:	7c91                	c.lui	s9,0xfffe4
    3486:	1400                	c.addi4spn	s0,sp,544
    3488:	1f6d                	c.addi	t5,-5
    348a:	0000                	c.unimp
    348c:	2d01                	c.jal	0x3a9c <__global_pointer$+0x1604>
    348e:	4405                	c.li	s0,1
    3490:	0000                	c.unimp
    3492:	6c00                	.2byte	0x6c00
    3494:	2400000b          	lbgp	zero,576 # 0x26d8 <__global_pointer$+0x240>
    3498:	0000                	c.unimp
    349a:	0100                	c.addi4spn	s0,sp,128
    349c:	139c                	c.addi4spn	a5,sp,480
    349e:	003e                	c.slli	zero,0xf
    34a0:	0000                	c.unimp
    34a2:	1c01                	c.addi	s8,-32 # 0x17fe0 <__global_pointer$+0x15b48>
    34a4:	d006                	c.swsp	ra,32(sp)
    34a6:	000a                	c.slli	zero,0x2
    34a8:	9c00                	exec.it	#262     !
    34aa:	0000                	c.unimp
    34ac:	0100                	c.addi4spn	s0,sp,128
    34ae:	669c                	.2byte	0x669c
    34b0:	0002                	c.slli64	zero
    34b2:	1500                	c.addi4spn	s0,sp,672
    34b4:	1f7d                	c.addi	t5,-1
    34b6:	0000                	c.unimp
    34b8:	1c01                	c.addi	s8,-32
    34ba:	251d                	c.jal	0x3ae0 <__global_pointer$+0x1648>
    34bc:	0000                	c.unimp
    34be:	0200                	c.addi4spn	s0,sp,256
    34c0:	7c91                	c.lui	s9,0xfffe4
    34c2:	1600                	c.addi4spn	s0,sp,800
    34c4:	000000bb          	.4byte	0xbb
    34c8:	0d02                	c.slli64	s10
    34ca:	2515                	c.jal	0x3aee <__global_pointer$+0x1656>
    34cc:	0000                	c.unimp
    34ce:	5c00                	c.lw	s0,56(s0)
    34d0:	000a                	c.slli	zero,0x2
    34d2:	7400                	.2byte	0x7400
    34d4:	0000                	c.unimp
    34d6:	0100                	c.addi4spn	s0,sp,128
    34d8:	c69c                	c.sw	a5,8(a3)
    34da:	0002                	c.slli64	zero
    34dc:	1000                	c.addi4spn	s0,sp,32
    34de:	0061                	c.nop	24
    34e0:	0d02                	c.slli64	s10
    34e2:	252e                	.2byte	0x252e
    34e4:	0000                	c.unimp
    34e6:	0200                	c.addi4spn	s0,sp,256
    34e8:	6c91                	c.lui	s9,0x4
    34ea:	6211                	c.lui	tp,0x4
    34ec:	0030                	c.addi4spn	a2,sp,8
    34ee:	0f02                	c.slli64	t5
    34f0:	2510                	.2byte	0x2510
    34f2:	0000                	c.unimp
    34f4:	0200                	c.addi4spn	s0,sp,256
    34f6:	7c91                	c.lui	s9,0xfffe4
    34f8:	6211                	c.lui	tp,0x4
    34fa:	0031                	c.nop	12
    34fc:	1002                	c.slli	zero,0x20
    34fe:	2510                	.2byte	0x2510
    3500:	0000                	c.unimp
    3502:	0200                	c.addi4spn	s0,sp,256
    3504:	7891                	c.lui	a7,0xfffe4
    3506:	6211                	c.lui	tp,0x4
    3508:	0032                	c.slli	zero,0xc
    350a:	1102                	c.slli	sp,0x20
    350c:	2510                	.2byte	0x2510
    350e:	0000                	c.unimp
    3510:	0200                	c.addi4spn	s0,sp,256
    3512:	7491                	c.lui	s1,0xfffe4
    3514:	6211                	c.lui	tp,0x4
    3516:	12020033          	.4byte	0x12020033
    351a:	2510                	.2byte	0x2510
    351c:	0000                	c.unimp
    351e:	0200                	c.addi4spn	s0,sp,256
    3520:	7091                	c.lui	ra,0xfffe4
    3522:	1700                	c.addi4spn	s0,sp,928
    3524:	0000                	c.unimp
    3526:	0000                	c.unimp
    3528:	0702                	c.slli64	a4
    352a:	2515                	c.jal	0x3b4e <__global_pointer$+0x16b6>
    352c:	0000                	c.unimp
    352e:	1800                	c.addi4spn	s0,sp,48
    3530:	000a                	c.slli	zero,0x2
    3532:	4400                	c.lw	s0,8(s0)
    3534:	0000                	c.unimp
    3536:	0100                	c.addi4spn	s0,sp,128
    3538:	109c                	c.addi4spn	a5,sp,96
    353a:	6176                	.2byte	0x6176
    353c:	006c                	c.addi4spn	a1,sp,12
    353e:	0702                	c.slli64	a4
    3540:	252e                	.2byte	0x252e
    3542:	0000                	c.unimp
    3544:	0200                	c.addi4spn	s0,sp,256
    3546:	6c91                	c.lui	s9,0x4
    3548:	7210                	.2byte	0x7210
    354a:	0200726f          	jal	tp,0xa56a <__global_pointer$+0x80d2>
    354e:	00254007          	.4byte	0x254007
    3552:	0000                	c.unimp
    3554:	9102                	c.jalr	sp
    3556:	1868                	c.addi4spn	a0,sp,60
    3558:	00000007          	.4byte	0x7
    355c:	0902                	c.slli64	s2
    355e:	2510                	.2byte	0x2510
    3560:	0000                	c.unimp
    3562:	0200                	c.addi4spn	s0,sp,256
    3564:	7c91                	c.lui	s9,0xfffe4
    3566:	0000                	c.unimp
    3568:	00000dbf 099c0004 	.8byte	0x99c000400000dbf
    3570:	0000                	c.unimp
    3572:	0104                	c.addi4spn	s1,sp,128
    3574:	000001bb          	.4byte	0x1bb
    3578:	d30c                	c.sw	a1,32(a4)
    357a:	001f 5000 0001      	.byte	0x1f, 0x00, 0x00, 0x50, 0x01, 0x00
    3580:	7400                	.2byte	0x7400
    3582:	000c                	.2byte	0xc
    3584:	d400                	c.sw	s0,40(s0)
    3586:	0001                	c.nop
    3588:	7000                	.2byte	0x7000
    358a:	000e                	c.slli	zero,0x3
    358c:	0200                	c.addi4spn	s0,sp,256
    358e:	19b6                	c.slli	s3,0x2d
    3590:	0000                	c.unimp
    3592:	0c4c0407          	.4byte	0xc4c0407
    3596:	0000                	c.unimp
    3598:	1602                	c.slli	a2,0x20
    359a:	4c06                	c.lwsp	s8,64(sp)
    359c:	000c                	.2byte	0xc
    359e:	0300                	c.addi4spn	s0,sp,384
    35a0:	00000fc3          	.4byte	0xfc3
    35a4:	0300                	c.addi4spn	s0,sp,384
    35a6:	1310                	c.addi4spn	a2,sp,416
    35a8:	0000                	c.unimp
    35aa:	0304                	c.addi4spn	s1,sp,384
    35ac:	1281                	c.addi	t0,-32
    35ae:	0000                	c.unimp
    35b0:	0305                	c.addi	t1,1
    35b2:	0000150b          	addigp	a0,0 # 0x2498 <__global_pointer$>
    35b6:	0340                	c.addi4spn	s0,sp,388
    35b8:	079c                	c.addi4spn	a5,sp,960
    35ba:	0000                	c.unimp
    35bc:	0341                	c.addi	t1,16
    35be:	185c                	c.addi4spn	a5,sp,52
    35c0:	0000                	c.unimp
    35c2:	0342                	c.slli	t1,0x10
    35c4:	00000df3          	.4byte	0xdf3
    35c8:	08bf0343          	.4byte	0x8bf0343
    35cc:	0000                	c.unimp
    35ce:	13af0343          	.4byte	0x13af0343
    35d2:	0000                	c.unimp
    35d4:	0344                	c.addi4spn	s1,sp,388
    35d6:	12bc                	c.addi4spn	a5,sp,360
    35d8:	0000                	c.unimp
    35da:	0301                	c.addi	t1,0
    35dc:	1a91                	c.addi	s5,-28
    35de:	0000                	c.unimp
    35e0:	0302                	c.slli64	t1
    35e2:	00000973          	.4byte	0x973
    35e6:	032c0403          	lb	s0,50(s8)
    35ea:	0000                	c.unimp
    35ec:	0c00                	c.addi4spn	s0,sp,528
    35ee:	ed04                	.2byte	0xed04
    35f0:	000a                	c.slli	zero,0x2
    35f2:	0100                	c.addi4spn	s0,sp,128
    35f4:	040c                	c.addi4spn	a1,sp,512
    35f6:	03a5                	c.addi	t2,9
    35f8:	0000                	c.unimp
    35fa:	0c02                	c.slli64	s8
    35fc:	fc04                	.2byte	0xfc04
    35fe:	0006                	c.slli	zero,0x1
    3600:	0300                	c.addi4spn	s0,sp,384
    3602:	040c                	c.addi4spn	a1,sp,512
    3604:	070c                	c.addi4spn	a1,sp,896
    3606:	0000                	c.unimp
    3608:	0c04                	c.addi4spn	s1,sp,528
    360a:	1c04                	c.addi4spn	s1,sp,560
    360c:	05000007          	.4byte	0x5000007
    3610:	040c                	c.addi4spn	a1,sp,512
    3612:	072c                	c.addi4spn	a1,sp,904
    3614:	0000                	c.unimp
    3616:	0c06                	c.slli	s8,0x1
    3618:	3c04                	.2byte	0x3c04
    361a:	07000007          	.4byte	0x7000007
    361e:	040c                	c.addi4spn	a1,sp,512
    3620:	074c                	c.addi4spn	a1,sp,900
    3622:	0000                	c.unimp
    3624:	0c08                	c.addi4spn	a0,sp,528
    3626:	5c04                	c.lw	s1,56(s0)
    3628:	09000007          	.4byte	0x9000007
    362c:	040c                	c.addi4spn	a1,sp,512
    362e:	0000050b          	lbgp	a0,0 # 0x2498 <__global_pointer$>
    3632:	0c0a                	c.slli	s8,0x2
    3634:	1c04                	c.addi4spn	s1,sp,560
    3636:	0005                	c.nop	1
    3638:	0b00                	c.addi4spn	s0,sp,400
    363a:	040c                	c.addi4spn	a1,sp,512
    363c:	052d                	c.addi	a0,11
    363e:	0000                	c.unimp
    3640:	0c0c                	c.addi4spn	a1,sp,528
    3642:	3e04                	.2byte	0x3e04
    3644:	0005                	c.nop	1
    3646:	0d00                	c.addi4spn	s0,sp,656
    3648:	040c                	c.addi4spn	a1,sp,512
    364a:	0000054f          	.4byte	0x54f
    364e:	0c0e                	c.slli	s8,0x3
    3650:	6004                	.2byte	0x6004
    3652:	0005                	c.nop	1
    3654:	0f00                	c.addi4spn	s0,sp,912
    3656:	040c                	c.addi4spn	a1,sp,512
    3658:	0571                	c.addi	a0,28
    365a:	0000                	c.unimp
    365c:	0c10                	c.addi4spn	a2,sp,528
    365e:	8204                	exec.it	#72     !
    3660:	0005                	c.nop	1
    3662:	1100                	c.addi4spn	s0,sp,160
    3664:	040c                	c.addi4spn	a1,sp,512
    3666:	00000593          	li	a1,0
    366a:	0c12                	c.slli	s8,0x4
    366c:	a404                	.2byte	0xa404
    366e:	0005                	c.nop	1
    3670:	1300                	c.addi4spn	s0,sp,416
    3672:	040c                	c.addi4spn	a1,sp,512
    3674:	0000060f          	.4byte	0x60f
    3678:	0c14                	c.addi4spn	a3,sp,528
    367a:	2004                	.2byte	0x2004
    367c:	0006                	c.slli	zero,0x1
    367e:	1500                	c.addi4spn	s0,sp,672
    3680:	040c                	c.addi4spn	a1,sp,512
    3682:	0631                	c.addi	a2,12
    3684:	0000                	c.unimp
    3686:	0c16                	c.slli	s8,0x5
    3688:	4204                	c.lw	s1,0(a2)
    368a:	0006                	c.slli	zero,0x1
    368c:	1700                	c.addi4spn	s0,sp,928
    368e:	040c                	c.addi4spn	a1,sp,512
    3690:	00000653          	.4byte	0x653
    3694:	0c18                	c.addi4spn	a4,sp,528
    3696:	d904                	c.sw	s1,48(a0)
    3698:	19000003          	lb	zero,400(zero) # 0x190 <amoswapw_func+0x3c>
    369c:	040c                	c.addi4spn	a1,sp,512
    369e:	0664                	c.addi4spn	s1,sp,780
    36a0:	0000                	c.unimp
    36a2:	0c1a                	c.slli	s8,0x6
    36a4:	7504                	.2byte	0x7504
    36a6:	0006                	c.slli	zero,0x1
    36a8:	1b00                	c.addi4spn	s0,sp,432
    36aa:	040c                	c.addi4spn	a1,sp,512
    36ac:	0686                	c.slli	a3,0x1
    36ae:	0000                	c.unimp
    36b0:	0c1c                	c.addi4spn	a5,sp,528
    36b2:	9704                	exec.it	#842     !
    36b4:	0006                	c.slli	zero,0x1
    36b6:	1d00                	c.addi4spn	s0,sp,688
    36b8:	040c                	c.addi4spn	a1,sp,512
    36ba:	076c                	c.addi4spn	a1,sp,908
    36bc:	0000                	c.unimp
    36be:	0c1e                	c.slli	s8,0x7
    36c0:	7d04                	.2byte	0x7d04
    36c2:	1f000007          	.4byte	0x1f000007
    36c6:	040c                	c.addi4spn	a1,sp,512
    36c8:	04ed                	c.addi	s1,27 # 0xfffe401b <boot_loader+0x7ffe401b>
    36ca:	0000                	c.unimp
    36cc:	0c80                	c.addi4spn	s0,sp,592
    36ce:	4004                	c.lw	s1,0(s0)
    36d0:	8100000b          	lbgp	zero,-131056 # 0xfffe24a8 <boot_loader+0x7ffe24a8>
    36d4:	040c                	c.addi4spn	a1,sp,512
    36d6:	1714                	c.addi4spn	a3,sp,928
    36d8:	0000                	c.unimp
    36da:	0c82                	c.slli64	s9
    36dc:	b404                	.2byte	0xb404
    36de:	83000007          	.4byte	0x83000007
    36e2:	040c                	c.addi4spn	a1,sp,512
    36e4:	0000083b          	.4byte	0x83b
    36e8:	0c84                	c.addi4spn	s1,sp,592
    36ea:	cc04                	c.sw	s1,24(s0)
    36ec:	0008                	.2byte	0x8
    36ee:	8500                	exec.it	#514     !
    36f0:	040c                	c.addi4spn	a1,sp,512
    36f2:	0000094f          	.4byte	0x94f
    36f6:	0c86                	c.slli	s9,0x1
    36f8:	b004                	.2byte	0xb004
    36fa:	0009                	c.nop	2
    36fc:	8700                	exec.it	#578     !
    36fe:	040c                	c.addi4spn	a1,sp,512
    3700:	00000a33          	add	s4,zero,zero
    3704:	0c88                	c.addi4spn	a0,sp,592
    3706:	f604                	.2byte	0xf604
    3708:	000a                	c.slli	zero,0x2
    370a:	8900                	exec.it	#516     !
    370c:	040c                	c.addi4spn	a1,sp,512
    370e:	0bb5                	c.addi	s7,13
    3710:	0000                	c.unimp
    3712:	0c8a                	c.slli	s9,0x2
    3714:	7e04                	.2byte	0x7e04
    3716:	000c                	.2byte	0xc
    3718:	8b00                	exec.it	#580     !
    371a:	040c                	c.addi4spn	a1,sp,512
    371c:	0de1                	c.addi	s11,24
    371e:	0000                	c.unimp
    3720:	0c8c                	c.addi4spn	a1,sp,592
    3722:	4804                	c.lw	s1,16(s0)
    3724:	8d00000f          	.4byte	0x8d00000f
    3728:	040c                	c.addi4spn	a1,sp,512
    372a:	1006                	c.slli	zero,0x21
    372c:	0000                	c.unimp
    372e:	0c8e                	c.slli	s9,0x3
    3730:	7e04                	.2byte	0x7e04
    3732:	0011                	c.nop	4
    3734:	8f00                	exec.it	#582     !
    3736:	040c                	c.addi4spn	a1,sp,512
    3738:	0000036b          	.4byte	0x36b
    373c:	0c90                	c.addi4spn	a2,sp,592
    373e:	2e04                	.2byte	0x2e04
    3740:	0014                	.2byte	0x14
    3742:	9100                	exec.it	#768     !
    3744:	040c                	c.addi4spn	a1,sp,512
    3746:	153e                	c.slli	a0,0x2f
    3748:	0000                	c.unimp
    374a:	0c92                	c.slli	s9,0x4
    374c:	4f04                	c.lw	s1,24(a4)
    374e:	0016                	c.slli	zero,0x5
    3750:	9300                	exec.it	#832     !
    3752:	040c                	c.addi4spn	a1,sp,512
    3754:	1334                	c.addi4spn	a3,sp,424
    3756:	0000                	c.unimp
    3758:	0c94                	c.addi4spn	a3,sp,592
    375a:	8604                	exec.it	#74     !
    375c:	0014                	.2byte	0x14
    375e:	9500                	exec.it	#770     !
    3760:	040c                	c.addi4spn	a1,sp,512
    3762:	1592                	c.slli	a1,0x24
    3764:	0000                	c.unimp
    3766:	0c96                	c.slli	s9,0x5
    3768:	ab04                	.2byte	0xab04
    376a:	0016                	c.slli	zero,0x5
    376c:	9700                	exec.it	#834     !
    376e:	040c                	c.addi4spn	a1,sp,512
    3770:	1746                	c.slli	a4,0x31
    3772:	0000                	c.unimp
    3774:	0c98                	c.addi4spn	a4,sp,592
    3776:	2804                	.2byte	0x2804
    3778:	0018                	.2byte	0x18
    377a:	9900                	exec.it	#772     !
    377c:	040c                	c.addi4spn	a1,sp,512
    377e:	18e4                	c.addi4spn	s1,sp,124
    3780:	0000                	c.unimp
    3782:	0c9a                	c.slli	s9,0x6
    3784:	8504                	exec.it	#522     !
    3786:	0019                	c.nop	6
    3788:	9b00                	exec.it	#836     !
    378a:	040c                	c.addi4spn	a1,sp,512
    378c:	1a60                	c.addi4spn	s0,sp,316
    378e:	0000                	c.unimp
    3790:	0c9c                	c.addi4spn	a5,sp,592
    3792:	3704                	.2byte	0x3704
    3794:	9d00001b          	.4byte	0x9d00001b
    3798:	040c                	c.addi4spn	a1,sp,512
    379a:	18f6                	c.slli	a7,0x3d
    379c:	0000                	c.unimp
    379e:	0c9e                	c.slli	s9,0x7
    37a0:	a404                	.2byte	0xa404
    37a2:	0019                	c.nop	6
    37a4:	9f00                	exec.it	#838     !
    37a6:	040c                	c.addi4spn	a1,sp,512
    37a8:	00000c33          	add	s8,zero,zero
    37ac:	0100                	c.addi4spn	s0,sp,128
    37ae:	4a04                	c.lw	s1,16(a2)
    37b0:	0200000b          	lbgp	zero,32 # 0x24b8 <__global_pointer$+0x20>
    37b4:	0401                	c.addi	s0,0
    37b6:	14f0                	c.addi4spn	a2,sp,620
    37b8:	0000                	c.unimp
    37ba:	23040103          	lb	sp,560(s0)
    37be:	0008                	.2byte	0x8
    37c0:	0400                	c.addi4spn	s0,sp,512
    37c2:	0401                	c.addi	s0,0
    37c4:	1b49                	c.addi	s6,-14
    37c6:	0000                	c.unimp
    37c8:	0105                	c.addi	sp,1 # 0xdc165 <__global_pointer$+0xd9ccd>
    37ca:	fe04                	.2byte	0xfe04
    37cc:	0009                	c.nop	2
    37ce:	0600                	c.addi4spn	s0,sp,768
    37d0:	0401                	c.addi	s0,0
    37d2:	05de                	c.slli	a1,0x17
    37d4:	0000                	c.unimp
    37d6:	010a                	c.slli	sp,0x2
    37d8:	0d04                	c.addi4spn	s1,sp,656
    37da:	0c00001b          	.4byte	0xc00001b
    37de:	0401                	c.addi	s0,0
    37e0:	00001b1b          	.4byte	0x1b1b
    37e4:	010d                	c.addi	sp,3
    37e6:	2904                	.2byte	0x2904
    37e8:	0e00001b          	.4byte	0xe00001b
    37ec:	0401                	c.addi	s0,0
    37ee:	0adf 0000 010f      	.byte	0xdf, 0x0a, 0x00, 0x00, 0x0f, 0x01
    37f4:	3304                	.2byte	0x3304
    37f6:	4000000b          	lbgp	zero,1024 # 0x2898 <__global_pointer$+0x400>
    37fa:	0401                	c.addi	s0,0
    37fc:	0a8c                	c.addi4spn	a1,sp,336
    37fe:	0000                	c.unimp
    3800:	0141                	c.addi	sp,16
    3802:	9304                	exec.it	#840     !
    3804:	0008                	.2byte	0x8
    3806:	4200                	c.lw	s0,0(a2)
    3808:	0401                	c.addi	s0,0
    380a:	097c                	c.addi4spn	a5,sp,156
    380c:	0000                	c.unimp
    380e:	c2040143          	.4byte	0xc2040143
    3812:	0014                	.2byte	0x14
    3814:	4300                	c.lw	s0,0(a4)
    3816:	0401                	c.addi	s0,0
    3818:	0859                	c.addi	a6,22
    381a:	0000                	c.unimp
    381c:	0144                	c.addi4spn	s1,sp,132
    381e:	8104                	exec.it	#520     !
    3820:	000e                	c.slli	zero,0x3
    3822:	8000                	exec.it	#0     !
    3824:	0401                	c.addi	s0,0
    3826:	0b7a                	c.slli	s6,0x1e
    3828:	0000                	c.unimp
    382a:	0180                	c.addi4spn	s0,sp,192
    382c:	7204                	.2byte	0x7204
    382e:	001a                	c.slli	zero,0x6
    3830:	a000                	.2byte	0xa000
    3832:	040d                	c.addi	s0,3
    3834:	16bd                	c.addi	a3,-17 # 0x25b7 <__global_pointer$+0x11f>
    3836:	0000                	c.unimp
    3838:	0f11                	c.addi	t5,4
    383a:	7504                	.2byte	0x7504
    383c:	0012                	c.slli	zero,0x4
    383e:	1200                	c.addi4spn	s0,sp,288
    3840:	160c040f          	.4byte	0x160c040f
    3844:	0000                	c.unimp
    3846:	c0040f13          	addi	t5,s0,-1024
    384a:	14000017          	auipc	zero,0x14000
    384e:	1d2b040f          	.4byte	0x1d2b040f
    3852:	0000                	c.unimp
    3854:	0f15                	c.addi	t5,5
    3856:	fa04                	.2byte	0xfa04
    3858:	0005                	c.nop	1
    385a:	0000                	c.unimp
    385c:	03c30403          	lb	s0,60(t1)
    3860:	0000                	c.unimp
    3862:	0301                	c.addi	t1,0
    3864:	dd04                	c.sw	s1,56(a0)
    3866:	0008                	.2byte	0x8
    3868:	0200                	c.addi4spn	s0,sp,256
    386a:	18090403          	lb	s0,384(s2) # 0xfffe3180 <boot_loader+0x7ffe3180>
    386e:	0000                	c.unimp
    3870:	24040303          	lb	t1,576(s0)
    3874:	04000003          	lb	zero,64(zero) # 0x40 <__nds__rotr>
    3878:	0f7d0403          	lb	s0,247(s10) # 0xfffe40f7 <boot_loader+0x7ffe40f7>
    387c:	0000                	c.unimp
    387e:	0305                	c.addi	t1,1
    3880:	ed04                	.2byte	0xed04
    3882:	0600000b          	lbgp	zero,96 # 0x24f8 <__global_pointer$+0x60>
    3886:	08f60403          	lb	s0,143(a2)
    388a:	0000                	c.unimp
    388c:	0340                	c.addi4spn	s0,sp,388
    388e:	0604                	c.addi4spn	s1,sp,768
    3890:	0006                	c.slli	zero,0x1
    3892:	4100                	c.lw	s0,0(a0)
    3894:	1ac60403          	lb	s0,428(a2)
    3898:	0000                	c.unimp
    389a:	0342                	c.slli	t1,0x10
    389c:	5604                	c.lw	s1,40(a2)
    389e:	4300000b          	lbgp	zero,1072 # 0x28c8 <__global_pointer$+0x430>
    38a2:	03360403          	lb	s0,51(a2)
    38a6:	0000                	c.unimp
    38a8:	0344                	c.addi4spn	s1,sp,388
    38aa:	d404                	c.sw	s1,40(s0)
    38ac:	000e                	c.slli	zero,0x3
    38ae:	0a00                	c.addi4spn	s0,sp,272
    38b0:	03170403          	lb	s0,49(a4)
    38b4:	0000                	c.unimp
    38b6:	031a                	c.slli	t1,0x6
    38b8:	7704                	.2byte	0x7704
    38ba:	0008                	.2byte	0x8
    38bc:	4700                	c.lw	s0,8(a4)
    38be:	0cb30407          	.4byte	0xcb30407
    38c2:	0000                	c.unimp
    38c4:	df040757          	.4byte	0xdf040757
    38c8:	0011                	c.nop	4
    38ca:	0c00                	c.addi4spn	s0,sp,528
    38cc:	11ed0403          	lb	s0,286(s10)
    38d0:	0000                	c.unimp
    38d2:	030d                	c.addi	t1,3
    38d4:	fb04                	.2byte	0xfb04
    38d6:	0011                	c.nop	4
    38d8:	0e00                	c.addi4spn	s0,sp,784
    38da:	12090403          	lb	s0,288(s2)
    38de:	0000                	c.unimp
    38e0:	3a04030f          	.4byte	0x3a04030f
    38e4:	001d                	c.nop	7
    38e6:	1c00                	c.addi4spn	s0,sp,560
    38e8:	034b0403          	lb	s0,52(s6)
    38ec:	0000                	c.unimp
    38ee:	031d                	c.addi	t1,7
    38f0:	6304                	.2byte	0x6304
    38f2:	0004                	.2byte	0x4
    38f4:	1e00                	c.addi4spn	s0,sp,816
    38f6:	04c10403          	lb	s0,76(sp)
    38fa:	0000                	c.unimp
    38fc:	031f 0f04 0009      	.byte	0x1f, 0x03, 0x04, 0x0f, 0x09, 0x00
    3902:	a000                	.2byte	0xa000
    3904:	09270403          	lb	s0,146(a4)
    3908:	0000                	c.unimp
    390a:	03a2                	c.slli	t2,0x8
    390c:	1b04                	c.addi4spn	s1,sp,432
    390e:	0009                	c.nop	2
    3910:	a100                	.2byte	0xa100
    3912:	09330403          	lb	s0,147(t1)
    3916:	0000                	c.unimp
    3918:	cc0403a3          	sb	zero,-825(s0)
    391c:	0010                	.2byte	0x10
    391e:	b000                	.2byte	0xb000
    3920:	10d90403          	lb	s0,269(s2)
    3924:	0000                	c.unimp
    3926:	03b1                	c.addi	t2,12
    3928:	e604                	.2byte	0xe604
    392a:	0010                	.2byte	0x10
    392c:	b200                	.2byte	0xb200
    392e:	10f30403          	lb	s0,271(t1)
    3932:	0000                	c.unimp
    3934:	000403b3          	add	t2,s0,zero
    3938:	0011                	c.nop	4
    393a:	b400                	.2byte	0xb400
    393c:	110d0403          	lb	s0,272(s10)
    3940:	0000                	c.unimp
    3942:	03b5                	c.addi	t2,13
    3944:	1a04                	c.addi4spn	s1,sp,304
    3946:	0011                	c.nop	4
    3948:	b600                	.2byte	0xb600
    394a:	11270403          	lb	s0,274(a4)
    394e:	0000                	c.unimp
    3950:	340403b7          	lui	t2,0x34040
    3954:	0011                	c.nop	4
    3956:	b800                	.2byte	0xb800
    3958:	11410403          	lb	s0,276(sp)
    395c:	0000                	c.unimp
    395e:	03b9                	c.addi	t2,14 # 0x3404000e <loader+0x2414000e>
    3960:	1804                	c.addi4spn	s1,sp,48
    3962:	0010                	.2byte	0x10
    3964:	ba00                	.2byte	0xba00
    3966:	10260403          	lb	s0,258(a2)
    396a:	0000                	c.unimp
    396c:	340403bb          	.4byte	0x340403bb
    3970:	0010                	.2byte	0x10
    3972:	bc00                	.2byte	0xbc00
    3974:	10420403          	lb	s0,260(tp) # 0x4104 <__global_pointer$+0x1c6c>
    3978:	0000                	c.unimp
    397a:	03bd                	c.addi	t2,15
    397c:	5004                	c.lw	s1,32(s0)
    397e:	0010                	.2byte	0x10
    3980:	be00                	.2byte	0xbe00
    3982:	08b10403          	lb	s0,139(sp)
    3986:	0000                	c.unimp
    3988:	5e0403bf c0000010 	.8byte	0xc00000105e0403bf
    3990:	106c0403          	lb	s0,262(s8)
    3994:	0000                	c.unimp
    3996:	03c1                	c.addi	t2,16
    3998:	7a04                	.2byte	0x7a04
    399a:	0010                	.2byte	0x10
    399c:	c200                	c.sw	s0,0(a2)
    399e:	10880403          	lb	s0,264(a6)
    39a2:	0000                	c.unimp
    39a4:	990403c3          	.4byte	0x990403c3
    39a8:	0011                	c.nop	4
    39aa:	c400                	c.sw	s0,8(s0)
    39ac:	11a70403          	lb	s0,282(a4)
    39b0:	0000                	c.unimp
    39b2:	03c5                	c.addi	t2,17
    39b4:	b504                	.2byte	0xb504
    39b6:	0011                	c.nop	4
    39b8:	c600                	c.sw	s0,8(a2)
    39ba:	11c30403          	lb	s0,284(t1)
    39be:	0000                	c.unimp
    39c0:	d10403c7          	.4byte	0xd10403c7
    39c4:	0011                	c.nop	4
    39c6:	c800                	c.sw	s0,16(s0)
    39c8:	09860403          	lb	s0,152(a2)
    39cc:	0000                	c.unimp
    39ce:	03c9                	c.addi	t2,18
    39d0:	9404                	exec.it	#266     !
    39d2:	0009                	c.nop	2
    39d4:	ca00                	c.sw	s0,16(a2)
    39d6:	09a20403          	lb	s0,154(tp) # 0x9a <__nds__wsbh+0x16>
    39da:	0000                	c.unimp
    39dc:	450403cb          	.4byte	0x450403cb
    39e0:	0004                	.2byte	0x4
    39e2:	cc00                	c.sw	s0,24(s0)
    39e4:	12170403          	lb	s0,289(a4)
    39e8:	0000                	c.unimp
    39ea:	03cd                	c.addi	t2,19
    39ec:	f404                	.2byte	0xf404
    39ee:	0012                	c.slli	zero,0x4
    39f0:	ce00                	c.sw	s0,24(a2)
    39f2:	13020403          	lb	s0,304(tp) # 0x130 <NDS_SAG_LMA_MEM+0x30>
    39f6:	0000                	c.unimp
    39f8:	c30403cf          	.4byte	0xc30403cf
    39fc:	000a                	c.slli	zero,0x2
    39fe:	d000                	c.sw	s0,32(s0)
    3a00:	13180403          	lb	s0,305(a6)
    3a04:	0000                	c.unimp
    3a06:	03d1                	c.addi	t2,20
    3a08:	2604                	.2byte	0x2604
    3a0a:	d2000013          	li	zero,-736
    3a0e:	0ad10403          	lb	s0,173(sp)
    3a12:	0000                	c.unimp
    3a14:	460403d3          	.4byte	0x460403d3
    3a18:	d4000013          	li	zero,-704
    3a1c:	13540403          	lb	s0,309(s0)
    3a20:	0000                	c.unimp
    3a22:	03d5                	c.addi	t2,21
    3a24:	6204                	.2byte	0x6204
    3a26:	d6000013          	li	zero,-672
    3a2a:	13700403          	lb	s0,311(zero) # 0x137 <NDS_SAG_LMA_MEM+0x37>
    3a2e:	0000                	c.unimp
    3a30:	400403d7          	.4byte	0x400403d7
    3a34:	0014                	.2byte	0x14
    3a36:	d800                	c.sw	s0,48(s0)
    3a38:	144e0403          	lb	s0,324(t3)
    3a3c:	0000                	c.unimp
    3a3e:	03d9                	c.addi	t2,22
    3a40:	5c04                	c.lw	s1,56(s0)
    3a42:	0014                	.2byte	0x14
    3a44:	da00                	c.sw	s0,48(a2)
    3a46:	146a0403          	lb	s0,326(s4)
    3a4a:	0000                	c.unimp
    3a4c:	780403db          	.4byte	0x780403db
    3a50:	0014                	.2byte	0x14
    3a52:	dc00                	c.sw	s0,56(s0)
    3a54:	0c4f0403          	lb	s0,196(t5)
    3a58:	0000                	c.unimp
    3a5a:	03dd                	c.addi	t2,23
    3a5c:	9804                	exec.it	#268     !
    3a5e:	0014                	.2byte	0x14
    3a60:	de00                	c.sw	s0,56(a2)
    3a62:	14a60403          	lb	s0,330(a2)
    3a66:	0000                	c.unimp
    3a68:	03df b404 0014      	.byte	0xdf, 0x03, 0x04, 0xb4, 0x14, 0x00
    3a6e:	e000                	.2byte	0xe000
    3a70:	0c700403          	lb	s0,199(zero) # 0xc7 <__nds__wsbh+0x43>
    3a74:	0000                	c.unimp
    3a76:	03e1                	c.addi	t2,24
    3a78:	5a04                	c.lw	s1,48(a2)
    3a7a:	0015                	c.nop	5
    3a7c:	e200                	.2byte	0xe200
    3a7e:	15680403          	lb	s0,342(a6)
    3a82:	0000                	c.unimp
    3a84:	760403e3          	beqz	s0,0x49ea <__global_pointer$+0x2552>
    3a88:	0015                	c.nop	5
    3a8a:	e400                	.2byte	0xe400
    3a8c:	15840403          	lb	s0,344(s0)
    3a90:	0000                	c.unimp
    3a92:	03e5                	c.addi	t2,25
    3a94:	c604                	c.sw	s1,8(a2)
    3a96:	000e                	c.slli	zero,0x3
    3a98:	e600                	.2byte	0xe600
    3a9a:	0ee00403          	lb	s0,238(zero) # 0xee <__loader_lmaend+0x2>
    3a9e:	0000                	c.unimp
    3aa0:	a40403e7          	jalr	t2,-1472(s0)
    3aa4:	0015                	c.nop	5
    3aa6:	e800                	.2byte	0xe800
    3aa8:	15b20403          	lb	s0,347(tp) # 0x15b <amoswapw_func+0x7>
    3aac:	0000                	c.unimp
    3aae:	03e9                	c.addi	t2,26
    3ab0:	c004                	c.sw	s1,0(s0)
    3ab2:	0015                	c.nop	5
    3ab4:	ea00                	.2byte	0xea00
    3ab6:	15ce0403          	lb	s0,348(t3)
    3aba:	0000                	c.unimp
    3abc:	610403eb          	.4byte	0x610403eb
    3ac0:	0016                	c.slli	zero,0x5
    3ac2:	ec00                	.2byte	0xec00
    3ac4:	166f0403          	lb	s0,358(t5)
    3ac8:	0000                	c.unimp
    3aca:	03ed                	c.addi	t2,27
    3acc:	7d04                	.2byte	0x7d04
    3ace:	0016                	c.slli	zero,0x5
    3ad0:	ee00                	.2byte	0xee00
    3ad2:	168b0403          	lb	s0,360(s6)
    3ad6:	0000                	c.unimp
    3ad8:	f10403ef          	jal	t2,0xfff441e8 <boot_loader+0x7ff441e8>
    3adc:	0006                	c.slli	zero,0x1
    3ade:	0000                	c.unimp
    3ae0:	128b040b          	lbgp	s0,86312 # 0x175c0 <__global_pointer$+0x15128>
    3ae4:	0000                	c.unimp
    3ae6:	0b02                	c.slli64	s6
    3ae8:	4004                	c.lw	s1,0(s0)
    3aea:	000d                	c.nop	3
    3aec:	0300                	c.addi4spn	s0,sp,384
    3aee:	0d51040b          	lbgp	s0,67796 # 0x12d6c <__global_pointer$+0x108d4>
    3af2:	0000                	c.unimp
    3af4:	0b04                	c.addi4spn	s1,sp,400
    3af6:	6204                	.2byte	0x6204
    3af8:	000d                	c.nop	3
    3afa:	0500                	c.addi4spn	s0,sp,640
    3afc:	0d73040b          	lbgp	s0,71894 # 0x13d6e <__global_pointer$+0x118d6>
    3b00:	0000                	c.unimp
    3b02:	0b06                	c.slli	s6,0x1
    3b04:	8404                	exec.it	#10     !
    3b06:	000d                	c.nop	3
    3b08:	0700                	c.addi4spn	s0,sp,896
    3b0a:	0d95040b          	lbgp	s0,75992 # 0x14d70 <__global_pointer$+0x128d8>
    3b0e:	0000                	c.unimp
    3b10:	0b08                	c.addi4spn	a0,sp,400
    3b12:	a604                	.2byte	0xa604
    3b14:	000d                	c.nop	3
    3b16:	0900                	c.addi4spn	s0,sp,144
    3b18:	0cf8040b          	lbgp	s0,18638 # 0x6d66 <__global_pointer$+0x48ce>
    3b1c:	0000                	c.unimp
    3b1e:	0b0a                	c.slli	s6,0x2
    3b20:	0a04                	c.addi4spn	s1,sp,272
    3b22:	000d                	c.nop	3
    3b24:	0b00                	c.addi4spn	s0,sp,400
    3b26:	0d1c040b          	lbgp	s0,26832 # 0x8d68 <__global_pointer$+0x68d0>
    3b2a:	0000                	c.unimp
    3b2c:	0b0c                	c.addi4spn	a1,sp,400
    3b2e:	2e04                	.2byte	0x2e04
    3b30:	000d                	c.nop	3
    3b32:	0d00                	c.addi4spn	s0,sp,656
    3b34:	17ae040b          	lbgp	s0,29050 # 0x9612 <__global_pointer$+0x717a>
    3b38:	0000                	c.unimp
    3b3a:	0b0e                	c.slli	s6,0x3
    3b3c:	7e04                	.2byte	0x7e04
    3b3e:	0f000013          	li	zero,240
    3b42:	139d040b          	lbgp	s0,92472 # 0x18dd0 <__global_pointer$+0x16938>
    3b46:	0000                	c.unimp
    3b48:	0b10                	c.addi4spn	a2,sp,400
    3b4a:	b704                	.2byte	0xb704
    3b4c:	11000013          	li	zero,272
    3b50:	13da040b          	lbgp	s0,22844 # 0x7dd4 <__global_pointer$+0x593c>
    3b54:	0000                	c.unimp
    3b56:	0b12                	c.slli	s6,0x4
    3b58:	ec04                	.2byte	0xec04
    3b5a:	13000013          	li	zero,304
    3b5e:	0ea2040b          	lbgp	s0,4330 # 0x3582 <__global_pointer$+0x10ea>
    3b62:	0000                	c.unimp
    3b64:	0b14                	c.addi4spn	a3,sp,400
    3b66:	b404                	.2byte	0xb404
    3b68:	000e                	c.slli	zero,0x3
    3b6a:	1500                	c.addi4spn	s0,sp,672
    3b6c:	19f4040b          	lbgp	s0,10654 # 0x4e36 <__global_pointer$+0x299e>
    3b70:	0000                	c.unimp
    3b72:	0b16                	c.slli	s6,0x5
    3b74:	0604                	c.addi4spn	s1,sp,768
    3b76:	001a                	c.slli	zero,0x6
    3b78:	1700                	c.addi4spn	s0,sp,928
    3b7a:	1a18040b          	lbgp	s0,18848 # 0x6e38 <__global_pointer$+0x49a0>
    3b7e:	0000                	c.unimp
    3b80:	0b18                	c.addi4spn	a4,sp,400
    3b82:	ee04                	.2byte	0xee04
    3b84:	000e                	c.slli	zero,0x3
    3b86:	1900                	c.addi4spn	s0,sp,176
    3b88:	0f00040b          	lbgp	s0,240 # 0x2588 <__global_pointer$+0xf0>
    3b8c:	0000                	c.unimp
    3b8e:	0b1a                	c.slli	s6,0x6
    3b90:	1204                	c.addi4spn	s1,sp,288
    3b92:	1b00000f          	.4byte	0x1b00000f
    3b96:	0f24040b          	lbgp	s0,8434 # 0x458a <__global_pointer$+0x20f2>
    3b9a:	0000                	c.unimp
    3b9c:	0b1c                	c.addi4spn	a5,sp,400
    3b9e:	3604                	.2byte	0x3604
    3ba0:	1d00000f          	.4byte	0x1d00000f
    3ba4:	0fcf040b          	lbgp	s0,94460 # 0x19594 <__global_pointer$+0x170fc>
    3ba8:	0000                	c.unimp
    3baa:	0b1e                	c.slli	s6,0x7
    3bac:	e104                	.2byte	0xe104
    3bae:	1f00000f          	.4byte	0x1f00000f
    3bb2:	1775040b          	lbgp	s0,76150 # 0x14e0e <__global_pointer$+0x12976>
    3bb6:	0000                	c.unimp
    3bb8:	0b80                	c.addi4spn	s0,sp,464
    3bba:	b304                	.2byte	0xb304
    3bbc:	0004                	.2byte	0x4
    3bbe:	8200                	exec.it	#64     !
    3bc0:	17d7040b          	lbgp	s0,80252 # 0x15e14 <__global_pointer$+0x1397c>
    3bc4:	0000                	c.unimp
    3bc6:	3e040b83          	lb	s7,992(s0)
    3bca:	0019                	c.nop	6
    3bcc:	8400                	exec.it	#2     !
    3bce:	1adb040b          	lbgp	s0,88492 # 0x17e44 <__global_pointer$+0x159ac>
    3bd2:	0000                	c.unimp
    3bd4:	0b85                	c.addi	s7,1
    3bd6:	fe04                	.2byte	0xfe04
    3bd8:	001c                	.2byte	0x1c
    3bda:	8600                	exec.it	#66     !
    3bdc:	03b1040b          	lbgp	s0,67642 # 0x12cd2 <__global_pointer$+0x1083a>
    3be0:	0000                	c.unimp
    3be2:	99040b87          	.4byte	0x99040b87
    3be6:	0016                	c.slli	zero,0x5
    3be8:	8800                	exec.it	#4     !
    3bea:	1734040b          	lbgp	s0,10610 # 0x4e0a <__global_pointer$+0x2972>
    3bee:	0000                	c.unimp
    3bf0:	0b89                	c.addi	s7,2
    3bf2:	ed04                	.2byte	0xed04
    3bf4:	001a                	c.slli	zero,0x6
    3bf6:	8a00                	exec.it	#68     !
    3bf8:	0b84040b          	lbgp	s0,8376 # 0x4550 <__global_pointer$+0x20b8>
    3bfc:	0000                	c.unimp
    3bfe:	5d040b8b          	lbgp	s7,9680 # 0x4a68 <__global_pointer$+0x25d0>
    3c02:	000c                	.2byte	0xc
    3c04:	8c00                	exec.it	#6     !
    3c06:	04f8040b          	lbgp	s0,18510 # 0x6ce6 <__global_pointer$+0x484e>
    3c0a:	0000                	c.unimp
    3c0c:	0b8d                	c.addi	s7,3
    3c0e:	1a04                	c.addi4spn	s1,sp,304
    3c10:	0019                	c.nop	6
    3c12:	8e00                	exec.it	#70     !
    3c14:	0ff3040b          	lbgp	s0,71934 # 0x13d96 <__global_pointer$+0x118fe>
    3c18:	0000                	c.unimp
    3c1a:	4e040b8f          	.4byte	0x4e040b8f
    3c1e:	0011                	c.nop	4
    3c20:	9000                	exec.it	#256     !
    3c22:	0a79040b          	lbgp	s0,84134 # 0x16d3e <__global_pointer$+0x148a6>
    3c26:	0000                	c.unimp
    3c28:	0b91                	c.addi	s7,4
    3c2a:	0804                	c.addi4spn	s1,sp,16
    3c2c:	0014                	.2byte	0x14
    3c2e:	9200                	exec.it	#320     !
    3c30:	1518040b          	lbgp	s0,18768 # 0x6de8 <__global_pointer$+0x4950>
    3c34:	0000                	c.unimp
    3c36:	6b040b93          	addi	s7,s0,1712
    3c3a:	0011                	c.nop	4
    3c3c:	9400                	exec.it	#258     !
    3c3e:	12a9040b          	lbgp	s0,82218 # 0x165c2 <__global_pointer$+0x1412a>
    3c42:	0000                	c.unimp
    3c44:	0b95                	c.addi	s7,5
    3c46:	1b04                	c.addi4spn	s1,sp,432
    3c48:	0014                	.2byte	0x14
    3c4a:	9600                	exec.it	#322     !
    3c4c:	152b040b          	lbgp	s0,86354 # 0x175ea <__global_pointer$+0x15152>
    3c50:	0000                	c.unimp
    3c52:	3c040b97          	auipc	s7,0x3c040
    3c56:	0016                	c.slli	zero,0x5
    3c58:	9800                	exec.it	#260     !
    3c5a:	1721040b          	lbgp	s0,65906 # 0x1260a <__global_pointer$+0x10172>
    3c5e:	0000                	c.unimp
    3c60:	0b99                	c.addi	s7,6 # 0x3c043c58 <loader+0x2c143c58>
    3c62:	f604                	.2byte	0xf604
    3c64:	9a000017          	auipc	zero,0x9a000
    3c68:	18a2040b          	lbgp	s0,4490 # 0x3622 <__global_pointer$+0x118a>
    3c6c:	0000                	c.unimp
    3c6e:	57040b9b          	.4byte	0x57040b9b
    3c72:	0019                	c.nop	6
    3c74:	9c00                	exec.it	#262     !
    3c76:	1a37040b          	lbgp	s0,80290 # 0x15e3a <__global_pointer$+0x139a2>
    3c7a:	0000                	c.unimp
    3c7c:	0b9d                	c.addi	s7,7
    3c7e:	1504                	c.addi4spn	s1,sp,672
    3c80:	0018                	.2byte	0x18
    3c82:	9e00                	exec.it	#326     !
    3c84:	18d1040b          	lbgp	s0,67980 # 0x12e24 <__global_pointer$+0x1098c>
    3c88:	0000                	c.unimp
    3c8a:	0b9f 9704 000b      	.byte	0x9f, 0x0b, 0x04, 0x97, 0x0b, 0x00
    3c90:	2300                	.2byte	0x2300
    3c92:	0ba60403          	lb	s0,186(a2)
    3c96:	0000                	c.unimp
    3c98:	0324                	c.addi4spn	s1,sp,392
    3c9a:	c704                	c.sw	s1,8(a4)
    3c9c:	0012                	c.slli	zero,0x4
    3c9e:	2500                	.2byte	0x2500
    3ca0:	12d60403          	lb	s0,301(a2)
    3ca4:	0000                	c.unimp
    3ca6:	0326                	c.slli	t1,0x9
    3ca8:	e504                	.2byte	0xe504
    3caa:	0012                	c.slli	zero,0x4
    3cac:	2700                	.2byte	0x2700
    3cae:	0bc70403          	lb	s0,188(a4)
    3cb2:	0000                	c.unimp
    3cb4:	0328                	c.addi4spn	a0,sp,392
    3cb6:	d604                	c.sw	s1,40(a2)
    3cb8:	2900000b          	lbgp	zero,656 # 0x2728 <__global_pointer$+0x290>
    3cbc:	1b530403          	lb	s0,437(t1)
    3cc0:	0000                	c.unimp
    3cc2:	032a                	c.slli	t1,0xa
    3cc4:	6304                	.2byte	0x6304
    3cc6:	2b00001b          	.4byte	0x2b00001b
    3cca:	1b730403          	lb	s0,439(t1)
    3cce:	0000                	c.unimp
    3cd0:	032c                	c.addi4spn	a1,sp,392
    3cd2:	8304                	exec.it	#584     !
    3cd4:	2d00001b          	.4byte	0x2d00001b
    3cd8:	14cf0403          	lb	s0,332(t5)
    3cdc:	0000                	c.unimp
    3cde:	032e                	c.slli	t1,0xb
    3ce0:	9304                	exec.it	#840     !
    3ce2:	2f00001b          	.4byte	0x2f00001b
    3ce6:	1ba30403          	lb	s0,442(t1)
    3cea:	0000                	c.unimp
    3cec:	0330                	c.addi4spn	a2,sp,392
    3cee:	b304                	.2byte	0xb304
    3cf0:	3100001b          	.4byte	0x3100001b
    3cf4:	1bc30403          	lb	s0,444(t1)
    3cf8:	0000                	c.unimp
    3cfa:	0332                	c.slli	t1,0xc
    3cfc:	d304                	c.sw	s1,32(a4)
    3cfe:	3300001b          	.4byte	0x3300001b
    3d02:	1c4e0403          	lb	s0,452(t3)
    3d06:	0000                	c.unimp
    3d08:	0334                	c.addi4spn	a3,sp,392
    3d0a:	5e04                	c.lw	s1,56(a2)
    3d0c:	001c                	.2byte	0x1c
    3d0e:	3500                	.2byte	0x3500
    3d10:	1c6e0403          	lb	s0,454(t3)
    3d14:	0000                	c.unimp
    3d16:	0336                	c.slli	t1,0xd
    3d18:	7e04                	.2byte	0x7e04
    3d1a:	001c                	.2byte	0x1c
    3d1c:	3700                	.2byte	0x3700
    3d1e:	1c8e0403          	lb	s0,456(t3)
    3d22:	0000                	c.unimp
    3d24:	0338                	c.addi4spn	a4,sp,392
    3d26:	9e04                	exec.it	#334     !
    3d28:	001c                	.2byte	0x1c
    3d2a:	3900                	.2byte	0x3900
    3d2c:	1cae0403          	lb	s0,458(t3)
    3d30:	0000                	c.unimp
    3d32:	033a                	c.slli	t1,0xe
    3d34:	be04                	.2byte	0xbe04
    3d36:	001c                	.2byte	0x1c
    3d38:	3b00                	.2byte	0x3b00
    3d3a:	1cce0403          	lb	s0,460(t3)
    3d3e:	0000                	c.unimp
    3d40:	033c                	c.addi4spn	a5,sp,392
    3d42:	de04                	c.sw	s1,56(a2)
    3d44:	001c                	.2byte	0x1c
    3d46:	3d00                	.2byte	0x3d00
    3d48:	1d490403          	lb	s0,468(s2)
    3d4c:	0000                	c.unimp
    3d4e:	033e                	c.slli	t1,0xf
    3d50:	5904                	c.lw	s1,48(a0)
    3d52:	001d                	c.nop	7
    3d54:	3f00                	.2byte	0x3f00
    3d56:	03070403          	lb	s0,48(a4)
    3d5a:	0000                	c.unimp
    3d5c:	95040723          	sb	a6,-1714(s0)
    3d60:	24000003          	lb	zero,576(zero) # 0x240 <amoandw_func+0x30>
    3d64:	04960407          	.4byte	0x4960407
    3d68:	0000                	c.unimp
    3d6a:	0725                	c.addi	a4,9
    3d6c:	dd04                	c.sw	s1,56(a0)
    3d6e:	0004                	.2byte	0x4
    3d70:	2600                	.2byte	0x2600
    3d72:	05ea0407          	.4byte	0x5ea0407
    3d76:	0000                	c.unimp
    3d78:	e1040727          	.4byte	0xe1040727
    3d7c:	0006                	c.slli	zero,0x1
    3d7e:	2800                	.2byte	0x2800
    3d80:	07ca0407          	.4byte	0x7ca0407
    3d84:	0000                	c.unimp
    3d86:	0729                	c.addi	a4,10
    3d88:	2304                	.2byte	0x2304
    3d8a:	000e                	c.slli	zero,0x3
    3d8c:	2a00                	.2byte	0x2a00
    3d8e:	0f5a0407          	.4byte	0xf5a0407
    3d92:	0000                	c.unimp
    3d94:	9604072b          	shgp	zero,-122514 # 0xfffe4606 <boot_loader+0x7ffe4606>
    3d98:	0010                	.2byte	0x10
    3d9a:	2c00                	.2byte	0x2c00
    3d9c:	12250407          	.4byte	0x12250407
    3da0:	0000                	c.unimp
    3da2:	072d                	c.addi	a4,11
    3da4:	c904                	c.sw	s1,16(a0)
    3da6:	2e000013          	li	zero,736
    3daa:	14df0407          	.4byte	0x14df0407
    3dae:	0000                	c.unimp
    3db0:	ea04072f          	.4byte	0xea04072f
    3db4:	0015                	c.nop	5
    3db6:	3000                	.2byte	0x3000
    3db8:	16cb0407          	.4byte	0x16cb0407
    3dbc:	0000                	c.unimp
    3dbe:	0731                	c.addi	a4,12
    3dc0:	6404                	.2byte	0x6404
    3dc2:	32000017          	auipc	zero,0x32000
    3dc6:	183a0407          	.4byte	0x183a0407
    3dca:	0000                	c.unimp
    3dcc:	fb040733          	.4byte	0xfb040733
    3dd0:	0015                	c.nop	5
    3dd2:	3400                	.2byte	0x3400
    3dd4:	16dc0407          	.4byte	0x16dc0407
    3dd8:	0000                	c.unimp
    3dda:	0735                	c.addi	a4,13
    3ddc:	9d04                	exec.it	#782     !
    3dde:	36000017          	auipc	zero,0x36000
    3de2:	184b0407          	.4byte	0x184b0407
    3de6:	0000                	c.unimp
    3de8:	0c040737          	lui	a4,0xc040
    3dec:	001c                	.2byte	0x1c
    3dee:	3800                	.2byte	0x3800
    3df0:	19e30407          	.4byte	0x19e30407
    3df4:	0000                	c.unimp
    3df6:	0739                	c.addi	a4,14 # 0xc04000e <_stack+0x404000e>
    3df8:	8004                	exec.it	#8     !
    3dfa:	001a                	c.slli	zero,0x6
    3dfc:	3a00                	.2byte	0x3a00
    3dfe:	0a5a0407          	.4byte	0xa5a0407
    3e02:	0000                	c.unimp
    3e04:	0404073b          	.4byte	0x404073b
    3e08:	0008                	.2byte	0x8
    3e0a:	3c00                	.2byte	0x3c00
    3e0c:	1d690407          	.4byte	0x1d690407
    3e10:	0000                	c.unimp
    3e12:	073d                	c.addi	a4,15
    3e14:	9904                	exec.it	#780     !
    3e16:	001a                	c.slli	zero,0x6
    3e18:	3e00                	.2byte	0x3e00
    3e1a:	1bed0407          	.4byte	0x1bed0407
    3e1e:	0000                	c.unimp
    3e20:	5804073f a0000017 	.8byte	0xa00000175804073f
    3e28:	08610407          	.4byte	0x8610407
    3e2c:	0000                	c.unimp
    3e2e:	07a1                	c.addi	a5,8
    3e30:	cc04                	c.sw	s1,24(s0)
    3e32:	a2000017          	auipc	zero,0xa2000
    3e36:	086c0407          	.4byte	0x86c0407
    3e3a:	0000                	c.unimp
    3e3c:	6a0407a3          	sb	zero,1711(s0)
    3e40:	0009                	c.nop	2
    3e42:	b000                	.2byte	0xb000
    3e44:	0be50407          	.4byte	0xbe50407
    3e48:	0000                	c.unimp
    3e4a:	07b1                	c.addi	a5,12
    3e4c:	e904                	.2byte	0xe904
    3e4e:	b2000007          	.4byte	0xb2000007
    3e52:	05c10407          	.4byte	0x5c10407
    3e56:	0000                	c.unimp
    3e58:	0800                	c.addi4spn	s0,sp,16
    3e5a:	b504                	.2byte	0xb504
    3e5c:	0018                	.2byte	0x18
    3e5e:	0100                	c.addi4spn	s0,sp,128
    3e60:	0408                	c.addi4spn	a0,sp,512
    3e62:	05b5                	c.addi	a1,13
    3e64:	0000                	c.unimp
    3e66:	0809                	c.addi	a6,2
    3e68:	6704                	.2byte	0x6704
    3e6a:	0018                	.2byte	0x18
    3e6c:	0b00                	c.addi4spn	s0,sp,400
    3e6e:	0408                	c.addi4spn	a0,sp,512
    3e70:	1781                	c.addi	a5,-32
    3e72:	0000                	c.unimp
    3e74:	080c                	c.addi4spn	a1,sp,16
    3e76:	b404                	.2byte	0xb404
    3e78:	0010                	.2byte	0x10
    3e7a:	1000                	c.addi4spn	s0,sp,32
    3e7c:	0408                	c.addi4spn	a0,sp,512
    3e7e:	000016f7          	.4byte	0x16f7
    3e82:	0811                	c.addi	a6,4
    3e84:	e304                	.2byte	0xe304
    3e86:	1200001b          	.4byte	0x1200001b
    3e8a:	0408                	c.addi4spn	a0,sp,512
    3e8c:	1bfe                	c.slli	s7,0x3f
    3e8e:	0000                	c.unimp
    3e90:	2a040813          	addi	a6,s0,672
    3e94:	000a                	c.slli	zero,0x2
    3e96:	c400                	c.sw	s0,8(s0)
    3e98:	0409                	c.addi	s0,2
    3e9a:	0a44                	c.addi4spn	s1,sp,276
    3e9c:	0000                	c.unimp
    3e9e:	09c5                	c.addi	s3,17
    3ea0:	0d04                	c.addi4spn	s1,sp,656
    3ea2:	000a                	c.slli	zero,0x2
    3ea4:	c900                	c.sw	s0,16(a0)
    3ea6:	0409                	c.addi	s0,2
    3ea8:	1d19                	c.addi	s10,-26
    3eaa:	0000                	c.unimp
    3eac:	900409cf          	.4byte	0x900409cf
    3eb0:	000c                	.2byte	0xc
    3eb2:	d100                	c.sw	s0,32(a0)
    3eb4:	0409                	c.addi	s0,2
    3eb6:	089e                	c.slli	a7,0x7
    3eb8:	0000                	c.unimp
    3eba:	09d2                	c.slli	s3,0x14
    3ebc:	c004                	c.sw	s1,0(s0)
    3ebe:	000c                	.2byte	0xc
    3ec0:	d300                	c.sw	s0,32(a4)
    3ec2:	0409                	c.addi	s0,2
    3ec4:	000002f7          	.4byte	0x2f7
    3ec8:	09d4                	c.addi4spn	a3,sp,212
    3eca:	6b04                	.2byte	0x6b04
    3ecc:	e000000f          	.4byte	0xe000000f
    3ed0:	0409                	c.addi	s0,2
    3ed2:	00000f87          	.4byte	0xf87
    3ed6:	960409e3          	beqz	s0,0x3848 <__global_pointer$+0x13b0>
    3eda:	e400000f          	.4byte	0xe400000f
    3ede:	0409                	c.addi	s0,2
    3ee0:	0fa5                	c.addi	t6,9
    3ee2:	0000                	c.unimp
    3ee4:	09e5                	c.addi	s3,25
    3ee6:	b404                	.2byte	0xb404
    3ee8:	e600000f          	.4byte	0xe600000f
    3eec:	0409                	c.addi	s0,2
    3eee:	15dc                	c.addi4spn	a5,sp,740
    3ef0:	0000                	c.unimp
    3ef2:	09cd                	c.addi	s3,19
    3ef4:	9404                	exec.it	#266     !
    3ef6:	000e                	c.slli	zero,0x3
    3ef8:	d000                	c.sw	s0,32(s0)
    3efa:	0409                	c.addi	s0,2
    3efc:	0a4d                	c.addi	s4,19
    3efe:	0000                	c.unimp
    3f00:	0fc0                	c.addi4spn	s0,sp,980
    3f02:	3e04                	.2byte	0x3e04
    3f04:	c1000003          	lb	zero,-1008(zero) # 0xfffffc10 <boot_loader+0x7ffffc10>
    3f08:	10a7040f          	.4byte	0x10a7040f
    3f0c:	0000                	c.unimp
    3f0e:	0fc2                	c.slli	t6,0x10
    3f10:	f604                	.2byte	0xf604
    3f12:	c3000007          	.4byte	0xc3000007
    3f16:	1894040f          	.4byte	0x1894040f
    3f1a:	0000                	c.unimp
    3f1c:	0fc4                	c.addi4spn	s1,sp,980
    3f1e:	0004                	.2byte	0x4
    3f20:	c700001b          	.4byte	0xc700001b
    3f24:	0c06040f          	.4byte	0xc06040f
    3f28:	0000                	c.unimp
    3f2a:	0fc8                	c.addi4spn	a0,sp,980
    3f2c:	4a04                	c.lw	s1,16(a2)
    3f2e:	001a                	c.slli	zero,0x6
    3f30:	c900                	c.sw	s0,16(a0)
    3f32:	1c41040f          	.4byte	0x1c41040f
    3f36:	0000                	c.unimp
    3f38:	0fd0                	c.addi4spn	a2,sp,980
    3f3a:	ed04                	.2byte	0xed04
    3f3c:	0016                	c.slli	zero,0x5
    3f3e:	d100                	c.sw	s0,32(a0)
    3f40:	0cde040f          	.4byte	0xcde040f
    3f44:	0000                	c.unimp
    3f46:	07c0                	c.addi4spn	s0,sp,964
    3f48:	1704                	c.addi4spn	s1,sp,928
    3f4a:	0016                	c.slli	zero,0x5
    3f4c:	c100                	c.sw	s0,0(a0)
    3f4e:	0b250407          	.4byte	0xb250407
    3f52:	0000                	c.unimp
    3f54:	07c2                	c.slli	a5,0x10
    3f56:	8a04                	exec.it	#76     !
    3f58:	000e                	c.slli	zero,0x3
    3f5a:	c300                	c.sw	s0,0(a4)
    3f5c:	08e90407          	.4byte	0x8e90407
    3f60:	0000                	c.unimp
    3f62:	07c5                	c.addi	a5,17
    3f64:	3604                	.2byte	0x3604
    3f66:	0012                	c.slli	zero,0x4
    3f68:	ca00                	c.sw	s0,16(a2)
    3f6a:	078e0407          	.4byte	0x78e0407
    3f6e:	0000                	c.unimp
    3f70:	07d0                	c.addi4spn	a2,sp,964
    3f72:	d004                	c.sw	s1,32(s0)
    3f74:	0004                	.2byte	0x4
    3f76:	df00                	c.sw	s0,56(a4)
    3f78:	1c1d0407          	.4byte	0x1c1d0407
    3f7c:	0000                	c.unimp
    3f7e:	300407cb          	.4byte	0x300407cb
    3f82:	001c                	.2byte	0x1c
    3f84:	cc00                	c.sw	s0,24(s0)
    3f86:	0a6b0407          	.4byte	0xa6b0407
    3f8a:	0000                	c.unimp
    3f8c:	07cd                	c.addi	a5,19
    3f8e:	1b04                	c.addi4spn	s1,sp,432
    3f90:	000c                	.2byte	0xc
    3f92:	f000                	.2byte	0xf000
    3f94:	15500407          	.4byte	0x15500407
    3f98:	0000                	c.unimp
    3f9a:	07f1                	c.addi	a5,28
    3f9c:	7a04                	.2byte	0x7a04
    3f9e:	0018                	.2byte	0x18
    3fa0:	c400                	c.sw	s0,8(s0)
    3fa2:	04720407          	.4byte	0x4720407
    3fa6:	0000                	c.unimp
    3fa8:	07c9                	c.addi	a5,18
    3faa:	1504                	c.addi4spn	s1,sp,672
    3fac:	0008                	.2byte	0x8
    3fae:	d500                	c.sw	s0,40(a0)
    3fb0:	0dfd0407          	.4byte	0xdfd0407
    3fb4:	0000                	c.unimp
    3fb6:	07d6                	c.slli	a5,0x15
    3fb8:	9504                	exec.it	#778     !
    3fba:	000a                	c.slli	zero,0x2
    3fbc:	d700                	c.sw	s0,40(a4)
    3fbe:	09d00407          	.4byte	0x9d00407
    3fc2:	0000                	c.unimp
    3fc4:	07d8                	c.addi4spn	a4,sp,964
    3fc6:	a304                	.2byte	0xa304
    3fc8:	000a                	c.slli	zero,0x2
    3fca:	d900                	c.sw	s0,48(a0)
    3fcc:	09e00407          	.4byte	0x9e00407
    3fd0:	0000                	c.unimp
    3fd2:	07da                	c.slli	a5,0x16
    3fd4:	c104                	c.sw	s1,0(a0)
    3fd6:	0019                	c.nop	6
    3fd8:	db00                	c.sw	s0,48(a4)
    3fda:	19d20407          	.4byte	0x19d20407
    3fde:	0000                	c.unimp
    3fe0:	07dc                	c.addi4spn	a5,sp,964
    3fe2:	5304                	c.lw	s1,32(a4)
    3fe4:	0004                	.2byte	0x4
    3fe6:	dd00                	c.sw	s0,56(a0)
    3fe8:	093f0407          	.4byte	0x93f0407
    3fec:	0000                	c.unimp
    3fee:	07de                	c.slli	a5,0x17
    3ff0:	e904                	.2byte	0xe904
    3ff2:	c6000017          	auipc	zero,0xc6000
    3ff6:	196a0407          	.4byte	0x196a0407
    3ffa:	0000                	c.unimp
    3ffc:	890407c7          	.4byte	0x890407c7
    4000:	0004                	.2byte	0x4
    4002:	c800                	c.sw	s0,16(s0)
    4004:	0ca30407          	.4byte	0xca30407
    4008:	0000                	c.unimp
    400a:	07ce                	c.slli	a5,0x13
    400c:	a804                	.2byte	0xa804
    400e:	0006                	c.slli	zero,0x1
    4010:	d100                	c.sw	s0,32(a0)
    4012:	06bb0407          	.4byte	0x6bb0407
    4016:	0000                	c.unimp
    4018:	07d2                	c.slli	a5,0x14
    401a:	ce04                	c.sw	s1,24(a2)
    401c:	0006                	c.slli	zero,0x1
    401e:	d300                	c.sw	s0,32(a4)
    4020:	19080407          	.4byte	0x19080407
    4024:	0000                	c.unimp
    4026:	e80407cf          	.4byte	0xe80407cf
    402a:	000c                	.2byte	0xc
    402c:	d400                	c.sw	s0,40(s0)
    402e:	0ab10407          	.4byte	0xab10407
    4032:	0000                	c.unimp
    4034:	0320                	c.addi4spn	s0,sp,392
    4036:	a504                	.2byte	0xa504
    4038:	ec000007          	.4byte	0xec000007
    403c:	08830407          	.4byte	0x8830407
    4040:	0000                	c.unimp
    4042:	07ed                	c.addi	a5,27
    4044:	3404                	.2byte	0x3404
    4046:	000e                	c.slli	zero,0x3
    4048:	ee00                	.2byte	0xee00
    404a:	04a60407          	.4byte	0x4a60407
    404e:	0000                	c.unimp
    4050:	190407ef          	jal	a5,0x441e0 <__global_pointer$+0x41d48>
    4054:	000a                	c.slli	zero,0x2
    4056:	eb00                	.2byte	0xeb00
    4058:	12450407          	.4byte	0x12450407
    405c:	0000                	c.unimp
    405e:	0bc0                	c.addi4spn	s0,sp,468
    4060:	5104                	c.lw	s1,32(a0)
    4062:	0012                	c.slli	zero,0x4
    4064:	c100                	c.sw	s0,0(a0)
    4066:	125d040b          	lbgp	s0,92452 # 0x18dbc <__global_pointer$+0x16924>
    406a:	0000                	c.unimp
    406c:	0bc2                	c.slli	s7,0x10
    406e:	6904                	.2byte	0x6904
    4070:	0012                	c.slli	zero,0x4
    4072:	c300                	c.sw	s0,0(a4)
    4074:	0b60040b          	lbgp	s0,182 # 0x254e <__global_pointer$+0xb6>
    4078:	0000                	c.unimp
    407a:	0bd0                	c.addi4spn	a2,sp,468
    407c:	cc04                	c.sw	s1,24(s0)
    407e:	d1000003          	lb	zero,-752(zero) # 0xfffffd10 <boot_loader+0x7ffffd10>
    4082:	0b6d040b          	lbgp	s0,90294 # 0x1854e <__global_pointer$+0x160b6>
    4086:	0000                	c.unimp
    4088:	0bd2                	c.slli	s7,0x14
    408a:	ea04                	.2byte	0xea04
    408c:	d3000003          	lb	zero,-720(zero) # 0xfffffd30 <boot_loader+0x7ffffd30>
    4090:	03f7040b          	lbgp	s0,79934 # 0x15cd6 <__global_pointer$+0x1383e>
    4094:	0000                	c.unimp
    4096:	0bd4                	c.addi4spn	a3,sp,468
    4098:	0404                	c.addi4spn	s1,sp,512
    409a:	0004                	.2byte	0x4
    409c:	d500                	c.sw	s0,40(a0)
    409e:	0411040b          	lbgp	s0,67648 # 0x12cd8 <__global_pointer$+0x10840>
    40a2:	0000                	c.unimp
    40a4:	0bd6                	c.slli	s7,0x15
    40a6:	1e04                	c.addi4spn	s1,sp,816
    40a8:	0004                	.2byte	0x4
    40aa:	d700                	c.sw	s0,40(a4)
    40ac:	042b040b          	lbgp	s0,86082 # 0x174da <__global_pointer$+0x15042>
    40b0:	0000                	c.unimp
    40b2:	0bd8                	c.addi4spn	a4,sp,468
    40b4:	3804                	.2byte	0x3804
    40b6:	0004                	.2byte	0x4
    40b8:	d900                	c.sw	s0,48(a0)
    40ba:	1aaa040b          	lbgp	s0,20906 # 0x7642 <__global_pointer$+0x51aa>
    40be:	0000                	c.unimp
    40c0:	0bda                	c.slli	s7,0x16
    40c2:	b804                	.2byte	0xb804
    40c4:	001a                	c.slli	zero,0x6
    40c6:	db00                	c.sw	s0,48(a4)
    40c8:	1706040b          	lbgp	s0,12656 # 0x5608 <__global_pointer$+0x3170>
    40cc:	0000                	c.unimp
    40ce:	0bdc                	c.addi4spn	a5,sp,468
    40d0:	b704                	.2byte	0xb704
    40d2:	000d                	c.nop	3
    40d4:	dd00                	c.sw	s0,56(a0)
    40d6:	0dc5040b          	lbgp	s0,73948 # 0x14574 <__global_pointer$+0x120dc>
    40da:	0000                	c.unimp
    40dc:	0bde                	c.slli	s7,0x17
    40de:	d304                	c.sw	s1,32(a4)
    40e0:	000d                	c.nop	3
    40e2:	df00                	c.sw	s0,56(a4)
    40e4:	0388040b          	lbgp	s0,16440 # 0x64d0 <__global_pointer$+0x4038>
    40e8:	0000                	c.unimp
    40ea:	07a1                	c.addi	a5,8
    40ec:	7d04                	.2byte	0x7d04
    40ee:	a1000003          	lb	zero,-1520(zero) # 0xfffffa10 <boot_loader+0x7ffffa10>
    40f2:	0e160407          	.4byte	0xe160407
    40f6:	0000                	c.unimp
    40f8:	07a1                	c.addi	a5,8
    40fa:	9004                	exec.it	#264     !
    40fc:	a1000013          	li	zero,-1520
    4100:	05ca0407          	.4byte	0x5ca0407
    4104:	0000                	c.unimp
    4106:	4c0407a3          	sb	zero,1231(s0)
    410a:	0008                	.2byte	0x8
    410c:	a300                	.2byte	0xa300
    410e:	13fe0407          	.4byte	0x13fe0407
    4112:	0000                	c.unimp
    4114:	07a4                	c.addi4spn	s1,sp,968
    4116:	8704                	exec.it	#586     !
    4118:	0018                	.2byte	0x18
    411a:	a500                	.2byte	0xa500
    411c:	162f0407          	.4byte	0x162f0407
    4120:	0000                	c.unimp
    4122:	07a8                	c.addi4spn	a0,sp,968
    4124:	7804                	.2byte	0x7804
    4126:	0019                	c.nop	6
    4128:	aa00                	.2byte	0xaa00
    412a:	09f00407          	.4byte	0x9f00407
    412e:	0000                	c.unimp
    4130:	07b2                	c.slli	a5,0xc
    4132:	2504                	.2byte	0x2504
    4134:	000c                	.2byte	0xc
    4136:	b300                	.2byte	0xb300
    4138:	1a2a0407          	.4byte	0x1a2a0407
    413c:	0000                	c.unimp
    413e:	07e0                	c.addi4spn	s0,sp,972
    4140:	0304                	c.addi4spn	s1,sp,384
    4142:	0009                	c.nop	2
    4144:	e100                	.2byte	0xe100
    4146:	0e0d0407          	.4byte	0xe0d0407
    414a:	0000                	c.unimp
    414c:	61040307          	.4byte	0x61040307
    4150:	0011                	c.nop	4
    4152:	4500                	c.lw	s0,8(a0)
    4154:	14fc0403          	lb	s0,335(s8)
    4158:	0000                	c.unimp
    415a:	3f040347          	.4byte	0x3f040347
    415e:	000c                	.2byte	0xc
    4160:	4800                	c.lw	s0,16(s0)
    4162:	12980403          	lb	s0,297(a6)
    4166:	0000                	c.unimp
    4168:	0349                	c.addi	t1,18
    416a:	000cd303          	lhu	t1,0(s9) # 0xfffe4000 <boot_loader+0x7ffe4000>
    416e:	0800                	c.addi4spn	s0,sp,16
    4170:	001ad103          	lhu	sp,1(s5)
    4174:	0900                	c.addi4spn	s0,sp,144
    4176:	00119003          	lh	zero,1(gp) # 0x2499 <__global_pointer$+0x1>
    417a:	0a00                	c.addi4spn	s0,sp,272
    417c:	000b1c03          	lh	s8,0(s6)
    4180:	0f00                	c.addi4spn	s0,sp,912
    4182:	d704                	c.sw	s1,40(a4)
    4184:	0005                	c.nop	1
    4186:	2000                	.2byte	0x2000
    4188:	040c                	c.addi4spn	a1,sp,512
    418a:	0bfc                	c.addi4spn	a5,sp,476
    418c:	0000                	c.unimp
    418e:	0c21                	c.addi	s8,8
    4190:	6004                	.2byte	0x6004
    4192:	0009                	c.nop	2
    4194:	2200                	.2byte	0x2200
    4196:	040c                	c.addi4spn	a1,sp,512
    4198:	10bc                	c.addi4spn	a5,sp,104
    419a:	0000                	c.unimp
    419c:	0fca                	c.slli	t6,0x12
    419e:	5a04                	c.lw	s1,48(a2)
    41a0:	cb000003          	lb	zero,-848(zero) # 0xfffffcb0 <boot_loader+0x7ffffcb0>
    41a4:	18bf040f          	.4byte	0x18bf040f
    41a8:	0000                	c.unimp
    41aa:	07040fcf          	.4byte	0x7040fcf
    41ae:	cf00000b          	lbgp	zero,-129808 # 0xfffe2988 <boot_loader+0x7ffe2988>
    41b2:	0405000f          	.4byte	0x405000f
    41b6:	0000e307          	.4byte	0xe307
    41ba:	0500                	c.addi4spn	s0,sp,640
    41bc:	0601                	c.addi	a2,0
    41be:	009d                	c.addi	ra,7 # 0xfffe4007 <boot_loader+0x7ffe4007>
    41c0:	0000                	c.unimp
    41c2:	0205                	c.addi	tp,1 # 0x1 <_start+0x1>
    41c4:	3305                	c.jal	0x3ee4 <__global_pointer$+0x1a4c>
    41c6:	0001                	c.nop
    41c8:	0600                	c.addi4spn	s0,sp,768
    41ca:	0504                	c.addi4spn	s1,sp,640
    41cc:	6e69                	c.lui	t3,0x1a
    41ce:	0074                	c.addi4spn	a3,sp,12
    41d0:	0105                	c.addi	sp,1
    41d2:	9b08                	exec.it	#964     !
    41d4:	0000                	c.unimp
    41d6:	0500                	c.addi4spn	s0,sp,640
    41d8:	0702                	c.slli64	a4
    41da:	0076                	c.slli	zero,0x1d
    41dc:	0000                	c.unimp
    41de:	001fa707          	.4byte	0x1fa707
    41e2:	0100                	c.addi4spn	s0,sp,128
    41e4:	0636                	c.slli	a2,0xd
    41e6:	0e04                	c.addi4spn	s1,sp,784
    41e8:	0000                	c.unimp
    41ea:	0044                	c.addi4spn	s1,sp,4
    41ec:	0000                	c.unimp
    41ee:	9c01                	.2byte	0x9c01
    41f0:	0c9c                	c.addi4spn	a5,sp,592
    41f2:	0000                	c.unimp
    41f4:	ae08                	.2byte	0xae08
    41f6:	001f 0100 2336      	.byte	0x1f, 0x00, 0x00, 0x01, 0x36, 0x23
    41fc:	0c4c                	c.addi4spn	a1,sp,532
    41fe:	0000                	c.unimp
    4200:	9102                	c.jalr	sp
    4202:	007c                	c.addi4spn	a5,sp,12
    4204:	c009                	c.beqz	s0,0x4206 <__global_pointer$+0x1d6e>
    4206:	001f 0100 0630      	.byte	0x1f, 0x00, 0x00, 0x01, 0x30, 0x06
    420c:	0cb2                	c.slli	s9,0xc
    420e:	0000                	c.unimp
    4210:	0d98                	c.addi4spn	a4,sp,720
    4212:	0000                	c.unimp
    4214:	006c                	c.addi4spn	a1,sp,12
    4216:	0000                	c.unimp
    4218:	9c01                	.2byte	0x9c01
    421a:	0405                	c.addi	s0,1
    421c:	5205                	c.li	tp,-31
    421e:	0000                	c.unimp
    4220:	0a00                	c.addi4spn	s0,sp,272
    4222:	00001fb7          	lui	t6,0x1
    4226:	1d01                	c.addi	s10,-32
    4228:	000cfa1b          	.4byte	0xcfa1b
    422c:	3800                	.2byte	0x3800
    422e:	000d                	c.nop	3
    4230:	6000                	.2byte	0x6000
    4232:	0000                	c.unimp
    4234:	0100                	c.addi4spn	s0,sp,128
    4236:	fa9c                	.2byte	0xfa9c
    4238:	000c                	.2byte	0xc
    423a:	0b00                	c.addi4spn	s0,sp,400
    423c:	0d3c                	c.addi4spn	a5,sp,664
    423e:	0000                	c.unimp
    4240:	004c                	c.addi4spn	a1,sp,4
    4242:	0000                	c.unimp
    4244:	680c                	.2byte	0x680c
    4246:	0069                	c.nop	26
    4248:	2201                	c.jal	0x4348 <__global_pointer$+0x1eb0>
    424a:	0111                	c.addi	sp,4
    424c:	000d                	c.nop	3
    424e:	0200                	c.addi4spn	s0,sp,256
    4250:	7c91                	c.lui	s9,0xfffe4
    4252:	6c0c                	.2byte	0x6c0c
    4254:	2301006f          	j	0x14484 <__global_pointer$+0x11fec>
    4258:	0111                	c.addi	sp,4
    425a:	000d                	c.nop	3
    425c:	0200                	c.addi4spn	s0,sp,256
    425e:	7891                	c.lui	a7,0xfffe4
    4260:	0000                	c.unimp
    4262:	0805                	c.addi	a6,1
    4264:	0000d907          	.4byte	0xd907
    4268:	0500                	c.addi4spn	s0,sp,640
    426a:	0704                	c.addi4spn	s1,sp,896
    426c:	00de                	c.slli	ra,0x17
    426e:	0000                	c.unimp
    4270:	c50d                	c.beqz	a0,0x429a <__global_pointer$+0x1e02>
    4272:	001f 0100 1518      	.byte	0x1f, 0x00, 0x00, 0x01, 0x18, 0x15
    4278:	0c4c                	c.addi4spn	a1,sp,532
    427a:	0000                	c.unimp
    427c:	0d2c                	c.addi4spn	a1,sp,664
    427e:	0000                	c.unimp
    4280:	000c                	.2byte	0xc
    4282:	0000                	c.unimp
    4284:	9c01                	.2byte	0x9c01
    4286:	bb0a                	.2byte	0xbb0a
    4288:	0000                	c.unimp
    428a:	0200                	c.addi4spn	s0,sp,256
    428c:	150d                	c.addi	a0,-29
    428e:	0c4c                	c.addi4spn	a1,sp,532
    4290:	0000                	c.unimp
    4292:	0cb8                	c.addi4spn	a4,sp,600
    4294:	0000                	c.unimp
    4296:	0074                	c.addi4spn	a3,sp,12
    4298:	0000                	c.unimp
    429a:	9c01                	.2byte	0x9c01
    429c:	0d7e                	c.slli	s10,0x1f
    429e:	0000                	c.unimp
    42a0:	610e                	.2byte	0x610e
    42a2:	0200                	c.addi4spn	s0,sp,256
    42a4:	2e0d                	c.jal	0x45d6 <__global_pointer$+0x213e>
    42a6:	0c4c                	c.addi4spn	a1,sp,532
    42a8:	0000                	c.unimp
    42aa:	9102                	c.jalr	sp
    42ac:	0c6c                	c.addi4spn	a1,sp,540
    42ae:	3062                	.2byte	0x3062
    42b0:	0200                	c.addi4spn	s0,sp,256
    42b2:	0c4c100f          	.4byte	0xc4c100f
    42b6:	0000                	c.unimp
    42b8:	9102                	c.jalr	sp
    42ba:	0c7c                	c.addi4spn	a5,sp,540
    42bc:	3162                	.2byte	0x3162
    42be:	0200                	c.addi4spn	s0,sp,256
    42c0:	1010                	c.addi4spn	a2,sp,32
    42c2:	0c4c                	c.addi4spn	a1,sp,532
    42c4:	0000                	c.unimp
    42c6:	9102                	c.jalr	sp
    42c8:	0c78                	c.addi4spn	a4,sp,540
    42ca:	3262                	.2byte	0x3262
    42cc:	0200                	c.addi4spn	s0,sp,256
    42ce:	1011                	c.nop	-28
    42d0:	0c4c                	c.addi4spn	a1,sp,532
    42d2:	0000                	c.unimp
    42d4:	9102                	c.jalr	sp
    42d6:	0c74                	c.addi4spn	a3,sp,540
    42d8:	3362                	.2byte	0x3362
    42da:	0200                	c.addi4spn	s0,sp,256
    42dc:	1012                	c.slli	zero,0x24
    42de:	0c4c                	c.addi4spn	a1,sp,532
    42e0:	0000                	c.unimp
    42e2:	9102                	c.jalr	sp
    42e4:	0070                	c.addi4spn	a2,sp,12
    42e6:	0000000f          	fence	unknown,unknown
    42ea:	0200                	c.addi4spn	s0,sp,256
    42ec:	0c4c1507          	.4byte	0xc4c1507
    42f0:	0000                	c.unimp
    42f2:	0c74                	c.addi4spn	a3,sp,540
    42f4:	0000                	c.unimp
    42f6:	0044                	c.addi4spn	s1,sp,4
    42f8:	0000                	c.unimp
    42fa:	9c01                	.2byte	0x9c01
    42fc:	760e                	.2byte	0x760e
    42fe:	6c61                	c.lui	s8,0x18
    4300:	0200                	c.addi4spn	s0,sp,256
    4302:	0c4c2e07          	.4byte	0xc4c2e07
    4306:	0000                	c.unimp
    4308:	9102                	c.jalr	sp
    430a:	0e6c                	c.addi4spn	a1,sp,796
    430c:	6f72                	.2byte	0x6f72
    430e:	0072                	c.slli	zero,0x1c
    4310:	0702                	c.slli64	a4
    4312:	4c40                	c.lw	s0,28(s0)
    4314:	000c                	.2byte	0xc
    4316:	0200                	c.addi4spn	s0,sp,256
    4318:	6891                	c.lui	a7,0x4
    431a:	0710                	c.addi4spn	a2,sp,896
    431c:	0000                	c.unimp
    431e:	0200                	c.addi4spn	s0,sp,256
    4320:	1009                	c.nop	-30
    4322:	0c4c                	c.addi4spn	a1,sp,532
    4324:	0000                	c.unimp
    4326:	9102                	c.jalr	sp
    4328:	007c                	c.addi4spn	a5,sp,12
    432a:	3a00                	.2byte	0x3a00
    432c:	0001                	c.nop
    432e:	0400                	c.addi4spn	s0,sp,512
    4330:	c200                	c.sw	s0,0(a2)
    4332:	000a                	c.slli	zero,0x2
    4334:	0400                	c.addi4spn	s0,sp,512
    4336:	bb01                	c.j	0x4046 <__global_pointer$+0x1bae>
    4338:	0001                	c.nop
    433a:	0c00                	c.addi4spn	s0,sp,528
    433c:	2065                	c.jal	0x43e4 <__global_pointer$+0x1f4c>
    433e:	0000                	c.unimp
    4340:	0150                	c.addi4spn	a2,sp,132
	...
    434a:	0000                	c.unimp
    434c:	1058                	c.addi4spn	a4,sp,36
    434e:	0000                	c.unimp
    4350:	ed02                	.2byte	0xed02
    4352:	001f 0100 1612      	.byte	0x1f, 0x00, 0x00, 0x01, 0x12, 0x16
    4358:	0031                	c.nop	12
    435a:	0000                	c.unimp
    435c:	de070403          	lb	s0,-544(a4)
    4360:	0000                	c.unimp
    4362:	0200                	c.addi4spn	s0,sp,256
    4364:	2031                	c.jal	0x4370 <__global_pointer$+0x1ed8>
    4366:	0000                	c.unimp
    4368:	1201                	c.addi	tp,-32 # 0xffffffe0 <boot_loader+0x7fffffe0>
    436a:	3125                	c.jal	0x3f92 <__global_pointer$+0x1afa>
    436c:	0000                	c.unimp
    436e:	0200                	c.addi4spn	s0,sp,256
    4370:	2015                	c.jal	0x4394 <__global_pointer$+0x1efc>
    4372:	0000                	c.unimp
    4374:	1201                	c.addi	tp,-32 # 0xffffffe0 <boot_loader+0x7fffffe0>
    4376:	00003133          	snez	sp,zero
    437a:	0200                	c.addi4spn	s0,sp,256
    437c:	1e58                	c.addi4spn	a4,sp,820
    437e:	0000                	c.unimp
    4380:	1201                	c.addi	tp,-32 # 0xffffffe0 <boot_loader+0x7fffffe0>
    4382:	3144                	.2byte	0x3144
    4384:	0000                	c.unimp
    4386:	0200                	c.addi4spn	s0,sp,256
    4388:	2056                	.2byte	0x2056
    438a:	0000                	c.unimp
    438c:	1301                	c.addi	t1,-32
    438e:	3116                	.2byte	0x3116
    4390:	0000                	c.unimp
    4392:	0200                	c.addi4spn	s0,sp,256
    4394:	203e                	.2byte	0x203e
    4396:	0000                	c.unimp
    4398:	1301                	c.addi	t1,-32
    439a:	3126                	.2byte	0x3126
    439c:	0000                	c.unimp
    439e:	0200                	c.addi4spn	s0,sp,256
    43a0:	00002003          	lw	zero,0(zero) # 0x0 <_start>
    43a4:	1301                	c.addi	t1,-32
    43a6:	00003137          	lui	sp,0x3
    43aa:	0400                	c.addi4spn	s0,sp,512
    43ac:	1ff4                	c.addi4spn	a3,sp,1020
    43ae:	0000                	c.unimp
    43b0:	1401                	c.addi	s0,-32
    43b2:	050d                	c.addi	a0,3
    43b4:	202a                	.2byte	0x202a
    43b6:	0000                	c.unimp
    43b8:	3601                	c.jal	0x3eb8 <__global_pointer$+0x1a20>
    43ba:	005c                	c.addi4spn	a5,sp,4
    43bc:	f000                	.2byte	0xf000
    43be:	0000740f          	.4byte	0x740f
    43c2:	0100                	c.addi4spn	s0,sp,128
    43c4:	d59c                	c.sw	a5,40(a1)
    43c6:	0000                	c.unimp
    43c8:	0600                	c.addi4spn	s0,sp,768
    43ca:	00001ffb          	.4byte	0x1ffb
    43ce:	3901                	c.jal	0x3fde <__global_pointer$+0x1b46>
    43d0:	d51a                	c.swsp	t1,168(sp)
    43d2:	0000                	c.unimp
    43d4:	0100                	c.addi4spn	s0,sp,128
    43d6:	204e0663          	beq	t3,tp,0x45e2 <__global_pointer$+0x214a>
    43da:	0000                	c.unimp
    43dc:	3901                	c.jal	0x3fec <__global_pointer$+0x1b54>
    43de:	d524                	c.sw	s1,104(a0)
    43e0:	0000                	c.unimp
    43e2:	0100                	c.addi4spn	s0,sp,128
    43e4:	0759                	c.addi	a4,22
    43e6:	0069                	c.nop	26
    43e8:	3a01                	c.jal	0x3cf8 <__global_pointer$+0x1860>
    43ea:	3119                	c.jal	0x3ff0 <__global_pointer$+0x1b58>
    43ec:	0000                	c.unimp
    43ee:	0100                	c.addi4spn	s0,sp,128
    43f0:	0658                	c.addi4spn	a4,sp,772
    43f2:	1e2c                	c.addi4spn	a1,sp,824
    43f4:	0000                	c.unimp
    43f6:	3a01                	c.jal	0x3d06 <__global_pointer$+0x186e>
    43f8:	311c                	.2byte	0x311c
    43fa:	0000                	c.unimp
    43fc:	0100                	c.addi4spn	s0,sp,128
    43fe:	0062                	c.slli	zero,0x18
    4400:	0408                	c.addi4spn	a0,sp,512
    4402:	0031                	c.nop	12
    4404:	0000                	c.unimp
    4406:	2505                	c.jal	0x4a26 <__global_pointer$+0x258e>
    4408:	0020                	c.addi4spn	s0,sp,8
    440a:	0100                	c.addi4spn	s0,sp,128
    440c:	6018                	.2byte	0x6018
    440e:	0000                	c.unimp
    4410:	8000                	exec.it	#0     !
    4412:	0078                	c.addi4spn	a4,sp,12
    4414:	0000                	c.unimp
    4416:	9c01                	.2byte	0x9c01
    4418:	0136                	c.slli	sp,0xd
    441a:	0000                	c.unimp
    441c:	fb06                	.2byte	0xfb06
    441e:	001f 0100 1a1b      	.byte	0x1f, 0x00, 0x00, 0x01, 0x1b, 0x1a
    4424:	00d5                	c.addi	ra,21
    4426:	0000                	c.unimp
    4428:	6301                	.2byte	0x6301
    442a:	4e06                	c.lwsp	t3,64(sp)
    442c:	0020                	c.addi4spn	s0,sp,8
    442e:	0100                	c.addi4spn	s0,sp,128
    4430:	00d5241b          	.4byte	0xd5241b
    4434:	0000                	c.unimp
    4436:	5901                	c.li	s2,-32
    4438:	01006907          	.4byte	0x1006907
    443c:	191c                	c.addi4spn	a5,sp,176
    443e:	0031                	c.nop	12
    4440:	0000                	c.unimp
    4442:	5801                	c.li	a6,-32
    4444:	2c06                	.2byte	0x2c06
    4446:	001e                	c.slli	zero,0x7
    4448:	0100                	c.addi4spn	s0,sp,128
    444a:	1c1c                	c.addi4spn	a5,sp,560
    444c:	0031                	c.nop	12
    444e:	0000                	c.unimp
    4450:	6201                	.2byte	0x6201
    4452:	e306                	.2byte	0xe306
    4454:	001f 0100 1232      	.byte	0x1f, 0x00, 0x00, 0x01, 0x32, 0x12
    445a:	00000137          	lui	sp,0x0
    445e:	5801                	c.li	a6,-32
    4460:	0900                	c.addi4spn	s0,sp,144
    4462:	0408                	c.addi4spn	a0,sp,512
    4464:	0136                	c.slli	sp,0xd
    4466:	0000                	c.unimp
	...

Disassembly of section .debug_abbrev:

00000000 <.debug_abbrev>:
   0:	1101                	c.addi	sp,-32 # 0xffffffe0 <boot_loader+0x7fffffe0>
   2:	2501                	c.jal	0x602 <trap_entry+0xde>
   4:	130e                	c.slli	t1,0x23
   6:	1b0e030b          	lbgp	t1,29104 # 0x9648 <__global_pointer$+0x71b0>
   a:	110e                	c.slli	sp,0x23
   c:	1201                	c.addi	tp,-32 # 0xffffffe0 <boot_loader+0x7fffffe0>
   e:	1006                	c.slli	zero,0x21
  10:	02000017          	auipc	zero,0x2000
  14:	0024                	c.addi4spn	s1,sp,8
  16:	0b3e0b0b          	lbgp	s6,30898 # 0x9d4a <__global_pointer$+0x78b2>
  1a:	00000e03          	lb	t3,0(zero) # 0x0 <_start>
  1e:	0b002403          	lw	s0,176(zero) # 0xb0 <__nds__wsbh+0x2c>
  22:	030b3e0b          	sbgp	a6,86076 # 0x174d4 <__global_pointer$+0x1503c>
  26:	0008                	.2byte	0x8
  28:	0400                	c.addi4spn	s0,sp,512
  2a:	0b0b000f          	.4byte	0xb0b000f
  2e:	1349                	c.addi	t1,-14
  30:	0000                	c.unimp
  32:	3705                	c.jal	0xffffff52 <boot_loader+0x7fffff52>
  34:	4900                	c.lw	s0,16(a0)
  36:	06000013          	li	zero,96
  3a:	0026                	c.slli	zero,0x9
  3c:	1349                	c.addi	t1,-14
  3e:	0000                	c.unimp
  40:	03010407          	.4byte	0x3010407
  44:	3e0e                	.2byte	0x3e0e
  46:	490b0b0b          	lbgp	s6,87184 # 0x17928 <__global_pointer$+0x15490>
  4a:	3b0b3a13          	sltiu	s4,s6,944
  4e:	3905                	c.jal	0xfffffc7e <boot_loader+0x7ffffc7e>
  50:	0013010b          	lbgp	sp,71680 # 0x13c98 <__global_pointer$+0x11800>
  54:	0800                	c.addi4spn	s0,sp,16
  56:	0028                	c.addi4spn	a0,sp,8
  58:	0b1c0e03          	lb	t3,177(s8) # 0x180b1 <__global_pointer$+0x15c19>
  5c:	0000                	c.unimp
  5e:	2e09                	c.jal	0x370 <amomaxuw_func+0x28>
  60:	3f01                	c.jal	0xffffff70 <boot_loader+0x7fffff70>
  62:	0319                	c.addi	t1,6
  64:	3a0e                	.2byte	0x3a0e
  66:	390b3b0b          	sbgp	a6,86934 # 0x1782e <__global_pointer$+0x15396>
  6a:	4919270b          	lbugp	a4,85136 # 0x17128 <__global_pointer$+0x14c90>
  6e:	01193c13          	sltiu	s8,s2,17
  72:	0a000013          	li	zero,160
  76:	0005                	c.nop	1
  78:	1349                	c.addi	t1,-14
  7a:	0000                	c.unimp
  7c:	0000180b          	addigp	a6,0 # 0x2498 <__global_pointer$>
  80:	0c00                	c.addi4spn	s0,sp,528
  82:	012e                	c.slli	sp,0xb
  84:	0e03193f 0b3b0b3a 	.8byte	0xb3b0b3a0e03193f
  8c:	0b39                	c.addi	s6,14
  8e:	193c1927          	.4byte	0x193c1927
  92:	1301                	c.addi	t1,-32
  94:	0000                	c.unimp
  96:	2e0d                	c.jal	0x3c8 <__cxa_atexit+0x18>
  98:	3f01                	c.jal	0xffffffa8 <boot_loader+0x7fffffa8>
  9a:	0319                	c.addi	t1,6
  9c:	3a0e                	.2byte	0x3a0e
  9e:	390b3b0b          	sbgp	a6,86934 # 0x1782e <__global_pointer$+0x15396>
  a2:	1119270b          	lbugp	a4,84240 # 0x16da8 <__global_pointer$+0x14910>
  a6:	1201                	c.addi	tp,-32 # 0xffffffe0 <boot_loader+0x7fffffe0>
  a8:	4006                	.2byte	0x4006
  aa:	9618                	exec.it	#451     !
  ac:	1942                	c.slli	s2,0x30
  ae:	1301                	c.addi	t1,-32
  b0:	0000                	c.unimp
  b2:	340e                	.2byte	0x340e
  b4:	0300                	c.addi4spn	s0,sp,384
  b6:	3a0e                	.2byte	0x3a0e
  b8:	390b3b0b          	sbgp	a6,86934 # 0x1782e <__global_pointer$+0x15396>
  bc:	0213490b          	lbgp	s2,71713 # 0x13cb9 <__global_pointer$+0x11821>
  c0:	0018                	.2byte	0x18
  c2:	0f00                	c.addi4spn	s0,sp,912
  c4:	0034                	c.addi4spn	a3,sp,8
  c6:	0b3a0803          	lb	a6,179(s4)
  ca:	0b390b3b          	.4byte	0xb390b3b
  ce:	1349                	c.addi	t1,-14
  d0:	1802                	c.slli	a6,0x20
  d2:	0000                	c.unimp
  d4:	2e10                	.2byte	0x2e10
  d6:	3f00                	.2byte	0x3f00
  d8:	0319                	c.addi	t1,6
  da:	3a0e                	.2byte	0x3a0e
  dc:	390b3b0b          	sbgp	a6,86934 # 0x1782e <__global_pointer$+0x15396>
  e0:	4919270b          	lbugp	a4,85136 # 0x17128 <__global_pointer$+0x14c90>
  e4:	12011113          	.4byte	0x12011113
  e8:	4006                	.2byte	0x4006
  ea:	9618                	exec.it	#451     !
  ec:	1942                	c.slli	s2,0x30
  ee:	0000                	c.unimp
  f0:	2e11                	c.jal	0x404 <__nds__rotr+0x38>
  f2:	0301                	c.addi	t1,0
  f4:	3a0e                	.2byte	0x3a0e
  f6:	390b3b0b          	sbgp	a6,86934 # 0x1782e <__global_pointer$+0x15396>
  fa:	4919270b          	lbugp	a4,85136 # 0x17128 <__global_pointer$+0x14c90>
  fe:	12011113          	.4byte	0x12011113
 102:	4006                	.2byte	0x4006
 104:	9718                	exec.it	#963     !
 106:	1942                	c.slli	s2,0x30
 108:	1301                	c.addi	t1,-32
 10a:	0000                	c.unimp
 10c:	0512                	c.slli	a0,0x4
 10e:	0300                	c.addi4spn	s0,sp,384
 110:	3a08                	.2byte	0x3a08
 112:	390b3b0b          	sbgp	a6,86934 # 0x1782e <__global_pointer$+0x15396>
 116:	0213490b          	lbgp	s2,71713 # 0x13cb9 <__global_pointer$+0x11821>
 11a:	0018                	.2byte	0x18
 11c:	1300                	c.addi4spn	s0,sp,416
 11e:	012e                	c.slli	sp,0xb
 120:	0b3a0e03          	lb	t3,179(s4)
 124:	0b390b3b          	.4byte	0xb390b3b
 128:	13491927          	.4byte	0x13491927
 12c:	0111                	c.addi	sp,4
 12e:	0612                	c.slli	a2,0x4
 130:	1840                	c.addi4spn	s0,sp,52
 132:	00194297          	auipc	t0,0x194
 136:	0000                	c.unimp
 138:	1101                	c.addi	sp,-32
 13a:	2501                	c.jal	0x73a <__nds__rotr+0x16>
 13c:	130e                	c.slli	t1,0x23
 13e:	1b0e030b          	lbgp	t1,29104 # 0x9648 <__global_pointer$+0x71b0>
 142:	110e                	c.slli	sp,0x23
 144:	1201                	c.addi	tp,-32 # 0xffffffe0 <boot_loader+0x7fffffe0>
 146:	1006                	c.slli	zero,0x21
 148:	02000017          	auipc	zero,0x2000
 14c:	0034                	c.addi4spn	a3,sp,8
 14e:	0b3a0e03          	lb	t3,179(s4)
 152:	0b390b3b          	.4byte	0xb390b3b
 156:	1349                	c.addi	t1,-14
 158:	1802193f 0f030000 	.8byte	0xf0300001802193f
 160:	0b00                	c.addi4spn	s0,sp,400
 162:	0400000b          	lbgp	zero,64 # 0x24d8 <__global_pointer$+0x40>
 166:	002e                	c.slli	zero,0xb
 168:	0e03193f 0b3b0b3a 	.8byte	0xb3b0b3a0e03193f
 170:	0b39                	c.addi	s6,14
 172:	13491927          	.4byte	0x13491927
 176:	193c                	c.addi4spn	a5,sp,184
 178:	0000                	c.unimp
 17a:	2405                	c.jal	0x39a <reset_handler+0x12>
 17c:	0b00                	c.addi4spn	s0,sp,400
 17e:	030b3e0b          	sbgp	a6,86076 # 0x174d4 <__global_pointer$+0x1503c>
 182:	0008                	.2byte	0x8
 184:	0600                	c.addi4spn	s0,sp,768
 186:	002e                	c.slli	zero,0xb
 188:	0e03193f 0b3b0b3a 	.8byte	0xb3b0b3a0e03193f
 190:	0b39                	c.addi	s6,14
 192:	193c1927          	.4byte	0x193c1927
 196:	0000                	c.unimp
 198:	3f012e07          	.4byte	0x3f012e07
 19c:	0319                	c.addi	t1,6
 19e:	3a0e                	.2byte	0x3a0e
 1a0:	390b3b0b          	sbgp	a6,86934 # 0x1782e <__global_pointer$+0x15396>
 1a4:	1119270b          	lbugp	a4,84240 # 0x16da8 <__global_pointer$+0x14910>
 1a8:	1201                	c.addi	tp,-32 # 0xffffffe0 <boot_loader+0x7fffffe0>
 1aa:	4006                	.2byte	0x4006
 1ac:	9718                	exec.it	#963     !
 1ae:	1942                	c.slli	s2,0x30
 1b0:	1301                	c.addi	t1,-32
 1b2:	0000                	c.unimp
 1b4:	0508                	c.addi4spn	a0,sp,640
 1b6:	0300                	c.addi4spn	s0,sp,384
 1b8:	3a0e                	.2byte	0x3a0e
 1ba:	390b3b0b          	sbgp	a6,86934 # 0x1782e <__global_pointer$+0x15396>
 1be:	0213490b          	lbgp	s2,71713 # 0x13cb9 <__global_pointer$+0x11821>
 1c2:	0018                	.2byte	0x18
 1c4:	0900                	c.addi4spn	s0,sp,144
 1c6:	0115                	c.addi	sp,5
 1c8:	13011927          	.4byte	0x13011927
 1cc:	0000                	c.unimp
 1ce:	050a                	c.slli	a0,0x2
 1d0:	4900                	c.lw	s0,16(a0)
 1d2:	0b000013          	li	zero,176
 1d6:	0b0b000f          	.4byte	0xb0b000f
 1da:	1349                	c.addi	t1,-14
 1dc:	0000                	c.unimp
 1de:	2e0c                	.2byte	0x2e0c
 1e0:	3f01                	c.jal	0xf0 <__loader_lmaend+0x4>
 1e2:	0319                	c.addi	t1,6
 1e4:	3a0e                	.2byte	0x3a0e
 1e6:	390b3b0b          	sbgp	a6,86934 # 0x1782e <__global_pointer$+0x15396>
 1ea:	1119270b          	lbugp	a4,84240 # 0x16da8 <__global_pointer$+0x14910>
 1ee:	1201                	c.addi	tp,-32 # 0xffffffe0 <boot_loader+0x7fffffe0>
 1f0:	4006                	.2byte	0x4006
 1f2:	9618                	exec.it	#451     !
 1f4:	1942                	c.slli	s2,0x30
 1f6:	0000                	c.unimp
 1f8:	0100                	c.addi4spn	s0,sp,128
 1fa:	0111                	c.addi	sp,4
 1fc:	0e25                	c.addi	t3,9 # 0x1a009 <__global_pointer$+0x17b71>
 1fe:	0e030b13          	addi	s6,t1,224
 202:	01110e1b          	.4byte	0x1110e1b
 206:	0612                	c.slli	a2,0x4
 208:	1710                	c.addi4spn	a2,sp,928
 20a:	0000                	c.unimp
 20c:	2402                	.2byte	0x2402
 20e:	0b00                	c.addi4spn	s0,sp,400
 210:	030b3e0b          	sbgp	a6,86076 # 0x174d4 <__global_pointer$+0x1503c>
 214:	000e                	c.slli	zero,0x3
 216:	0300                	c.addi4spn	s0,sp,384
 218:	0024                	c.addi4spn	s1,sp,8
 21a:	0b3e0b0b          	lbgp	s6,30898 # 0x9d4a <__global_pointer$+0x78b2>
 21e:	00000803          	lb	a6,0(zero) # 0x0 <_start>
 222:	3504                	.2byte	0x3504
 224:	4900                	c.lw	s0,16(a0)
 226:	05000013          	li	zero,80
 22a:	0b0b000f          	.4byte	0xb0b000f
 22e:	1349                	c.addi	t1,-14
 230:	0000                	c.unimp
 232:	3706                	.2byte	0x3706
 234:	4900                	c.lw	s0,16(a0)
 236:	07000013          	li	zero,112
 23a:	0026                	c.slli	zero,0x9
 23c:	1349                	c.addi	t1,-14
 23e:	0000                	c.unimp
 240:	0408                	c.addi4spn	a0,sp,512
 242:	0301                	c.addi	t1,0
 244:	3e0e                	.2byte	0x3e0e
 246:	490b0b0b          	lbgp	s6,87184 # 0x17928 <__global_pointer$+0x15490>
 24a:	3b0b3a13          	sltiu	s4,s6,944
 24e:	010b390b          	sbgp	a6,86034 # 0x174aa <__global_pointer$+0x15012>
 252:	09000013          	li	zero,144
 256:	0028                	c.addi4spn	a0,sp,8
 258:	0b1c0e03          	lb	t3,177(s8)
 25c:	0000                	c.unimp
 25e:	280a                	.2byte	0x280a
 260:	0300                	c.addi4spn	s0,sp,384
 262:	1c0e                	c.slli	s8,0x23
 264:	0005                	c.nop	1
 266:	0b00                	c.addi4spn	s0,sp,400
 268:	012e                	c.slli	sp,0xb
 26a:	0e03193f 0b3b0b3a 	.8byte	0xb3b0b3a0e03193f
 272:	0b39                	c.addi	s6,14
 274:	193c1927          	.4byte	0x193c1927
 278:	1301                	c.addi	t1,-32
 27a:	0000                	c.unimp
 27c:	050c                	c.addi4spn	a1,sp,640
 27e:	4900                	c.lw	s0,16(a0)
 280:	0d000013          	li	zero,208
 284:	012e                	c.slli	sp,0xb
 286:	0e03193f 0b3b0b3a 	.8byte	0xb3b0b3a0e03193f
 28e:	0b39                	c.addi	s6,14
 290:	13491927          	.4byte	0x13491927
 294:	193c                	c.addi4spn	a5,sp,184
 296:	1301                	c.addi	t1,-32
 298:	0000                	c.unimp
 29a:	180e                	c.slli	a6,0x23
 29c:	0000                	c.unimp
 29e:	0f00                	c.addi4spn	s0,sp,912
 2a0:	012e                	c.slli	sp,0xb
 2a2:	0e03193f 0b3b0b3a 	.8byte	0xb3b0b3a0e03193f
 2aa:	0b39                	c.addi	s6,14
 2ac:	01881927          	.4byte	0x1881927
 2b0:	1201110b          	addigp	sp,65824 # 0x125b8 <__global_pointer$+0x10120>
 2b4:	4006                	.2byte	0x4006
 2b6:	9618                	exec.it	#451     !
 2b8:	1942                	c.slli	s2,0x30
 2ba:	1301                	c.addi	t1,-32
 2bc:	0000                	c.unimp
 2be:	3410                	.2byte	0x3410
 2c0:	0300                	c.addi4spn	s0,sp,384
 2c2:	3a0e                	.2byte	0x3a0e
 2c4:	390b3b0b          	sbgp	a6,86934 # 0x1782e <__global_pointer$+0x15396>
 2c8:	0213490b          	lbgp	s2,71713 # 0x13cb9 <__global_pointer$+0x11821>
 2cc:	0018                	.2byte	0x18
 2ce:	1100                	c.addi4spn	s0,sp,160
 2d0:	011d                	c.addi	sp,7
 2d2:	1331                	c.addi	t1,-20
 2d4:	0111                	c.addi	sp,4
 2d6:	0612                	c.slli	a2,0x4
 2d8:	0b58                	c.addi4spn	a4,sp,404
 2da:	0b59                	c.addi	s6,22
 2dc:	13010b57          	.4byte	0x13010b57
 2e0:	0000                	c.unimp
 2e2:	3412                	.2byte	0x3412
 2e4:	3100                	.2byte	0x3100
 2e6:	00180213          	addi	tp,a6,1
 2ea:	1300                	c.addi4spn	s0,sp,416
 2ec:	011d                	c.addi	sp,7
 2ee:	1331                	c.addi	t1,-20
 2f0:	0111                	c.addi	sp,4
 2f2:	0612                	c.slli	a2,0x4
 2f4:	0b58                	c.addi4spn	a4,sp,404
 2f6:	0b59                	c.addi	s6,22
 2f8:	00000b57          	.4byte	0xb57
 2fc:	0514                	c.addi4spn	a3,sp,640
 2fe:	3100                	.2byte	0x3100
 300:	00180213          	addi	tp,a6,1
 304:	1500                	c.addi4spn	s0,sp,672
 306:	012e                	c.slli	sp,0xb
 308:	0e03193f 0b3b0b3a 	.8byte	0xb3b0b3a0e03193f
 310:	0b39                	c.addi	s6,14
 312:	13491927          	.4byte	0x13491927
 316:	0111                	c.addi	sp,4
 318:	0612                	c.slli	a2,0x4
 31a:	1840                	c.addi4spn	s0,sp,52
 31c:	4296                	c.lwsp	t0,68(sp)
 31e:	0119                	c.addi	sp,6
 320:	16000013          	li	zero,352
 324:	0005                	c.nop	1
 326:	0b3a0e03          	lb	t3,179(s4)
 32a:	0b390b3b          	.4byte	0xb390b3b
 32e:	1349                	c.addi	t1,-14
 330:	1802                	c.slli	a6,0x20
 332:	0000                	c.unimp
 334:	03000517          	auipc	a0,0x3000
 338:	3a08                	.2byte	0x3a08
 33a:	390b3b0b          	sbgp	a6,86934 # 0x1782e <__global_pointer$+0x15396>
 33e:	0213490b          	lbgp	s2,71713 # 0x13cb9 <__global_pointer$+0x11821>
 342:	0018                	.2byte	0x18
 344:	1800                	c.addi4spn	s0,sp,48
 346:	012e                	c.slli	sp,0xb
 348:	0e03193f 0b3b0b3a 	.8byte	0xb3b0b3a0e03193f
 350:	0b39                	c.addi	s6,14
 352:	01111927          	.4byte	0x1111927
 356:	0612                	c.slli	a2,0x4
 358:	1840                	c.addi4spn	s0,sp,52
 35a:	4296                	c.lwsp	t0,68(sp)
 35c:	0119                	c.addi	sp,6
 35e:	19000013          	li	zero,400
 362:	002e                	c.slli	zero,0xb
 364:	0e03193f 0b3b0b3a 	.8byte	0xb3b0b3a0e03193f
 36c:	0b39                	c.addi	s6,14
 36e:	01111927          	.4byte	0x1111927
 372:	0612                	c.slli	a2,0x4
 374:	1840                	c.addi4spn	s0,sp,52
 376:	00194297          	auipc	t0,0x194
 37a:	1a00                	c.addi4spn	s0,sp,304
 37c:	012e                	c.slli	sp,0xb
 37e:	0b3a0e03          	lb	t3,179(s4)
 382:	0b390b3b          	.4byte	0xb390b3b
 386:	0b201927          	.4byte	0xb201927
 38a:	1301                	c.addi	t1,-32
 38c:	0000                	c.unimp
 38e:	0300051b          	.4byte	0x300051b
 392:	3a0e                	.2byte	0x3a0e
 394:	390b3b0b          	sbgp	a6,86934 # 0x1782e <__global_pointer$+0x15396>
 398:	0013490b          	lbgp	s2,71681 # 0x13c99 <__global_pointer$+0x11801>
 39c:	1c00                	c.addi4spn	s0,sp,560
 39e:	0034                	c.addi4spn	a3,sp,8
 3a0:	0b3a0e03          	lb	t3,179(s4)
 3a4:	0b390b3b          	.4byte	0xb390b3b
 3a8:	1349                	c.addi	t1,-14
 3aa:	0000                	c.unimp
 3ac:	2e1d                	c.jal	0x6e2 <trap_entry+0x1be>
 3ae:	0301                	c.addi	t1,0
 3b0:	3a0e                	.2byte	0x3a0e
 3b2:	390b3b0b          	sbgp	a6,86934 # 0x1782e <__global_pointer$+0x15396>
 3b6:	4919270b          	lbugp	a4,85136 # 0x17128 <__global_pointer$+0x14c90>
 3ba:	010b2013          	slti	zero,s6,16
 3be:	1e000013          	li	zero,480
 3c2:	012e                	c.slli	sp,0xb
 3c4:	0b3a0e03          	lb	t3,179(s4)
 3c8:	0b390b3b          	.4byte	0xb390b3b
 3cc:	13491927          	.4byte	0x13491927
 3d0:	0111                	c.addi	sp,4
 3d2:	0612                	c.slli	a2,0x4
 3d4:	1840                	c.addi4spn	s0,sp,52
 3d6:	01194297          	auipc	t0,0x1194
 3da:	1f000013          	li	zero,496
 3de:	0034                	c.addi4spn	a3,sp,8
 3e0:	0b3a0803          	lb	a6,179(s4)
 3e4:	0b390b3b          	.4byte	0xb390b3b
 3e8:	1349                	c.addi	t1,-14
 3ea:	1802                	c.slli	a6,0x20
 3ec:	0000                	c.unimp
 3ee:	2e20                	.2byte	0x2e20
 3f0:	0301                	c.addi	t1,0
 3f2:	3a0e                	.2byte	0x3a0e
 3f4:	390b3b0b          	sbgp	a6,86934 # 0x1782e <__global_pointer$+0x15396>
 3f8:	4919270b          	lbugp	a4,85136 # 0x17128 <__global_pointer$+0x14c90>
 3fc:	12011113          	.4byte	0x12011113
 400:	4006                	.2byte	0x4006
 402:	9718                	exec.it	#963     !
 404:	1942                	c.slli	s2,0x30
 406:	0000                	c.unimp
 408:	0100                	c.addi4spn	s0,sp,128
 40a:	0011                	c.nop	4
 40c:	1710                	c.addi4spn	a2,sp,928
 40e:	0111                	c.addi	sp,4
 410:	0f12                	c.slli	t5,0x4
 412:	0e1b0e03          	lb	t3,225(s6)
 416:	0e25                	c.addi	t3,9
 418:	00000513          	li	a0,0
 41c:	0100                	c.addi4spn	s0,sp,128
 41e:	0111                	c.addi	sp,4
 420:	0e25                	c.addi	t3,9
 422:	0e030b13          	addi	s6,t1,224
 426:	01110e1b          	.4byte	0x1110e1b
 42a:	0612                	c.slli	a2,0x4
 42c:	1710                	c.addi4spn	a2,sp,928
 42e:	0000                	c.unimp
 430:	0402                	c.slli64	s0
 432:	0301                	c.addi	t1,0
 434:	3e0e                	.2byte	0x3e0e
 436:	490b0b0b          	lbgp	s6,87184 # 0x17928 <__global_pointer$+0x15490>
 43a:	3b0b3a13          	sltiu	s4,s6,944
 43e:	010b390b          	sbgp	a6,86034 # 0x174aa <__global_pointer$+0x15012>
 442:	03000013          	li	zero,48
 446:	0028                	c.addi4spn	a0,sp,8
 448:	0b1c0e03          	lb	t3,177(s8)
 44c:	0000                	c.unimp
 44e:	2804                	.2byte	0x2804
 450:	0300                	c.addi4spn	s0,sp,384
 452:	1c0e                	c.slli	s8,0x23
 454:	0005                	c.nop	1
 456:	0500                	c.addi4spn	s0,sp,640
 458:	0024                	c.addi4spn	s1,sp,8
 45a:	0b3e0b0b          	lbgp	s6,30898 # 0x9d4a <__global_pointer$+0x78b2>
 45e:	00000e03          	lb	t3,0(zero) # 0x0 <_start>
 462:	3506                	.2byte	0x3506
 464:	4900                	c.lw	s0,16(a0)
 466:	07000013          	li	zero,112
 46a:	0026                	c.slli	zero,0x9
 46c:	1349                	c.addi	t1,-14
 46e:	0000                	c.unimp
 470:	2408                	.2byte	0x2408
 472:	0b00                	c.addi4spn	s0,sp,400
 474:	030b3e0b          	sbgp	a6,86076 # 0x174d4 <__global_pointer$+0x1503c>
 478:	0008                	.2byte	0x8
 47a:	0900                	c.addi4spn	s0,sp,144
 47c:	0101                	c.addi	sp,0
 47e:	1349                	c.addi	t1,-14
 480:	1301                	c.addi	t1,-32
 482:	0000                	c.unimp
 484:	210a                	.2byte	0x210a
 486:	4900                	c.lw	s0,16(a0)
 488:	000b2f13          	slti	t5,s6,0
 48c:	0b00                	c.addi4spn	s0,sp,400
 48e:	050b0113          	addi	sp,s6,80
 492:	0b3a                	c.slli	s6,0xe
 494:	0b390b3b          	.4byte	0xb390b3b
 498:	1301                	c.addi	t1,-32
 49a:	0000                	c.unimp
 49c:	0d0c                	c.addi4spn	a1,sp,656
 49e:	0300                	c.addi4spn	s0,sp,384
 4a0:	3a0e                	.2byte	0x3a0e
 4a2:	390b3b0b          	sbgp	a6,86934 # 0x1782e <__global_pointer$+0x15396>
 4a6:	3813490b          	lbgp	s2,72577 # 0x14019 <__global_pointer$+0x11b81>
 4aa:	0d00000b          	lbgp	zero,208 # 0x2568 <__global_pointer$+0xd0>
 4ae:	000d                	c.nop	3
 4b0:	0b3a0803          	lb	a6,179(s4)
 4b4:	0b390b3b          	.4byte	0xb390b3b
 4b8:	1349                	c.addi	t1,-14
 4ba:	0b38                	c.addi4spn	a4,sp,408
 4bc:	0000                	c.unimp
 4be:	0d0e                	c.slli	s10,0x3
 4c0:	0300                	c.addi4spn	s0,sp,384
 4c2:	3a0e                	.2byte	0x3a0e
 4c4:	390b3b0b          	sbgp	a6,86934 # 0x1782e <__global_pointer$+0x15396>
 4c8:	3813490b          	lbgp	s2,72577 # 0x14019 <__global_pointer$+0x11b81>
 4cc:	0005                	c.nop	1
 4ce:	0f00                	c.addi4spn	s0,sp,912
 4d0:	000d                	c.nop	3
 4d2:	0b3a0803          	lb	a6,179(s4)
 4d6:	0b390b3b          	.4byte	0xb390b3b
 4da:	1349                	c.addi	t1,-14
 4dc:	0538                	c.addi4spn	a4,sp,648
 4de:	0000                	c.unimp
 4e0:	1610                	c.addi4spn	a2,sp,800
 4e2:	0300                	c.addi4spn	s0,sp,384
 4e4:	3a0e                	.2byte	0x3a0e
 4e6:	390b3b0b          	sbgp	a6,86934 # 0x1782e <__global_pointer$+0x15396>
 4ea:	0013490b          	lbgp	s2,71681 # 0x13c99 <__global_pointer$+0x11801>
 4ee:	1100                	c.addi4spn	s0,sp,160
 4f0:	002e                	c.slli	zero,0xb
 4f2:	0e03193f 0b3b0b3a 	.8byte	0xb3b0b3a0e03193f
 4fa:	0b39                	c.addi	s6,14
 4fc:	193c1927          	.4byte	0x193c1927
 500:	0000                	c.unimp
 502:	2e12                	.2byte	0x2e12
 504:	3f01                	c.jal	0x414 <__nds__wsbh+0x4>
 506:	0319                	c.addi	t1,6
 508:	3a0e                	.2byte	0x3a0e
 50a:	390b3b0b          	sbgp	a6,86934 # 0x1782e <__global_pointer$+0x15396>
 50e:	1119270b          	lbugp	a4,84240 # 0x16da8 <__global_pointer$+0x14910>
 512:	1201                	c.addi	tp,-32 # 0xffffffe0 <boot_loader+0x7fffffe0>
 514:	4006                	.2byte	0x4006
 516:	9718                	exec.it	#963     !
 518:	1942                	c.slli	s2,0x30
 51a:	1301                	c.addi	t1,-32
 51c:	0000                	c.unimp
 51e:	31011d13          	.4byte	0x31011d13
 522:	12011113          	.4byte	0x12011113
 526:	5806                	c.lwsp	a6,96(sp)
 528:	570b590b          	addigp	s2,87409 # 0x17a09 <__global_pointer$+0x15571>
 52c:	0013010b          	lbgp	sp,71680 # 0x13c98 <__global_pointer$+0x11800>
 530:	1400                	c.addi4spn	s0,sp,544
 532:	0005                	c.nop	1
 534:	1331                	c.addi	t1,-20
 536:	1802                	c.slli	a6,0x20
 538:	0000                	c.unimp
 53a:	3415                	c.jal	0xffffff5e <boot_loader+0x7fffff5e>
 53c:	3100                	.2byte	0x3100
 53e:	00180213          	addi	tp,a6,1
 542:	1600                	c.addi4spn	s0,sp,800
 544:	011d                	c.addi	sp,7
 546:	1331                	c.addi	t1,-20
 548:	0111                	c.addi	sp,4
 54a:	0612                	c.slli	a2,0x4
 54c:	0b58                	c.addi4spn	a4,sp,404
 54e:	0b59                	c.addi	s6,22
 550:	00000b57          	.4byte	0xb57
 554:	3f012e17          	auipc	t3,0x3f012
 558:	0319                	c.addi	t1,6
 55a:	3a0e                	.2byte	0x3a0e
 55c:	390b3b0b          	sbgp	a6,86934 # 0x1782e <__global_pointer$+0x15396>
 560:	1119270b          	lbugp	a4,84240 # 0x16da8 <__global_pointer$+0x14910>
 564:	1201                	c.addi	tp,-32 # 0xffffffe0 <boot_loader+0x7fffffe0>
 566:	4006                	.2byte	0x4006
 568:	9618                	exec.it	#451     !
 56a:	1942                	c.slli	s2,0x30
 56c:	1301                	c.addi	t1,-32
 56e:	0000                	c.unimp
 570:	3418                	.2byte	0x3418
 572:	0300                	c.addi4spn	s0,sp,384
 574:	3a0e                	.2byte	0x3a0e
 576:	390b3b0b          	sbgp	a6,86934 # 0x1782e <__global_pointer$+0x15396>
 57a:	3f13490b          	lbgp	s2,72689 # 0x14089 <__global_pointer$+0x11bf1>
 57e:	3c19                	c.jal	0xffffff94 <boot_loader+0x7fffff94>
 580:	0019                	c.nop	6
 582:	1900                	c.addi4spn	s0,sp,176
 584:	0034                	c.addi4spn	a3,sp,8
 586:	0b3a0e03          	lb	t3,179(s4)
 58a:	0b390b3b          	.4byte	0xb390b3b
 58e:	1349                	c.addi	t1,-14
 590:	1802                	c.slli	a6,0x20
 592:	0000                	c.unimp
 594:	2e1a                	.2byte	0x2e1a
 596:	3f00                	.2byte	0x3f00
 598:	0319                	c.addi	t1,6
 59a:	3a0e                	.2byte	0x3a0e
 59c:	390b3b0b          	sbgp	a6,86934 # 0x1782e <__global_pointer$+0x15396>
 5a0:	1119270b          	lbugp	a4,84240 # 0x16da8 <__global_pointer$+0x14910>
 5a4:	1201                	c.addi	tp,-32 # 0xffffffe0 <boot_loader+0x7fffffe0>
 5a6:	4006                	.2byte	0x4006
 5a8:	9718                	exec.it	#963     !
 5aa:	1942                	c.slli	s2,0x30
 5ac:	0000                	c.unimp
 5ae:	03012e1b          	.4byte	0x3012e1b
 5b2:	3a0e                	.2byte	0x3a0e
 5b4:	390b3b0b          	sbgp	a6,86934 # 0x1782e <__global_pointer$+0x15396>
 5b8:	2019270b          	lbugp	a4,84480 # 0x16e98 <__global_pointer$+0x14a00>
 5bc:	0013010b          	lbgp	sp,71680 # 0x13c98 <__global_pointer$+0x11800>
 5c0:	1c00                	c.addi4spn	s0,sp,560
 5c2:	0005                	c.nop	1
 5c4:	0b3a0e03          	lb	t3,179(s4)
 5c8:	0b390b3b          	.4byte	0xb390b3b
 5cc:	1349                	c.addi	t1,-14
 5ce:	0000                	c.unimp
 5d0:	341d                	c.jal	0xfffffff6 <boot_loader+0x7ffffff6>
 5d2:	0300                	c.addi4spn	s0,sp,384
 5d4:	3a0e                	.2byte	0x3a0e
 5d6:	390b3b0b          	sbgp	a6,86934 # 0x1782e <__global_pointer$+0x15396>
 5da:	0013490b          	lbgp	s2,71681 # 0x13c99 <__global_pointer$+0x11801>
 5de:	1e00                	c.addi4spn	s0,sp,816
 5e0:	0b0b000f          	.4byte	0xb0b000f
 5e4:	1349                	c.addi	t1,-14
 5e6:	0000                	c.unimp
 5e8:	2e1f 0301 3a0e      	.byte	0x1f, 0x2e, 0x01, 0x03, 0x0e, 0x3a
 5ee:	390b3b0b          	sbgp	a6,86934 # 0x1782e <__global_pointer$+0x15396>
 5f2:	4919270b          	lbugp	a4,85136 # 0x17128 <__global_pointer$+0x14c90>
 5f6:	12011113          	.4byte	0x12011113
 5fa:	4006                	.2byte	0x4006
 5fc:	9718                	exec.it	#963     !
 5fe:	1942                	c.slli	s2,0x30
 600:	1301                	c.addi	t1,-32
 602:	0000                	c.unimp
 604:	0520                	c.addi4spn	s0,sp,648
 606:	0300                	c.addi4spn	s0,sp,384
 608:	3a08                	.2byte	0x3a08
 60a:	390b3b0b          	sbgp	a6,86934 # 0x1782e <__global_pointer$+0x15396>
 60e:	0213490b          	lbgp	s2,71713 # 0x13cb9 <__global_pointer$+0x11821>
 612:	0018                	.2byte	0x18
 614:	2100                	.2byte	0x2100
 616:	0034                	c.addi4spn	a3,sp,8
 618:	0b3a0803          	lb	a6,179(s4)
 61c:	0b390b3b          	.4byte	0xb390b3b
 620:	1349                	c.addi	t1,-14
 622:	1802                	c.slli	a6,0x20
 624:	0000                	c.unimp
 626:	2e22                	.2byte	0x2e22
 628:	0301                	c.addi	t1,0
 62a:	3a0e                	.2byte	0x3a0e
 62c:	390b3b0b          	sbgp	a6,86934 # 0x1782e <__global_pointer$+0x15396>
 630:	4919270b          	lbugp	a4,85136 # 0x17128 <__global_pointer$+0x14c90>
 634:	12011113          	.4byte	0x12011113
 638:	4006                	.2byte	0x4006
 63a:	9718                	exec.it	#963     !
 63c:	1942                	c.slli	s2,0x30
 63e:	0000                	c.unimp
 640:	0100                	c.addi4spn	s0,sp,128
 642:	0111                	c.addi	sp,4
 644:	0e25                	c.addi	t3,9 # 0x3f01255d <loader+0x2f11255d>
 646:	0e030b13          	addi	s6,t1,224
 64a:	01110e1b          	.4byte	0x1110e1b
 64e:	0612                	c.slli	a2,0x4
 650:	1710                	c.addi4spn	a2,sp,928
 652:	0000                	c.unimp
 654:	2402                	.2byte	0x2402
 656:	0b00                	c.addi4spn	s0,sp,400
 658:	030b3e0b          	sbgp	a6,86076 # 0x174d4 <__global_pointer$+0x1503c>
 65c:	000e                	c.slli	zero,0x3
 65e:	0300                	c.addi4spn	s0,sp,384
 660:	0024                	c.addi4spn	s1,sp,8
 662:	0b3e0b0b          	lbgp	s6,30898 # 0x9d4a <__global_pointer$+0x78b2>
 666:	00000803          	lb	a6,0(zero) # 0x0 <_start>
 66a:	3504                	.2byte	0x3504
 66c:	4900                	c.lw	s0,16(a0)
 66e:	05000013          	li	zero,80
 672:	0b0b000f          	.4byte	0xb0b000f
 676:	1349                	c.addi	t1,-14
 678:	0000                	c.unimp
 67a:	3706                	.2byte	0x3706
 67c:	4900                	c.lw	s0,16(a0)
 67e:	07000013          	li	zero,112
 682:	0026                	c.slli	zero,0x9
 684:	1349                	c.addi	t1,-14
 686:	0000                	c.unimp
 688:	0408                	c.addi4spn	a0,sp,512
 68a:	0301                	c.addi	t1,0
 68c:	3e0e                	.2byte	0x3e0e
 68e:	490b0b0b          	lbgp	s6,87184 # 0x17928 <__global_pointer$+0x15490>
 692:	3b0b3a13          	sltiu	s4,s6,944
 696:	010b390b          	sbgp	a6,86034 # 0x174aa <__global_pointer$+0x15012>
 69a:	09000013          	li	zero,144
 69e:	0028                	c.addi4spn	a0,sp,8
 6a0:	0b1c0e03          	lb	t3,177(s8)
 6a4:	0000                	c.unimp
 6a6:	280a                	.2byte	0x280a
 6a8:	0300                	c.addi4spn	s0,sp,384
 6aa:	1c0e                	c.slli	s8,0x23
 6ac:	0005                	c.nop	1
 6ae:	0b00                	c.addi4spn	s0,sp,400
 6b0:	0016                	c.slli	zero,0x5
 6b2:	0b3a0e03          	lb	t3,179(s4)
 6b6:	0b390b3b          	.4byte	0xb390b3b
 6ba:	1349                	c.addi	t1,-14
 6bc:	0000                	c.unimp
 6be:	150c                	c.addi4spn	a1,sp,672
 6c0:	2700                	.2byte	0x2700
 6c2:	0019                	c.nop	6
 6c4:	0d00                	c.addi4spn	s0,sp,656
 6c6:	0101                	c.addi	sp,0
 6c8:	1349                	c.addi	t1,-14
 6ca:	1301                	c.addi	t1,-32
 6cc:	0000                	c.unimp
 6ce:	210e                	.2byte	0x210e
 6d0:	4900                	c.lw	s0,16(a0)
 6d2:	000b2f13          	slti	t5,s6,0
 6d6:	0f00                	c.addi4spn	s0,sp,912
 6d8:	0034                	c.addi4spn	a3,sp,8
 6da:	0b3a0e03          	lb	t3,179(s4)
 6de:	0b390b3b          	.4byte	0xb390b3b
 6e2:	1349                	c.addi	t1,-14
 6e4:	1802193f 2e100000 	.8byte	0x2e1000001802193f
 6ec:	3f01                	c.jal	0x5fc <trap_entry+0xd8>
 6ee:	0319                	c.addi	t1,6
 6f0:	3a0e                	.2byte	0x3a0e
 6f2:	390b3b0b          	sbgp	a6,86934 # 0x1782e <__global_pointer$+0x15396>
 6f6:	4919270b          	lbugp	a4,85136 # 0x17128 <__global_pointer$+0x14c90>
 6fa:	01193c13          	sltiu	s8,s2,17
 6fe:	11000013          	li	zero,272
 702:	0005                	c.nop	1
 704:	1349                	c.addi	t1,-14
 706:	0000                	c.unimp
 708:	1812                	c.slli	a6,0x24
 70a:	0000                	c.unimp
 70c:	1300                	c.addi4spn	s0,sp,416
 70e:	012e                	c.slli	sp,0xb
 710:	0e03193f 0b3b0b3a 	.8byte	0xb3b0b3a0e03193f
 718:	0b39                	c.addi	s6,14
 71a:	01111927          	.4byte	0x1111927
 71e:	0612                	c.slli	a2,0x4
 720:	1840                	c.addi4spn	s0,sp,52
 722:	4296                	c.lwsp	t0,68(sp)
 724:	0119                	c.addi	sp,6
 726:	14000013          	li	zero,320
 72a:	0005                	c.nop	1
 72c:	0b3a0e03          	lb	t3,179(s4)
 730:	0b390b3b          	.4byte	0xb390b3b
 734:	1349                	c.addi	t1,-14
 736:	1802                	c.slli	a6,0x20
 738:	0000                	c.unimp
 73a:	1d15                	c.addi	s10,-27
 73c:	3101                	c.jal	0x33c <amominuw_func+0x34>
 73e:	12011113          	.4byte	0x12011113
 742:	5806                	c.lwsp	a6,96(sp)
 744:	570b590b          	addigp	s2,87409 # 0x17a09 <__global_pointer$+0x15571>
 748:	1600000b          	lbgp	zero,352 # 0x25f8 <__global_pointer$+0x160>
 74c:	0005                	c.nop	1
 74e:	1331                	c.addi	t1,-20
 750:	1802                	c.slli	a6,0x20
 752:	0000                	c.unimp
 754:	31003417          	auipc	s0,0x31003
 758:	00180213          	addi	tp,a6,1
 75c:	1800                	c.addi4spn	s0,sp,48
 75e:	002e                	c.slli	zero,0xb
 760:	0e03193f 0b3b0b3a 	.8byte	0xb3b0b3a0e03193f
 768:	0b39                	c.addi	s6,14
 76a:	01111927          	.4byte	0x1111927
 76e:	0612                	c.slli	a2,0x4
 770:	1840                	c.addi4spn	s0,sp,52
 772:	4296                	c.lwsp	t0,68(sp)
 774:	0019                	c.nop	6
 776:	1900                	c.addi4spn	s0,sp,176
 778:	012e                	c.slli	sp,0xb
 77a:	0b3a0e03          	lb	t3,179(s4)
 77e:	0b390b3b          	.4byte	0xb390b3b
 782:	0b201927          	.4byte	0xb201927
 786:	1301                	c.addi	t1,-32
 788:	0000                	c.unimp
 78a:	051a                	c.slli	a0,0x6
 78c:	0300                	c.addi4spn	s0,sp,384
 78e:	3a0e                	.2byte	0x3a0e
 790:	390b3b0b          	sbgp	a6,86934 # 0x1782e <__global_pointer$+0x15396>
 794:	0013490b          	lbgp	s2,71681 # 0x13c99 <__global_pointer$+0x11801>
 798:	1b00                	c.addi4spn	s0,sp,432
 79a:	0034                	c.addi4spn	a3,sp,8
 79c:	0b3a0e03          	lb	t3,179(s4)
 7a0:	0b390b3b          	.4byte	0xb390b3b
 7a4:	1349                	c.addi	t1,-14
 7a6:	0000                	c.unimp
 7a8:	2e1c                	.2byte	0x2e1c
 7aa:	0301                	c.addi	t1,0
 7ac:	3a0e                	.2byte	0x3a0e
 7ae:	390b3b0b          	sbgp	a6,86934 # 0x1782e <__global_pointer$+0x15396>
 7b2:	4919270b          	lbugp	a4,85136 # 0x17128 <__global_pointer$+0x14c90>
 7b6:	12011113          	.4byte	0x12011113
 7ba:	4006                	.2byte	0x4006
 7bc:	9718                	exec.it	#963     !
 7be:	1942                	c.slli	s2,0x30
 7c0:	1301                	c.addi	t1,-32
 7c2:	0000                	c.unimp
 7c4:	051d                	c.addi	a0,7 # 0x300033b <__global_pointer$+0x2ffdea3>
 7c6:	0300                	c.addi4spn	s0,sp,384
 7c8:	3a08                	.2byte	0x3a08
 7ca:	390b3b0b          	sbgp	a6,86934 # 0x1782e <__global_pointer$+0x15396>
 7ce:	0213490b          	lbgp	s2,71713 # 0x13cb9 <__global_pointer$+0x11821>
 7d2:	0018                	.2byte	0x18
 7d4:	1e00                	c.addi4spn	s0,sp,816
 7d6:	0034                	c.addi4spn	a3,sp,8
 7d8:	0b3a0803          	lb	a6,179(s4)
 7dc:	0b390b3b          	.4byte	0xb390b3b
 7e0:	1349                	c.addi	t1,-14
 7e2:	1802                	c.slli	a6,0x20
 7e4:	0000                	c.unimp
 7e6:	2e1f 0301 3a0e      	.byte	0x1f, 0x2e, 0x01, 0x03, 0x0e, 0x3a
 7ec:	390b3b0b          	sbgp	a6,86934 # 0x1782e <__global_pointer$+0x15396>
 7f0:	4919270b          	lbugp	a4,85136 # 0x17128 <__global_pointer$+0x14c90>
 7f4:	12011113          	.4byte	0x12011113
 7f8:	4006                	.2byte	0x4006
 7fa:	9718                	exec.it	#963     !
 7fc:	1942                	c.slli	s2,0x30
 7fe:	0000                	c.unimp
 800:	3420                	.2byte	0x3420
 802:	0300                	c.addi4spn	s0,sp,384
 804:	3a0e                	.2byte	0x3a0e
 806:	390b3b0b          	sbgp	a6,86934 # 0x1782e <__global_pointer$+0x15396>
 80a:	0213490b          	lbgp	s2,71713 # 0x13cb9 <__global_pointer$+0x11821>
 80e:	0018                	.2byte	0x18
 810:	0000                	c.unimp
 812:	1101                	c.addi	sp,-32
 814:	2501                	c.jal	0xe14 <simple_delay_ms+0x10>
 816:	130e                	c.slli	t1,0x23
 818:	1b0e030b          	lbgp	t1,29104 # 0x9648 <__global_pointer$+0x71b0>
 81c:	110e                	c.slli	sp,0x23
 81e:	1201                	c.addi	tp,-32 # 0xffffffe0 <boot_loader+0x7fffffe0>
 820:	1006                	c.slli	zero,0x21
 822:	02000017          	auipc	zero,0x2000
 826:	0024                	c.addi4spn	s1,sp,8
 828:	0b3e0b0b          	lbgp	s6,30898 # 0x9d4a <__global_pointer$+0x78b2>
 82c:	00000e03          	lb	t3,0(zero) # 0x0 <_start>
 830:	49003503          	.4byte	0x49003503
 834:	04000013          	li	zero,64
 838:	0026                	c.slli	zero,0x9
 83a:	1349                	c.addi	t1,-14
 83c:	0000                	c.unimp
 83e:	2405                	c.jal	0xa5e <__nds__wsbh+0x2>
 840:	0b00                	c.addi4spn	s0,sp,400
 842:	030b3e0b          	sbgp	a6,86076 # 0x174d4 <__global_pointer$+0x1503c>
 846:	0008                	.2byte	0x8
 848:	0600                	c.addi4spn	s0,sp,768
 84a:	0101                	c.addi	sp,0
 84c:	1349                	c.addi	t1,-14
 84e:	1301                	c.addi	t1,-32
 850:	0000                	c.unimp
 852:	49002107          	.4byte	0x49002107
 856:	000b2f13          	slti	t5,s6,0
 85a:	0800                	c.addi4spn	s0,sp,16
 85c:	0b0b0117          	auipc	sp,0xb0b0
 860:	0b3a                	c.slli	s6,0xe
 862:	0b390b3b          	.4byte	0xb390b3b
 866:	1301                	c.addi	t1,-32
 868:	0000                	c.unimp
 86a:	0d09                	c.addi	s10,2
 86c:	0300                	c.addi4spn	s0,sp,384
 86e:	3a08                	.2byte	0x3a08
 870:	390b3b0b          	sbgp	a6,86934 # 0x1782e <__global_pointer$+0x15396>
 874:	0013490b          	lbgp	s2,71681 # 0x13c99 <__global_pointer$+0x11801>
 878:	0a00                	c.addi4spn	s0,sp,272
 87a:	0b0b0113          	addi	sp,s6,176
 87e:	0b3a                	c.slli	s6,0xe
 880:	0b390b3b          	.4byte	0xb390b3b
 884:	1301                	c.addi	t1,-32
 886:	0000                	c.unimp
 888:	03000d0b          	lbgp	s10,48 # 0x24c8 <__global_pointer$+0x30>
 88c:	3a0e                	.2byte	0x3a0e
 88e:	390b3b0b          	sbgp	a6,86934 # 0x1782e <__global_pointer$+0x15396>
 892:	3813490b          	lbgp	s2,72577 # 0x14019 <__global_pointer$+0x11b81>
 896:	0c00000b          	lbgp	zero,192 # 0x2558 <__global_pointer$+0xc0>
 89a:	000d                	c.nop	3
 89c:	0b3a0803          	lb	a6,179(s4)
 8a0:	0b390b3b          	.4byte	0xb390b3b
 8a4:	1349                	c.addi	t1,-14
 8a6:	0b38                	c.addi4spn	a4,sp,408
 8a8:	0000                	c.unimp
 8aa:	0d0d                	c.addi	s10,3
 8ac:	4900                	c.lw	s0,16(a0)
 8ae:	000b3813          	sltiu	a6,s6,0
 8b2:	0e00                	c.addi4spn	s0,sp,784
 8b4:	0016                	c.slli	zero,0x5
 8b6:	0b3a0e03          	lb	t3,179(s4)
 8ba:	0b390b3b          	.4byte	0xb390b3b
 8be:	1349                	c.addi	t1,-14
 8c0:	0000                	c.unimp
 8c2:	3f012e0f          	.4byte	0x3f012e0f
 8c6:	0319                	c.addi	t1,6
 8c8:	3a0e                	.2byte	0x3a0e
 8ca:	390b3b0b          	sbgp	a6,86934 # 0x1782e <__global_pointer$+0x15396>
 8ce:	4919270b          	lbugp	a4,85136 # 0x17128 <__global_pointer$+0x14c90>
 8d2:	12011113          	.4byte	0x12011113
 8d6:	4006                	.2byte	0x4006
 8d8:	9618                	exec.it	#451     !
 8da:	1942                	c.slli	s2,0x30
 8dc:	1301                	c.addi	t1,-32
 8de:	0000                	c.unimp
 8e0:	0510                	c.addi4spn	a2,sp,640
 8e2:	0300                	c.addi4spn	s0,sp,384
 8e4:	3a08                	.2byte	0x3a08
 8e6:	390b3b0b          	sbgp	a6,86934 # 0x1782e <__global_pointer$+0x15396>
 8ea:	0213490b          	lbgp	s2,71713 # 0x13cb9 <__global_pointer$+0x11821>
 8ee:	0018                	.2byte	0x18
 8f0:	1100                	c.addi4spn	s0,sp,160
 8f2:	0034                	c.addi4spn	a3,sp,8
 8f4:	0b3a0803          	lb	a6,179(s4)
 8f8:	0b390b3b          	.4byte	0xb390b3b
 8fc:	1349                	c.addi	t1,-14
 8fe:	1802                	c.slli	a6,0x20
 900:	0000                	c.unimp
 902:	0f12                	c.slli	t5,0x4
 904:	0b00                	c.addi4spn	s0,sp,400
 906:	0013490b          	lbgp	s2,71681 # 0x13c99 <__global_pointer$+0x11801>
 90a:	1300                	c.addi4spn	s0,sp,416
 90c:	012e                	c.slli	sp,0xb
 90e:	0e03193f 0b3b0b3a 	.8byte	0xb3b0b3a0e03193f
 916:	0b39                	c.addi	s6,14
 918:	01111927          	.4byte	0x1111927
 91c:	0612                	c.slli	a2,0x4
 91e:	1840                	c.addi4spn	s0,sp,52
 920:	01194297          	auipc	t0,0x1194
 924:	14000013          	li	zero,320
 928:	002e                	c.slli	zero,0xb
 92a:	0e03193f 0b3b0b3a 	.8byte	0xb3b0b3a0e03193f
 932:	0b39                	c.addi	s6,14
 934:	13491927          	.4byte	0x13491927
 938:	0111                	c.addi	sp,4 # 0xb0b0860 <_stack+0x30b0860>
 93a:	0612                	c.slli	a2,0x4
 93c:	1840                	c.addi4spn	s0,sp,52
 93e:	00194297          	auipc	t0,0x194
 942:	1500                	c.addi4spn	s0,sp,672
 944:	0005                	c.nop	1
 946:	0b3a0e03          	lb	t3,179(s4)
 94a:	0b390b3b          	.4byte	0xb390b3b
 94e:	1349                	c.addi	t1,-14
 950:	1802                	c.slli	a6,0x20
 952:	0000                	c.unimp
 954:	2e16                	.2byte	0x2e16
 956:	0301                	c.addi	t1,0
 958:	3a0e                	.2byte	0x3a0e
 95a:	390b3b0b          	sbgp	a6,86934 # 0x1782e <__global_pointer$+0x15396>
 95e:	4919270b          	lbugp	a4,85136 # 0x17128 <__global_pointer$+0x14c90>
 962:	12011113          	.4byte	0x12011113
 966:	4006                	.2byte	0x4006
 968:	9718                	exec.it	#963     !
 96a:	1942                	c.slli	s2,0x30
 96c:	1301                	c.addi	t1,-32
 96e:	0000                	c.unimp
 970:	03012e17          	auipc	t3,0x3012
 974:	3a0e                	.2byte	0x3a0e
 976:	390b3b0b          	sbgp	a6,86934 # 0x1782e <__global_pointer$+0x15396>
 97a:	4919270b          	lbugp	a4,85136 # 0x17128 <__global_pointer$+0x14c90>
 97e:	12011113          	.4byte	0x12011113
 982:	4006                	.2byte	0x4006
 984:	9718                	exec.it	#963     !
 986:	1942                	c.slli	s2,0x30
 988:	0000                	c.unimp
 98a:	3418                	.2byte	0x3418
 98c:	0300                	c.addi4spn	s0,sp,384
 98e:	3a0e                	.2byte	0x3a0e
 990:	390b3b0b          	sbgp	a6,86934 # 0x1782e <__global_pointer$+0x15396>
 994:	0213490b          	lbgp	s2,71713 # 0x13cb9 <__global_pointer$+0x11821>
 998:	0018                	.2byte	0x18
 99a:	0000                	c.unimp
 99c:	1101                	c.addi	sp,-32
 99e:	2501                	c.jal	0xf9e <printi+0x1a>
 9a0:	130e                	c.slli	t1,0x23
 9a2:	1b0e030b          	lbgp	t1,29104 # 0x9648 <__global_pointer$+0x71b0>
 9a6:	110e                	c.slli	sp,0x23
 9a8:	1201                	c.addi	tp,-32 # 0xffffffe0 <boot_loader+0x7fffffe0>
 9aa:	1006                	c.slli	zero,0x21
 9ac:	02000017          	auipc	zero,0x2000
 9b0:	0104                	c.addi4spn	s1,sp,128
 9b2:	0b3e0e03          	lb	t3,179(t3) # 0x3012a23 <__global_pointer$+0x301058b>
 9b6:	13490b0b          	lbgp	s6,82228 # 0x165cc <__global_pointer$+0x14134>
 9ba:	0b3a                	c.slli	s6,0xe
 9bc:	0b390b3b          	.4byte	0xb390b3b
 9c0:	1301                	c.addi	t1,-32
 9c2:	0000                	c.unimp
 9c4:	03002803          	lw	a6,48(zero) # 0x30 <_start+0x30>
 9c8:	1c0e                	c.slli	s8,0x23
 9ca:	0400000b          	lbgp	zero,64 # 0x24d8 <__global_pointer$+0x40>
 9ce:	0028                	c.addi4spn	a0,sp,8
 9d0:	051c0e03          	lb	t3,81(s8)
 9d4:	0000                	c.unimp
 9d6:	2405                	c.jal	0xbf6 <uart_puts+0x32>
 9d8:	0b00                	c.addi4spn	s0,sp,400
 9da:	030b3e0b          	sbgp	a6,86076 # 0x174d4 <__global_pointer$+0x1503c>
 9de:	000e                	c.slli	zero,0x3
 9e0:	0600                	c.addi4spn	s0,sp,768
 9e2:	0024                	c.addi4spn	s1,sp,8
 9e4:	0b3e0b0b          	lbgp	s6,30898 # 0x9d4a <__global_pointer$+0x78b2>
 9e8:	00000803          	lb	a6,0(zero) # 0x0 <_start>
 9ec:	3f012e07          	.4byte	0x3f012e07
 9f0:	0319                	c.addi	t1,6
 9f2:	3a0e                	.2byte	0x3a0e
 9f4:	390b3b0b          	sbgp	a6,86934 # 0x1782e <__global_pointer$+0x15396>
 9f8:	1119270b          	lbugp	a4,84240 # 0x16da8 <__global_pointer$+0x14910>
 9fc:	1201                	c.addi	tp,-32 # 0xffffffe0 <boot_loader+0x7fffffe0>
 9fe:	4006                	.2byte	0x4006
 a00:	9718                	exec.it	#963     !
 a02:	1942                	c.slli	s2,0x30
 a04:	1301                	c.addi	t1,-32
 a06:	0000                	c.unimp
 a08:	0508                	c.addi4spn	a0,sp,640
 a0a:	0300                	c.addi4spn	s0,sp,384
 a0c:	3a0e                	.2byte	0x3a0e
 a0e:	390b3b0b          	sbgp	a6,86934 # 0x1782e <__global_pointer$+0x15396>
 a12:	0213490b          	lbgp	s2,71713 # 0x13cb9 <__global_pointer$+0x11821>
 a16:	0018                	.2byte	0x18
 a18:	0900                	c.addi4spn	s0,sp,144
 a1a:	002e                	c.slli	zero,0xb
 a1c:	0e03193f 0b3b0b3a 	.8byte	0xb3b0b3a0e03193f
 a24:	0b39                	c.addi	s6,14
 a26:	13491927          	.4byte	0x13491927
 a2a:	0111                	c.addi	sp,4
 a2c:	0612                	c.slli	a2,0x4
 a2e:	1840                	c.addi4spn	s0,sp,52
 a30:	4296                	c.lwsp	t0,68(sp)
 a32:	0019                	c.nop	6
 a34:	0a00                	c.addi4spn	s0,sp,272
 a36:	012e                	c.slli	sp,0xb
 a38:	0b3a0e03          	lb	t3,179(s4)
 a3c:	0b390b3b          	.4byte	0xb390b3b
 a40:	13491927          	.4byte	0x13491927
 a44:	0111                	c.addi	sp,4
 a46:	0612                	c.slli	a2,0x4
 a48:	1840                	c.addi4spn	s0,sp,52
 a4a:	01194297          	auipc	t0,0x1194
 a4e:	0b000013          	li	zero,176
 a52:	0111010b          	lbgp	sp,67600 # 0x12ca8 <__global_pointer$+0x10810>
 a56:	0612                	c.slli	a2,0x4
 a58:	0000                	c.unimp
 a5a:	340c                	.2byte	0x340c
 a5c:	0300                	c.addi4spn	s0,sp,384
 a5e:	3a08                	.2byte	0x3a08
 a60:	390b3b0b          	sbgp	a6,86934 # 0x1782e <__global_pointer$+0x15396>
 a64:	0213490b          	lbgp	s2,71713 # 0x13cb9 <__global_pointer$+0x11821>
 a68:	0018                	.2byte	0x18
 a6a:	0d00                	c.addi4spn	s0,sp,656
 a6c:	002e                	c.slli	zero,0xb
 a6e:	0b3a0e03          	lb	t3,179(s4)
 a72:	0b390b3b          	.4byte	0xb390b3b
 a76:	13491927          	.4byte	0x13491927
 a7a:	0111                	c.addi	sp,4
 a7c:	0612                	c.slli	a2,0x4
 a7e:	1840                	c.addi4spn	s0,sp,52
 a80:	00194297          	auipc	t0,0x194
 a84:	0e00                	c.addi4spn	s0,sp,784
 a86:	0005                	c.nop	1
 a88:	0b3a0803          	lb	a6,179(s4)
 a8c:	0b390b3b          	.4byte	0xb390b3b
 a90:	1349                	c.addi	t1,-14
 a92:	1802                	c.slli	a6,0x20
 a94:	0000                	c.unimp
 a96:	03012e0f          	.4byte	0x3012e0f
 a9a:	3a0e                	.2byte	0x3a0e
 a9c:	390b3b0b          	sbgp	a6,86934 # 0x1782e <__global_pointer$+0x15396>
 aa0:	4919270b          	lbugp	a4,85136 # 0x17128 <__global_pointer$+0x14c90>
 aa4:	12011113          	.4byte	0x12011113
 aa8:	4006                	.2byte	0x4006
 aaa:	9718                	exec.it	#963     !
 aac:	1942                	c.slli	s2,0x30
 aae:	0000                	c.unimp
 ab0:	3410                	.2byte	0x3410
 ab2:	0300                	c.addi4spn	s0,sp,384
 ab4:	3a0e                	.2byte	0x3a0e
 ab6:	390b3b0b          	sbgp	a6,86934 # 0x1782e <__global_pointer$+0x15396>
 aba:	0213490b          	lbgp	s2,71713 # 0x13cb9 <__global_pointer$+0x11821>
 abe:	0018                	.2byte	0x18
 ac0:	0000                	c.unimp
 ac2:	1101                	c.addi	sp,-32
 ac4:	2501                	c.jal	0x10c4 <print+0x14>
 ac6:	130e                	c.slli	t1,0x23
 ac8:	1b0e030b          	lbgp	t1,29104 # 0x9648 <__global_pointer$+0x71b0>
 acc:	550e                	c.lwsp	a0,224(sp)
 ace:	10011117          	auipc	sp,0x10011
 ad2:	02000017          	auipc	zero,0x2000
 ad6:	0034                	c.addi4spn	a3,sp,8
 ad8:	0b3a0e03          	lb	t3,179(s4)
 adc:	0b390b3b          	.4byte	0xb390b3b
 ae0:	1349                	c.addi	t1,-14
 ae2:	193c193f 24030000 	.8byte	0x24030000193c193f
 aea:	0b00                	c.addi4spn	s0,sp,400
 aec:	030b3e0b          	sbgp	a6,86076 # 0x174d4 <__global_pointer$+0x1503c>
 af0:	000e                	c.slli	zero,0x3
 af2:	0400                	c.addi4spn	s0,sp,512
 af4:	002e                	c.slli	zero,0xb
 af6:	0e03193f 0b3b0b3a 	.8byte	0xb3b0b3a0e03193f
 afe:	0b39                	c.addi	s6,14
 b00:	193c1927          	.4byte	0x193c1927
 b04:	0000                	c.unimp
 b06:	2e05                	c.jal	0xe36 <simple_delay_ms+0x32>
 b08:	3f01                	c.jal	0xa18 <__nds__rotr>
 b0a:	0319                	c.addi	t1,6
 b0c:	3a0e                	.2byte	0x3a0e
 b0e:	390b3b0b          	sbgp	a6,86934 # 0x1782e <__global_pointer$+0x15396>
 b12:	1119270b          	lbugp	a4,84240 # 0x16da8 <__global_pointer$+0x14910>
 b16:	1201                	c.addi	tp,-32 # 0xffffffe0 <boot_loader+0x7fffffe0>
 b18:	4006                	.2byte	0x4006
 b1a:	9618                	exec.it	#451     !
 b1c:	1942                	c.slli	s2,0x30
 b1e:	1301                	c.addi	t1,-32
 b20:	0000                	c.unimp
 b22:	3406                	.2byte	0x3406
 b24:	0300                	c.addi4spn	s0,sp,384
 b26:	3a0e                	.2byte	0x3a0e
 b28:	390b3b0b          	sbgp	a6,86934 # 0x1782e <__global_pointer$+0x15396>
 b2c:	0213490b          	lbgp	s2,71713 # 0x13cb9 <__global_pointer$+0x11821>
 b30:	0018                	.2byte	0x18
 b32:	0700                	c.addi4spn	s0,sp,896
 b34:	0034                	c.addi4spn	a3,sp,8
 b36:	0b3a0803          	lb	a6,179(s4)
 b3a:	0b390b3b          	.4byte	0xb390b3b
 b3e:	1349                	c.addi	t1,-14
 b40:	1802                	c.slli	a6,0x20
 b42:	0000                	c.unimp
 b44:	0f08                	c.addi4spn	a0,sp,912
 b46:	0b00                	c.addi4spn	s0,sp,400
 b48:	0013490b          	lbgp	s2,71681 # 0x13c99 <__global_pointer$+0x11801>
 b4c:	0900                	c.addi4spn	s0,sp,144
 b4e:	0015                	c.nop	5
 b50:	00001927          	.4byte	0x1927
	...

Disassembly of section .debug_line:

00000000 <.debug_line>:
       0:	0322                	c.slli	t1,0x8
       2:	0000                	c.unimp
       4:	0004                	.2byte	0x4
       6:	00c6                	c.slli	ra,0x11
       8:	0000                	c.unimp
       a:	0101                	c.addi	sp,0 # 0x10011ace <loader+0x111ace>
       c:	fb01                	c.bnez	a4,0xffffff1c <boot_loader+0x7fffff1c>
       e:	0d0e                	c.slli	s10,0x3
      10:	0100                	c.addi4spn	s0,sp,128
      12:	0101                	c.addi	sp,0
      14:	0001                	c.nop
      16:	0000                	c.unimp
      18:	0001                	c.nop
      1a:	0100                	c.addi4spn	s0,sp,128
      1c:	74706f2f          	.4byte	0x74706f2f
      20:	73646e2f          	.4byte	0x73646e2f
      24:	656c3233          	.4byte	0x656c3233
      28:	652d                	c.lui	a0,0xb
      2a:	666c                	.2byte	0x666c
      2c:	6d2d                	c.lui	s10,0xb
      2e:	696c7563          	bgeu	s8,s6,0x6b8 <trap_entry+0x194>
      32:	2d62                	.2byte	0x2d62
      34:	3576                	.2byte	0x3576
      36:	62696c2f          	.4byte	0x62696c2f
      3a:	6363672f          	.4byte	0x6363672f
      3e:	7369722f          	.4byte	0x7369722f
      42:	32337663          	bgeu	t1,gp,0x36e <amomaxuw_func+0x26>
      46:	652d                	c.lui	a0,0xb
      48:	666c                	.2byte	0x666c
      4a:	2e32312f          	.4byte	0x2e32312f
      4e:	2e32                	.2byte	0x2e32
      50:	2f30                	.2byte	0x2f30
      52:	6e69                	c.lui	t3,0x1a
      54:	64756c63          	bltu	a0,t2,0x6ac <trap_entry+0x188>
      58:	0065                	c.nop	25
      5a:	74706f2f          	.4byte	0x74706f2f
      5e:	73646e2f          	.4byte	0x73646e2f
      62:	656c3233          	.4byte	0x656c3233
      66:	652d                	c.lui	a0,0xb
      68:	666c                	.2byte	0x666c
      6a:	6d2d                	c.lui	s10,0xb
      6c:	696c7563          	bgeu	s8,s6,0x6f6 <trap_entry+0x1d2>
      70:	2d62                	.2byte	0x2d62
      72:	3576                	.2byte	0x3576
      74:	7369722f          	.4byte	0x7369722f
      78:	32337663          	bgeu	t1,gp,0x3a4 <reset_handler+0x1c>
      7c:	652d                	c.lui	a0,0xb
      7e:	666c                	.2byte	0x666c
      80:	7379732f          	.4byte	0x7379732f
      84:	692d                	c.lui	s2,0xb
      86:	636e                	.2byte	0x636e
      88:	756c                	.2byte	0x756c
      8a:	6564                	.2byte	0x6564
      8c:	6200                	.2byte	0x6200
      8e:	6c2f7073          	csrci	0x6c2,30
      92:	6269                	c.lui	tp,0x1a
      94:	0000                	c.unimp
      96:	6568                	.2byte	0x6568
      98:	6c6c                	.2byte	0x6c6c
      9a:	6f775f6f          	jal	t5,0x75f90 <__global_pointer$+0x73af8>
      9e:	6c72                	.2byte	0x6c72
      a0:	2e64                	.2byte	0x2e64
      a2:	00000063          	beqz	zero,0xa2 <__nds__wsbh+0x1e>
      a6:	6e00                	.2byte	0x6e00
      a8:	7364                	.2byte	0x7364
      aa:	695f 746e 6972      	.byte	0x5f, 0x69, 0x6e, 0x74, 0x72, 0x69
      b0:	736e                	.2byte	0x736e
      b2:	6369                	c.lui	t1,0x1a
      b4:	682e                	.2byte	0x682e
      b6:	0100                	c.addi4spn	s0,sp,128
      b8:	0000                	c.unimp
      ba:	69647473          	csrrci	s0,0x696,8
      be:	00682e6f          	jal	t3,0x820c4 <__global_pointer$+0x7fc2c>
      c2:	0002                	c.slli64	zero
      c4:	7500                	.2byte	0x7500
      c6:	7261                	c.lui	tp,0xffff8
      c8:	2e74                	.2byte	0x2e74
      ca:	0068                	c.addi4spn	a0,sp,12
      cc:	00000003          	lb	zero,0(zero) # 0x0 <_start>
      d0:	0204                	c.addi4spn	s1,sp,256
      d2:	0105                	c.addi	sp,1
      d4:	0500                	c.addi4spn	s0,sp,640
      d6:	4002                	.2byte	0x4002
      d8:	0000                	c.unimp
      da:	1900                	c.addi4spn	s0,sp,176
      dc:	1005                	c.nop	-31
      de:	0c090103          	lb	sp,192(s2) # 0xb0c0 <__global_pointer$+0x8c28>
      e2:	0100                	c.addi4spn	s0,sp,128
      e4:	1805                	c.addi	a6,-31
      e6:	0c090103          	lb	sp,192(s2)
      ea:	0100                	c.addi4spn	s0,sp,128
      ec:	0105                	c.addi	sp,1
      ee:	20090103          	lb	sp,512(s2)
      f2:	0100                	c.addi4spn	s0,sp,128
      f4:	0c090303          	lb	t1,192(s2)
      f8:	0100                	c.addi4spn	s0,sp,128
      fa:	1005                	c.nop	-31
      fc:	08090103          	lb	sp,128(s2)
     100:	0100                	c.addi4spn	s0,sp,128
     102:	1805                	c.addi	a6,-31
     104:	0c090103          	lb	sp,192(s2)
     108:	0100                	c.addi4spn	s0,sp,128
     10a:	1005                	c.nop	-31
     10c:	08090003          	lb	zero,128(s2)
     110:	0100                	c.addi4spn	s0,sp,128
     112:	1805                	c.addi	a6,-31
     114:	08090103          	lb	sp,128(s2)
     118:	0100                	c.addi4spn	s0,sp,128
     11a:	1005                	c.nop	-31
     11c:	08090003          	lb	zero,128(s2)
     120:	0100                	c.addi4spn	s0,sp,128
     122:	08090103          	lb	sp,128(s2)
     126:	0100                	c.addi4spn	s0,sp,128
     128:	0e05                	c.addi	t3,1 # 0x1a001 <__global_pointer$+0x17b69>
     12a:	0c090103          	lb	sp,192(s2)
     12e:	0100                	c.addi4spn	s0,sp,128
     130:	1405                	c.addi	s0,-31 # 0x31003735 <loader+0x21103735>
     132:	08090003          	lb	zero,128(s2)
     136:	0100                	c.addi4spn	s0,sp,128
     138:	2605                	c.jal	0x458 <__nds__wsbh+0x48>
     13a:	08090003          	lb	zero,128(s2)
     13e:	0100                	c.addi4spn	s0,sp,128
     140:	2005                	c.jal	0x160 <amoswapw_func+0xc>
     142:	08090003          	lb	zero,128(s2)
     146:	0100                	c.addi4spn	s0,sp,128
     148:	3305                	c.jal	0xfffffe68 <boot_loader+0x7ffffe68>
     14a:	04090003          	lb	zero,64(s2)
     14e:	0100                	c.addi4spn	s0,sp,128
     150:	2d05                	c.jal	0x780 <__nds__wsbh+0x18>
     152:	08090003          	lb	zero,128(s2)
     156:	0100                	c.addi4spn	s0,sp,128
     158:	0105                	c.addi	sp,1
     15a:	04090103          	lb	sp,64(s2)
     15e:	0100                	c.addi4spn	s0,sp,128
     160:	0104                	c.addi4spn	s1,sp,128
     162:	0c090d03          	lb	s10,192(s2)
     166:	0100                	c.addi4spn	s0,sp,128
     168:	0205                	c.addi	tp,1 # 0xffff8001 <boot_loader+0x7fff8001>
     16a:	08090103          	lb	sp,128(s2)
     16e:	0100                	c.addi4spn	s0,sp,128
     170:	0c090103          	lb	sp,192(s2)
     174:	0100                	c.addi4spn	s0,sp,128
     176:	08090203          	lb	tp,128(s2)
     17a:	0100                	c.addi4spn	s0,sp,128
     17c:	04090103          	lb	sp,64(s2)
     180:	0100                	c.addi4spn	s0,sp,128
     182:	04090103          	lb	sp,64(s2)
     186:	0100                	c.addi4spn	s0,sp,128
     188:	04090103          	lb	sp,64(s2)
     18c:	0100                	c.addi4spn	s0,sp,128
     18e:	04090103          	lb	sp,64(s2)
     192:	0100                	c.addi4spn	s0,sp,128
     194:	04090103          	lb	sp,64(s2)
     198:	0100                	c.addi4spn	s0,sp,128
     19a:	04090103          	lb	sp,64(s2)
     19e:	0100                	c.addi4spn	s0,sp,128
     1a0:	04090103          	lb	sp,64(s2)
     1a4:	0100                	c.addi4spn	s0,sp,128
     1a6:	04090103          	lb	sp,64(s2)
     1aa:	0100                	c.addi4spn	s0,sp,128
     1ac:	04090203          	lb	tp,64(s2)
     1b0:	0100                	c.addi4spn	s0,sp,128
     1b2:	0905                	c.addi	s2,1
     1b4:	08090203          	lb	tp,128(s2)
     1b8:	0100                	c.addi4spn	s0,sp,128
     1ba:	0105                	c.addi	sp,1
     1bc:	04090103          	lb	sp,64(s2)
     1c0:	0100                	c.addi4spn	s0,sp,128
     1c2:	10090403          	lb	s0,256(s2)
     1c6:	0100                	c.addi4spn	s0,sp,128
     1c8:	0705                	c.addi	a4,1
     1ca:	08090303          	lb	t1,128(s2)
     1ce:	0100                	c.addi4spn	s0,sp,128
     1d0:	0205                	c.addi	tp,1 # 0x1 <_start+0x1>
     1d2:	08090203          	lb	tp,128(s2)
     1d6:	0100                	c.addi4spn	s0,sp,128
     1d8:	0905                	c.addi	s2,1
     1da:	08090203          	lb	tp,128(s2)
     1de:	0100                	c.addi4spn	s0,sp,128
     1e0:	0205                	c.addi	tp,1 # 0x1 <_start+0x1>
     1e2:	10090203          	lb	tp,256(s2)
     1e6:	0100                	c.addi4spn	s0,sp,128
     1e8:	0105                	c.addi	sp,1
     1ea:	08090203          	lb	tp,128(s2)
     1ee:	0100                	c.addi4spn	s0,sp,128
     1f0:	10090403          	lb	s0,256(s2)
     1f4:	0100                	c.addi4spn	s0,sp,128
     1f6:	0705                	c.addi	a4,1
     1f8:	08090303          	lb	t1,128(s2)
     1fc:	0100                	c.addi4spn	s0,sp,128
     1fe:	0905                	c.addi	s2,1
     200:	08090303          	lb	t1,128(s2)
     204:	0100                	c.addi4spn	s0,sp,128
     206:	0205                	c.addi	tp,1 # 0x1 <_start+0x1>
     208:	10090203          	lb	tp,256(s2)
     20c:	0100                	c.addi4spn	s0,sp,128
     20e:	0105                	c.addi	sp,1
     210:	0c090103          	lb	sp,192(s2)
     214:	0100                	c.addi4spn	s0,sp,128
     216:	10090403          	lb	s0,256(s2)
     21a:	0100                	c.addi4spn	s0,sp,128
     21c:	0705                	c.addi	a4,1
     21e:	08090303          	lb	t1,128(s2)
     222:	0100                	c.addi4spn	s0,sp,128
     224:	0905                	c.addi	s2,1
     226:	0c090303          	lb	t1,192(s2)
     22a:	0100                	c.addi4spn	s0,sp,128
     22c:	0205                	c.addi	tp,1 # 0x1 <_start+0x1>
     22e:	10090203          	lb	tp,256(s2)
     232:	0100                	c.addi4spn	s0,sp,128
     234:	0105                	c.addi	sp,1
     236:	0c090103          	lb	sp,192(s2)
     23a:	0100                	c.addi4spn	s0,sp,128
     23c:	10090403          	lb	s0,256(s2)
     240:	0100                	c.addi4spn	s0,sp,128
     242:	0705                	c.addi	a4,1
     244:	08090303          	lb	t1,128(s2)
     248:	0100                	c.addi4spn	s0,sp,128
     24a:	0905                	c.addi	s2,1
     24c:	0c090303          	lb	t1,192(s2)
     250:	0100                	c.addi4spn	s0,sp,128
     252:	0205                	c.addi	tp,1 # 0x1 <_start+0x1>
     254:	10090203          	lb	tp,256(s2)
     258:	0100                	c.addi4spn	s0,sp,128
     25a:	0105                	c.addi	sp,1
     25c:	0c090103          	lb	sp,192(s2)
     260:	0100                	c.addi4spn	s0,sp,128
     262:	10090403          	lb	s0,256(s2)
     266:	0100                	c.addi4spn	s0,sp,128
     268:	0605                	c.addi	a2,1
     26a:	08090303          	lb	t1,128(s2)
     26e:	0100                	c.addi4spn	s0,sp,128
     270:	0905                	c.addi	s2,1
     272:	0c090303          	lb	t1,192(s2)
     276:	0100                	c.addi4spn	s0,sp,128
     278:	0205                	c.addi	tp,1 # 0x1 <_start+0x1>
     27a:	10090203          	lb	tp,256(s2)
     27e:	0100                	c.addi4spn	s0,sp,128
     280:	0105                	c.addi	sp,1
     282:	0c090103          	lb	sp,192(s2)
     286:	0100                	c.addi4spn	s0,sp,128
     288:	10090403          	lb	s0,256(s2)
     28c:	0100                	c.addi4spn	s0,sp,128
     28e:	0705                	c.addi	a4,1
     290:	08090303          	lb	t1,128(s2)
     294:	0100                	c.addi4spn	s0,sp,128
     296:	0905                	c.addi	s2,1
     298:	08090303          	lb	t1,128(s2)
     29c:	0100                	c.addi4spn	s0,sp,128
     29e:	0205                	c.addi	tp,1 # 0x1 <_start+0x1>
     2a0:	10090203          	lb	tp,256(s2)
     2a4:	0100                	c.addi4spn	s0,sp,128
     2a6:	0105                	c.addi	sp,1
     2a8:	0c090103          	lb	sp,192(s2)
     2ac:	0100                	c.addi4spn	s0,sp,128
     2ae:	10090403          	lb	s0,256(s2)
     2b2:	0100                	c.addi4spn	s0,sp,128
     2b4:	0705                	c.addi	a4,1
     2b6:	08090303          	lb	t1,128(s2)
     2ba:	0100                	c.addi4spn	s0,sp,128
     2bc:	0905                	c.addi	s2,1
     2be:	08090303          	lb	t1,128(s2)
     2c2:	0100                	c.addi4spn	s0,sp,128
     2c4:	0205                	c.addi	tp,1 # 0x1 <_start+0x1>
     2c6:	10090203          	lb	tp,256(s2)
     2ca:	0100                	c.addi4spn	s0,sp,128
     2cc:	0105                	c.addi	sp,1
     2ce:	0c090103          	lb	sp,192(s2)
     2d2:	0100                	c.addi4spn	s0,sp,128
     2d4:	10090403          	lb	s0,256(s2)
     2d8:	0100                	c.addi4spn	s0,sp,128
     2da:	0705                	c.addi	a4,1
     2dc:	08090303          	lb	t1,128(s2)
     2e0:	0100                	c.addi4spn	s0,sp,128
     2e2:	0905                	c.addi	s2,1
     2e4:	0c090303          	lb	t1,192(s2)
     2e8:	0100                	c.addi4spn	s0,sp,128
     2ea:	0205                	c.addi	tp,1 # 0x1 <_start+0x1>
     2ec:	10090203          	lb	tp,256(s2)
     2f0:	0100                	c.addi4spn	s0,sp,128
     2f2:	0105                	c.addi	sp,1
     2f4:	0c090103          	lb	sp,192(s2)
     2f8:	0100                	c.addi4spn	s0,sp,128
     2fa:	10090403          	lb	s0,256(s2)
     2fe:	0100                	c.addi4spn	s0,sp,128
     300:	0705                	c.addi	a4,1
     302:	08090303          	lb	t1,128(s2)
     306:	0100                	c.addi4spn	s0,sp,128
     308:	0905                	c.addi	s2,1
     30a:	0c090303          	lb	t1,192(s2)
     30e:	0100                	c.addi4spn	s0,sp,128
     310:	0205                	c.addi	tp,1 # 0x1 <_start+0x1>
     312:	10090203          	lb	tp,256(s2)
     316:	0100                	c.addi4spn	s0,sp,128
     318:	0105                	c.addi	sp,1
     31a:	0c090103          	lb	sp,192(s2)
     31e:	0100                	c.addi4spn	s0,sp,128
     320:	1009                	c.nop	-30
     322:	0000                	c.unimp
     324:	0101                	c.addi	sp,0
     326:	0000006f          	j	0x326 <amominuw_func+0x1e>
     32a:	0004                	.2byte	0x4
     32c:	0029                	c.nop	10
     32e:	0000                	c.unimp
     330:	0101                	c.addi	sp,0
     332:	fb01                	c.bnez	a4,0x242 <amoandw_func+0x32>
     334:	0d0e                	c.slli	s10,0x3
     336:	0100                	c.addi4spn	s0,sp,128
     338:	0101                	c.addi	sp,0
     33a:	0001                	c.nop
     33c:	0000                	c.unimp
     33e:	0001                	c.nop
     340:	0100                	c.addi4spn	s0,sp,128
     342:	7362                	.2byte	0x7362
     344:	2f70                	.2byte	0x2f70
     346:	6561                	c.lui	a0,0x18
     348:	00303533          	snez	a0,gp
     34c:	7200                	.2byte	0x7200
     34e:	7365                	c.lui	t1,0xffff9
     350:	7465                	c.lui	s0,0xffff9
     352:	632e                	.2byte	0x632e
     354:	0100                	c.addi4spn	s0,sp,128
     356:	0000                	c.unimp
     358:	0500                	c.addi4spn	s0,sp,640
     35a:	0001                	c.nop
     35c:	0205                	c.addi	tp,1 # 0x1 <_start+0x1>
     35e:	0388                	c.addi4spn	a0,sp,448
     360:	0000                	c.unimp
     362:	05011b03          	lh	s6,80(sp)
     366:	0302                	c.slli64	t1
     368:	00080907          	.4byte	0x80907
     36c:	0301                	c.addi	t1,0 # 0xffff9000 <boot_loader+0x7fff9000>
     36e:	00040903          	lb	s2,0(s0) # 0xffff9000 <boot_loader+0x7fff9000>
     372:	0301                	c.addi	t1,0
     374:	00040903          	lb	s2,0(s0)
     378:	0301                	c.addi	t1,0
     37a:	090a                	c.slli	s2,0x2
     37c:	0004                	.2byte	0x4
     37e:	0501                	c.addi	a0,0 # 0x18000 <__global_pointer$+0x15b68>
     380:	0301                	c.addi	t1,0
     382:	0902                	c.slli64	s2
     384:	0004                	.2byte	0x4
     386:	0301                	c.addi	t1,0
     388:	0908                	c.addi4spn	a0,sp,144
     38a:	0010                	.2byte	0x10
     38c:	0301                	c.addi	t1,0
     38e:	0901                	c.addi	s2,0
     390:	0010                	.2byte	0x10
     392:	0901                	c.addi	s2,0
     394:	000c                	.2byte	0xc
     396:	0100                	c.addi4spn	s0,sp,128
     398:	6201                	.2byte	0x6201
     39a:	04000003          	lb	zero,64(zero) # 0x40 <__nds__rotr>
     39e:	d000                	c.sw	s0,32(s0)
     3a0:	0000                	c.unimp
     3a2:	0100                	c.addi4spn	s0,sp,128
     3a4:	0101                	c.addi	sp,0
     3a6:	000d0efb          	.4byte	0xd0efb
     3aa:	0101                	c.addi	sp,0
     3ac:	0101                	c.addi	sp,0
     3ae:	0000                	c.unimp
     3b0:	0100                	c.addi4spn	s0,sp,128
     3b2:	0000                	c.unimp
     3b4:	6201                	.2byte	0x6201
     3b6:	612f7073          	csrci	0x612,30
     3ba:	3365                	c.jal	0x162 <amoswapw_func+0xe>
     3bc:	3035                	c.jal	0xfffffbe8 <boot_loader+0x7ffffbe8>
     3be:	2f00                	.2byte	0x2f00
     3c0:	2f74706f          	j	0x47eb6 <__global_pointer$+0x45a1e>
     3c4:	646e                	.2byte	0x646e
     3c6:	6c323373          	csrrc	t1,0x6c3,tp
     3ca:	2d65                	c.jal	0xa82 <__nds__wsbh+0x26>
     3cc:	6c65                	c.lui	s8,0x19
     3ce:	2d66                	.2byte	0x2d66
     3d0:	636d                	c.lui	t1,0x1b
     3d2:	6c75                	c.lui	s8,0x1d
     3d4:	6269                	c.lui	tp,0x1a
     3d6:	762d                	c.lui	a2,0xfffeb
     3d8:	2f35                	c.jal	0xb14 <uart_init+0x44>
     3da:	696c                	.2byte	0x696c
     3dc:	2f62                	.2byte	0x2f62
     3de:	2f636367          	.4byte	0x2f636367
     3e2:	6972                	.2byte	0x6972
     3e4:	33766373          	csrrsi	t1,mhpmevent23,12
     3e8:	2d32                	.2byte	0x2d32
     3ea:	6c65                	c.lui	s8,0x19
     3ec:	2f66                	.2byte	0x2f66
     3ee:	3231                	c.jal	0xfffffcfa <boot_loader+0x7ffffcfa>
     3f0:	322e                	.2byte	0x322e
     3f2:	302e                	.2byte	0x302e
     3f4:	636e692f          	.4byte	0x636e692f
     3f8:	756c                	.2byte	0x756c
     3fa:	6564                	.2byte	0x6564
     3fc:	2f00                	.2byte	0x2f00
     3fe:	2f74706f          	j	0x47ef4 <__global_pointer$+0x45a5c>
     402:	646e                	.2byte	0x646e
     404:	6c323373          	csrrc	t1,0x6c3,tp
     408:	2d65                	c.jal	0xac0 <__nds__wsbh+0x64>
     40a:	6c65                	c.lui	s8,0x19
     40c:	2d66                	.2byte	0x2d66
     40e:	636d                	c.lui	t1,0x1b
     410:	6c75                	c.lui	s8,0x1d
     412:	6269                	c.lui	tp,0x1a
     414:	762d                	c.lui	a2,0xfffeb
     416:	2f35                	c.jal	0xb52 <uart_init+0x82>
     418:	6972                	.2byte	0x6972
     41a:	33766373          	csrrsi	t1,mhpmevent23,12
     41e:	2d32                	.2byte	0x2d32
     420:	6c65                	c.lui	s8,0x19
     422:	2f66                	.2byte	0x2f66
     424:	2d737973          	csrrci	s2,0x2d7,6
     428:	6e69                	c.lui	t3,0x1a
     42a:	64756c63          	bltu	a0,t2,0xa82 <__nds__wsbh+0x26>
     42e:	0065                	c.nop	25
     430:	7400                	.2byte	0x7400
     432:	6172                	.2byte	0x6172
     434:	2e70                	.2byte	0x2e70
     436:	00010063          	beqz	sp,0x436 <__nds__wsbh+0x26>
     43a:	6e00                	.2byte	0x6e00
     43c:	7364                	.2byte	0x7364
     43e:	695f 746e 6972      	.byte	0x5f, 0x69, 0x6e, 0x74, 0x72, 0x69
     444:	736e                	.2byte	0x736e
     446:	6369                	c.lui	t1,0x1a
     448:	682e                	.2byte	0x682e
     44a:	0200                	c.addi4spn	s0,sp,256
     44c:	0000                	c.unimp
     44e:	6c70                	.2byte	0x6c70
     450:	6369                	c.lui	t1,0x1a
     452:	682e                	.2byte	0x682e
     454:	0100                	c.addi4spn	s0,sp,128
     456:	0000                	c.unimp
     458:	6e69                	c.lui	t3,0x1a
     45a:	6574                	.2byte	0x6574
     45c:	7272                	.2byte	0x7272
     45e:	7075                	c.lui	zero,0xffffd
     460:	2e74                	.2byte	0x2e74
     462:	0068                	c.addi4spn	a0,sp,12
     464:	0001                	c.nop
     466:	7300                	.2byte	0x7300
     468:	6474                	.2byte	0x6474
     46a:	6f69                	c.lui	t5,0x1a
     46c:	682e                	.2byte	0x682e
     46e:	0300                	c.addi4spn	s0,sp,384
     470:	0000                	c.unimp
     472:	0400                	c.addi4spn	s0,sp,512
     474:	0502                	c.slli64	a0
     476:	0001                	c.nop
     478:	0205                	c.addi	tp,1 # 0x1a001 <__global_pointer$+0x17b69>
     47a:	03cc                	c.addi4spn	a1,sp,452
     47c:	0000                	c.unimp
     47e:	0519                	c.addi	a0,6
     480:	0310                	c.addi4spn	a2,sp,384
     482:	0901                	c.addi	s2,0
     484:	000c                	.2byte	0xc
     486:	0501                	c.addi	a0,0
     488:	0318                	c.addi4spn	a4,sp,384
     48a:	0901                	c.addi	s2,0
     48c:	000c                	.2byte	0xc
     48e:	0501                	c.addi	a0,0
     490:	0301                	c.addi	t1,0 # 0x1a000 <__global_pointer$+0x17b68>
     492:	0901                	c.addi	s2,0
     494:	0020                	c.addi4spn	s0,sp,8
     496:	0301                	c.addi	t1,0
     498:	000c0903          	lb	s2,0(s8) # 0x19000 <__global_pointer$+0x16b68>
     49c:	0501                	c.addi	a0,0
     49e:	0310                	c.addi4spn	a2,sp,384
     4a0:	0901                	c.addi	s2,0
     4a2:	0008                	.2byte	0x8
     4a4:	0501                	c.addi	a0,0
     4a6:	0318                	c.addi4spn	a4,sp,384
     4a8:	0901                	c.addi	s2,0
     4aa:	000c                	.2byte	0xc
     4ac:	0501                	c.addi	a0,0
     4ae:	0310                	c.addi4spn	a2,sp,384
     4b0:	0900                	c.addi4spn	s0,sp,144
     4b2:	0008                	.2byte	0x8
     4b4:	0501                	c.addi	a0,0
     4b6:	0318                	c.addi4spn	a4,sp,384
     4b8:	0901                	c.addi	s2,0
     4ba:	0008                	.2byte	0x8
     4bc:	0501                	c.addi	a0,0
     4be:	0310                	c.addi4spn	a2,sp,384
     4c0:	0900                	c.addi4spn	s0,sp,144
     4c2:	0008                	.2byte	0x8
     4c4:	0301                	c.addi	t1,0
     4c6:	0901                	c.addi	s2,0
     4c8:	0008                	.2byte	0x8
     4ca:	0501                	c.addi	a0,0
     4cc:	030e                	c.slli	t1,0x3
     4ce:	0901                	c.addi	s2,0
     4d0:	000c                	.2byte	0xc
     4d2:	0501                	c.addi	a0,0
     4d4:	0314                	c.addi4spn	a3,sp,384
     4d6:	0900                	c.addi4spn	s0,sp,144
     4d8:	0008                	.2byte	0x8
     4da:	0501                	c.addi	a0,0
     4dc:	0326                	c.slli	t1,0x9
     4de:	0900                	c.addi4spn	s0,sp,144
     4e0:	0008                	.2byte	0x8
     4e2:	0501                	c.addi	a0,0
     4e4:	0320                	c.addi4spn	s0,sp,392
     4e6:	0900                	c.addi4spn	s0,sp,144
     4e8:	0008                	.2byte	0x8
     4ea:	0501                	c.addi	a0,0
     4ec:	09000333          	.4byte	0x9000333
     4f0:	0004                	.2byte	0x4
     4f2:	0501                	c.addi	a0,0
     4f4:	032d                	c.addi	t1,11
     4f6:	0900                	c.addi4spn	s0,sp,144
     4f8:	0008                	.2byte	0x8
     4fa:	0501                	c.addi	a0,0
     4fc:	0301                	c.addi	t1,0
     4fe:	0901                	c.addi	s2,0
     500:	0004                	.2byte	0x4
     502:	0401                	c.addi	s0,0
     504:	0301                	c.addi	t1,0
     506:	0902                	c.slli64	s2
     508:	000c                	.2byte	0xc
     50a:	0501                	c.addi	a0,0
     50c:	0302                	c.slli64	t1
     50e:	0901                	c.addi	s2,0
     510:	0000                	c.unimp
     512:	0501                	c.addi	a0,0
     514:	0301                	c.addi	t1,0
     516:	0901                	c.addi	s2,0
     518:	0008                	.2byte	0x8
     51a:	0301                	c.addi	t1,0
     51c:	0904                	c.addi4spn	s1,sp,144
     51e:	0008                	.2byte	0x8
     520:	0501                	c.addi	a0,0
     522:	0302                	c.slli64	t1
     524:	0901                	c.addi	s2,0
     526:	0000                	c.unimp
     528:	0501                	c.addi	a0,0
     52a:	0301                	c.addi	t1,0
     52c:	0901                	c.addi	s2,0
     52e:	0004                	.2byte	0x4
     530:	0301                	c.addi	t1,0
     532:	0904                	c.addi4spn	s1,sp,144
     534:	0008                	.2byte	0x8
     536:	0501                	c.addi	a0,0
     538:	0302                	c.slli64	t1
     53a:	0901                	c.addi	s2,0
     53c:	001c                	.2byte	0x1c
     53e:	0501                	c.addi	a0,0
     540:	0301                	c.addi	t1,0
     542:	0901                	c.addi	s2,0
     544:	001c                	.2byte	0x1c
     546:	0301                	c.addi	t1,0
     548:	0904                	c.addi4spn	s1,sp,144
     54a:	0010                	.2byte	0x10
     54c:	0501                	c.addi	a0,0
     54e:	0302                	c.slli64	t1
     550:	0902                	c.slli64	s2
     552:	0010                	.2byte	0x10
     554:	0501                	c.addi	a0,0
     556:	0309                	c.addi	t1,2
     558:	0902                	c.slli64	s2
     55a:	0018                	.2byte	0x18
     55c:	0501                	c.addi	a0,0
     55e:	0301                	c.addi	t1,0
     560:	0901                	c.addi	s2,0
     562:	0004                	.2byte	0x4
     564:	0301                	c.addi	t1,0
     566:	0905                	c.addi	s2,1
     568:	0010                	.2byte	0x10
     56a:	0501                	c.addi	a0,0
     56c:	0310                	c.addi4spn	a2,sp,384
     56e:	0901                	c.addi	s2,0
     570:	0044                	c.addi4spn	s1,sp,4
     572:	0501                	c.addi	a0,0
     574:	09000307          	.4byte	0x9000307
     578:	0004                	.2byte	0x4
     57a:	0501                	c.addi	a0,0
     57c:	030e                	c.slli	t1,0x3
     57e:	0901                	c.addi	s2,0
     580:	0004                	.2byte	0x4
     582:	0501                	c.addi	a0,0
     584:	09000307          	.4byte	0x9000307
     588:	0004                	.2byte	0x4
     58a:	0501                	c.addi	a0,0
     58c:	0311                	c.addi	t1,4
     58e:	0901                	c.addi	s2,0
     590:	0004                	.2byte	0x4
     592:	0501                	c.addi	a0,0
     594:	09000307          	.4byte	0x9000307
     598:	0004                	.2byte	0x4
     59a:	0501                	c.addi	a0,0
     59c:	0312                	c.slli	t1,0x4
     59e:	0902                	c.slli64	s2
     5a0:	0004                	.2byte	0x4
     5a2:	0501                	c.addi	a0,0
     5a4:	09000307          	.4byte	0x9000307
     5a8:	0004                	.2byte	0x4
     5aa:	0501                	c.addi	a0,0
     5ac:	0302                	c.slli64	t1
     5ae:	090d                	c.addi	s2,3
     5b0:	0004                	.2byte	0x4
     5b2:	0501                	c.addi	a0,0
     5b4:	0305                	c.addi	t1,1
     5b6:	0904                	c.addi4spn	s1,sp,144
     5b8:	0000                	c.unimp
     5ba:	0501                	c.addi	a0,0
     5bc:	0028                	c.addi4spn	a0,sp,8
     5be:	0402                	c.slli64	s0
     5c0:	0301                	c.addi	t1,0
     5c2:	0900                	c.addi4spn	s0,sp,144
     5c4:	0008                	.2byte	0x8
     5c6:	0501                	c.addi	a0,0
     5c8:	001c                	.2byte	0x1c
     5ca:	0402                	c.slli64	s0
     5cc:	0301                	c.addi	t1,0
     5ce:	0900                	c.addi4spn	s0,sp,144
     5d0:	0010                	.2byte	0x10
     5d2:	0401                	c.addi	s0,0
     5d4:	031a0503          	lb	a0,49(s4)
     5d8:	0926                	c.slli	s2,0x9
     5da:	0008                	.2byte	0x8
     5dc:	0501                	c.addi	a0,0
     5de:	034a                	c.slli	t1,0x12
     5e0:	00080903          	lb	s2,0(a6)
     5e4:	0501                	c.addi	a0,0
     5e6:	097f0353          	.4byte	0x97f0353
     5ea:	0008                	.2byte	0x8
     5ec:	0501                	c.addi	a0,0
     5ee:	031a                	c.slli	t1,0x6
     5f0:	000c097f          	.4byte	0xc097f
     5f4:	0501                	c.addi	a0,0
     5f6:	0904030b          	lbgp	t1,8336 # 0x4528 <__global_pointer$+0x2090>
     5fa:	0004                	.2byte	0x4
     5fc:	0401                	c.addi	s0,0
     5fe:	0501                	c.addi	a0,0
     600:	09580303          	lb	t1,149(a6)
     604:	0008                	.2byte	0x8
     606:	0501                	c.addi	a0,0
     608:	030a                	c.slli	t1,0x2
     60a:	0902                	c.slli64	s2
     60c:	000c                	.2byte	0xc
     60e:	0501                	c.addi	a0,0
     610:	002d                	c.nop	11
     612:	0402                	c.slli64	s0
     614:	0301                	c.addi	t1,0
     616:	0900                	c.addi4spn	s0,sp,144
     618:	0008                	.2byte	0x8
     61a:	0501                	c.addi	a0,0
     61c:	0021                	c.nop	8
     61e:	0402                	c.slli64	s0
     620:	0301                	c.addi	t1,0
     622:	0900                	c.addi4spn	s0,sp,144
     624:	0010                	.2byte	0x10
     626:	0501                	c.addi	a0,0
     628:	09030303          	lb	t1,144(t1)
     62c:	0008                	.2byte	0x8
     62e:	0501                	c.addi	a0,0
     630:	030a                	c.slli	t1,0x2
     632:	0902                	c.slli64	s2
     634:	0008                	.2byte	0x8
     636:	0501                	c.addi	a0,0
     638:	002d                	c.nop	11
     63a:	0402                	c.slli64	s0
     63c:	0301                	c.addi	t1,0
     63e:	0900                	c.addi4spn	s0,sp,144
     640:	0008                	.2byte	0x8
     642:	0501                	c.addi	a0,0
     644:	0021                	c.nop	8
     646:	0402                	c.slli64	s0
     648:	0301                	c.addi	t1,0
     64a:	0900                	c.addi4spn	s0,sp,144
     64c:	0010                	.2byte	0x10
     64e:	0501                	c.addi	a0,0
     650:	09030303          	lb	t1,144(t1)
     654:	0008                	.2byte	0x8
     656:	0501                	c.addi	a0,0
     658:	0326                	c.slli	t1,0x9
     65a:	00040903          	lb	s2,0(s0)
     65e:	0501                	c.addi	a0,0
     660:	0900033f 04010004 	.8byte	0x40100040900033f
     668:	031a0503          	lb	a0,49(s4)
     66c:	00ee                	c.slli	ra,0x1b
     66e:	0809                	c.addi	a6,2
     670:	0100                	c.addi4spn	s0,sp,128
     672:	4a05                	c.li	s4,1
     674:	08090303          	lb	t1,128(s2)
     678:	0100                	c.addi4spn	s0,sp,128
     67a:	5305                	c.li	t1,-31
     67c:	08097f03          	.4byte	0x8097f03
     680:	0100                	c.addi4spn	s0,sp,128
     682:	1a05                	c.addi	s4,-31
     684:	0c097f03          	.4byte	0xc097f03
     688:	0100                	c.addi4spn	s0,sp,128
     68a:	0f05                	c.addi	t5,1 # 0x1a001 <__global_pointer$+0x17b69>
     68c:	04090403          	lb	s0,64(s2)
     690:	0100                	c.addi4spn	s0,sp,128
     692:	0105                	c.addi	sp,1
     694:	0c090103          	lb	sp,192(s2)
     698:	0100                	c.addi4spn	s0,sp,128
     69a:	0104                	c.addi4spn	s1,sp,128
     69c:	0305                	c.addi	t1,1
     69e:	097f8c03          	lb	s8,151(t6) # 0x1097 <printi+0x113>
     6a2:	0004                	.2byte	0x4
     6a4:	0501                	c.addi	a0,0
     6a6:	030a                	c.slli	t1,0x2
     6a8:	0902                	c.slli64	s2
     6aa:	0004                	.2byte	0x4
     6ac:	0501                	c.addi	a0,0
     6ae:	002e                	c.slli	zero,0xb
     6b0:	0402                	c.slli64	s0
     6b2:	0301                	c.addi	t1,0
     6b4:	0900                	c.addi4spn	s0,sp,144
     6b6:	0008                	.2byte	0x8
     6b8:	0501                	c.addi	a0,0
     6ba:	0022                	c.slli	zero,0x8
     6bc:	0402                	c.slli64	s0
     6be:	0301                	c.addi	t1,0
     6c0:	0900                	c.addi4spn	s0,sp,144
     6c2:	0010                	.2byte	0x10
     6c4:	0501                	c.addi	a0,0
     6c6:	09030303          	lb	t1,144(t1)
     6ca:	0008                	.2byte	0x8
     6cc:	0501                	c.addi	a0,0
     6ce:	0308                	c.addi4spn	a0,sp,384
     6d0:	090d                	c.addi	s2,3
     6d2:	0018                	.2byte	0x18
     6d4:	0501                	c.addi	a0,0
     6d6:	030a                	c.slli	t1,0x2
     6d8:	0905                	c.addi	s2,1
     6da:	0010                	.2byte	0x10
     6dc:	0501                	c.addi	a0,0
     6de:	0302                	c.slli64	t1
     6e0:	0904                	c.addi4spn	s1,sp,144
     6e2:	0010                	.2byte	0x10
     6e4:	0301                	c.addi	t1,0
     6e6:	0901                	c.addi	s2,0
     6e8:	0008                	.2byte	0x8
     6ea:	0301                	c.addi	t1,0
     6ec:	0902                	c.slli64	s2
     6ee:	0008                	.2byte	0x8
     6f0:	0501                	c.addi	a0,0
     6f2:	0301                	c.addi	t1,0
     6f4:	0908                	c.addi4spn	a0,sp,144
     6f6:	0008                	.2byte	0x8
     6f8:	0901                	c.addi	s2,0
     6fa:	004c                	c.addi4spn	a1,sp,4
     6fc:	0100                	c.addi4spn	s0,sp,128
     6fe:	7b01                	c.lui	s6,0xfffe0
     700:	0000                	c.unimp
     702:	0400                	c.addi4spn	s0,sp,512
     704:	2900                	.2byte	0x2900
     706:	0000                	c.unimp
     708:	0100                	c.addi4spn	s0,sp,128
     70a:	0101                	c.addi	sp,0
     70c:	000d0efb          	.4byte	0xd0efb
     710:	0101                	c.addi	sp,0
     712:	0101                	c.addi	sp,0
     714:	0000                	c.unimp
     716:	0100                	c.addi4spn	s0,sp,128
     718:	0000                	c.unimp
     71a:	6201                	.2byte	0x6201
     71c:	612f7073          	csrci	0x612,30
     720:	3365                	c.jal	0x4c8 <syscall_handler+0x28>
     722:	3035                	c.jal	0xffffff4e <boot_loader+0x7fffff4e>
     724:	0000                	c.unimp
     726:	72617473          	csrrci	s0,mhpmevent6h,2
     72a:	2e74                	.2byte	0x2e74
     72c:	00010053          	.4byte	0x10053
     730:	0000                	c.unimp
     732:	0500                	c.addi4spn	s0,sp,640
     734:	0002                	c.slli64	zero
     736:	0000                	c.unimp
     738:	0300                	c.addi4spn	s0,sp,384
     73a:	0122                	c.slli	sp,0x8
     73c:	08090403          	lb	s0,128(s2)
     740:	0100                	c.addi4spn	s0,sp,128
     742:	08090103          	lb	sp,128(s2)
     746:	0100                	c.addi4spn	s0,sp,128
     748:	04091203          	lh	tp,64(s2)
     74c:	0100                	c.addi4spn	s0,sp,128
     74e:	04090103          	lb	sp,64(s2)
     752:	0100                	c.addi4spn	s0,sp,128
     754:	04090303          	lb	t1,64(s2)
     758:	0100                	c.addi4spn	s0,sp,128
     75a:	08090303          	lb	t1,128(s2)
     75e:	0100                	c.addi4spn	s0,sp,128
     760:	08090303          	lb	t1,128(s2)
     764:	0100                	c.addi4spn	s0,sp,128
     766:	04090403          	lb	s0,64(s2)
     76a:	0100                	c.addi4spn	s0,sp,128
     76c:	04090403          	lb	s0,64(s2)
     770:	0100                	c.addi4spn	s0,sp,128
     772:	04090403          	lb	s0,64(s2)
     776:	0100                	c.addi4spn	s0,sp,128
     778:	0409                	c.addi	s0,2
     77a:	0000                	c.unimp
     77c:	0101                	c.addi	sp,0
     77e:	0235                	c.addi	tp,13 # 0xd <_start+0xd>
     780:	0000                	c.unimp
     782:	0004                	.2byte	0x4
     784:	0000008f          	.4byte	0x8f
     788:	0101                	c.addi	sp,0
     78a:	fb01                	c.bnez	a4,0x69a <trap_entry+0x176>
     78c:	0d0e                	c.slli	s10,0x3
     78e:	0100                	c.addi4spn	s0,sp,128
     790:	0101                	c.addi	sp,0
     792:	0001                	c.nop
     794:	0000                	c.unimp
     796:	0001                	c.nop
     798:	0100                	c.addi4spn	s0,sp,128
     79a:	7362                	.2byte	0x7362
     79c:	2f70                	.2byte	0x2f70
     79e:	6561                	c.lui	a0,0x18
     7a0:	00303533          	snez	a0,gp
     7a4:	74706f2f          	.4byte	0x74706f2f
     7a8:	73646e2f          	.4byte	0x73646e2f
     7ac:	656c3233          	.4byte	0x656c3233
     7b0:	652d                	c.lui	a0,0xb
     7b2:	666c                	.2byte	0x666c
     7b4:	6d2d                	c.lui	s10,0xb
     7b6:	696c7563          	bgeu	s8,s6,0xe40 <simple_delay_ms+0x3c>
     7ba:	2d62                	.2byte	0x2d62
     7bc:	3576                	.2byte	0x3576
     7be:	62696c2f          	.4byte	0x62696c2f
     7c2:	6363672f          	.4byte	0x6363672f
     7c6:	7369722f          	.4byte	0x7369722f
     7ca:	32337663          	bgeu	t1,gp,0xaf6 <uart_init+0x26>
     7ce:	652d                	c.lui	a0,0xb
     7d0:	666c                	.2byte	0x666c
     7d2:	2e32312f          	.4byte	0x2e32312f
     7d6:	2e32                	.2byte	0x2e32
     7d8:	2f30                	.2byte	0x2f30
     7da:	6e69                	c.lui	t3,0x1a
     7dc:	64756c63          	bltu	a0,t2,0xe34 <simple_delay_ms+0x30>
     7e0:	0065                	c.nop	25
     7e2:	6100                	.2byte	0x6100
     7e4:	3365                	c.jal	0x58c <trap_entry+0x68>
     7e6:	3035                	c.jal	0x12 <_start+0x12>
     7e8:	632e                	.2byte	0x632e
     7ea:	0100                	c.addi4spn	s0,sp,128
     7ec:	0000                	c.unimp
     7ee:	646e                	.2byte	0x646e
     7f0:	6e695f73          	csrrwi	t5,0x6e6,18
     7f4:	7274                	.2byte	0x7274
     7f6:	6e69                	c.lui	t3,0x1a
     7f8:	2e636973          	csrrsi	s2,0x2e6,6
     7fc:	0068                	c.addi4spn	a0,sp,12
     7fe:	0002                	c.slli64	zero
     800:	7000                	.2byte	0x7000
     802:	696c                	.2byte	0x696c
     804:	00682e63          	.4byte	0x682e63
     808:	0001                	c.nop
     80a:	6100                	.2byte	0x6100
     80c:	3365                	c.jal	0x5b4 <trap_entry+0x90>
     80e:	3035                	c.jal	0x3a <trap_handler+0x2>
     810:	682e                	.2byte	0x682e
     812:	0100                	c.addi4spn	s0,sp,128
     814:	0000                	c.unimp
     816:	0400                	c.addi4spn	s0,sp,512
     818:	0502                	c.slli64	a0
     81a:	0001                	c.nop
     81c:	0205                	c.addi	tp,1 # 0x1 <_start+0x1>
     81e:	0724                	c.addi4spn	s1,sp,904
     820:	0000                	c.unimp
     822:	0519                	c.addi	a0,6 # 0xb006 <__global_pointer$+0x8b6e>
     824:	0310                	c.addi4spn	a2,sp,384
     826:	0901                	c.addi	s2,0
     828:	000c                	.2byte	0xc
     82a:	0501                	c.addi	a0,0
     82c:	0318                	c.addi4spn	a4,sp,384
     82e:	0901                	c.addi	s2,0
     830:	000c                	.2byte	0xc
     832:	0501                	c.addi	a0,0
     834:	0301                	c.addi	t1,0
     836:	0901                	c.addi	s2,0
     838:	0020                	c.addi4spn	s0,sp,8
     83a:	0301                	c.addi	t1,0
     83c:	000c0903          	lb	s2,0(s8)
     840:	0501                	c.addi	a0,0
     842:	0310                	c.addi4spn	a2,sp,384
     844:	0901                	c.addi	s2,0
     846:	0008                	.2byte	0x8
     848:	0501                	c.addi	a0,0
     84a:	0318                	c.addi4spn	a4,sp,384
     84c:	0901                	c.addi	s2,0
     84e:	000c                	.2byte	0xc
     850:	0501                	c.addi	a0,0
     852:	0310                	c.addi4spn	a2,sp,384
     854:	0900                	c.addi4spn	s0,sp,144
     856:	0008                	.2byte	0x8
     858:	0501                	c.addi	a0,0
     85a:	0318                	c.addi4spn	a4,sp,384
     85c:	0901                	c.addi	s2,0
     85e:	0008                	.2byte	0x8
     860:	0501                	c.addi	a0,0
     862:	0310                	c.addi4spn	a2,sp,384
     864:	0900                	c.addi4spn	s0,sp,144
     866:	0008                	.2byte	0x8
     868:	0301                	c.addi	t1,0
     86a:	0901                	c.addi	s2,0
     86c:	0008                	.2byte	0x8
     86e:	0501                	c.addi	a0,0
     870:	030e                	c.slli	t1,0x3
     872:	0901                	c.addi	s2,0
     874:	000c                	.2byte	0xc
     876:	0501                	c.addi	a0,0
     878:	0314                	c.addi4spn	a3,sp,384
     87a:	0900                	c.addi4spn	s0,sp,144
     87c:	0008                	.2byte	0x8
     87e:	0501                	c.addi	a0,0
     880:	0326                	c.slli	t1,0x9
     882:	0900                	c.addi4spn	s0,sp,144
     884:	0008                	.2byte	0x8
     886:	0501                	c.addi	a0,0
     888:	0320                	c.addi4spn	s0,sp,392
     88a:	0900                	c.addi4spn	s0,sp,144
     88c:	0008                	.2byte	0x8
     88e:	0501                	c.addi	a0,0
     890:	09000333          	.4byte	0x9000333
     894:	0004                	.2byte	0x4
     896:	0501                	c.addi	a0,0
     898:	032d                	c.addi	t1,11
     89a:	0900                	c.addi4spn	s0,sp,144
     89c:	0008                	.2byte	0x8
     89e:	0501                	c.addi	a0,0
     8a0:	0301                	c.addi	t1,0
     8a2:	0901                	c.addi	s2,0
     8a4:	0004                	.2byte	0x4
     8a6:	0401                	c.addi	s0,0
     8a8:	0301                	c.addi	t1,0
     8aa:	0902                	c.slli64	s2
     8ac:	000c                	.2byte	0xc
     8ae:	0501                	c.addi	a0,0
     8b0:	0302                	c.slli64	t1
     8b2:	090a                	c.slli	s2,0x2
     8b4:	0000                	c.unimp
     8b6:	0301                	c.addi	t1,0
     8b8:	0901                	c.addi	s2,0
     8ba:	0008                	.2byte	0x8
     8bc:	0501                	c.addi	a0,0
     8be:	0306                	c.slli	t1,0x1
     8c0:	000c0903          	lb	s2,0(s8)
     8c4:	0501                	c.addi	a0,0
     8c6:	031f 0900 0004      	.byte	0x1f, 0x03, 0x00, 0x09, 0x04, 0x00
     8cc:	0501                	c.addi	a0,0
     8ce:	0305                	c.addi	t1,1
     8d0:	0900                	c.addi4spn	s0,sp,144
     8d2:	0008                	.2byte	0x8
     8d4:	0501                	c.addi	a0,0
     8d6:	0308                	c.addi4spn	a0,sp,384
     8d8:	00040903          	lb	s2,0(s0)
     8dc:	0501                	c.addi	a0,0
     8de:	000a                	c.slli	zero,0x2
     8e0:	0402                	c.slli64	s0
     8e2:	0301                	c.addi	t1,0
     8e4:	0900                	c.addi4spn	s0,sp,144
     8e6:	0004                	.2byte	0x4
     8e8:	0501                	c.addi	a0,0
     8ea:	04020023          	sb	zero,64(tp) # 0x40 <__nds__rotr>
     8ee:	0301                	c.addi	t1,0
     8f0:	0900                	c.addi4spn	s0,sp,144
     8f2:	0004                	.2byte	0x4
     8f4:	0501                	c.addi	a0,0
     8f6:	0030                	c.addi4spn	a2,sp,8
     8f8:	0402                	c.slli64	s0
     8fa:	0301                	c.addi	t1,0
     8fc:	0900                	c.addi4spn	s0,sp,144
     8fe:	0008                	.2byte	0x8
     900:	0501                	c.addi	a0,0
     902:	0302                	c.slli64	t1
     904:	0904                	c.addi4spn	s1,sp,144
     906:	0004                	.2byte	0x4
     908:	0501                	c.addi	a0,0
     90a:	0301                	c.addi	t1,0
     90c:	0901                	c.addi	s2,0
     90e:	0004                	.2byte	0x4
     910:	0301                	c.addi	t1,0
     912:	0904                	c.addi4spn	s1,sp,144
     914:	0004                	.2byte	0x4
     916:	0501                	c.addi	a0,0
     918:	0912030f          	.4byte	0x912030f
     91c:	0008                	.2byte	0x8
     91e:	0501                	c.addi	a0,0
     920:	09000307          	.4byte	0x9000307
     924:	000c                	.2byte	0xc
     926:	0501                	c.addi	a0,0
     928:	0305                	c.addi	t1,1
     92a:	0901                	c.addi	s2,0
     92c:	0004                	.2byte	0x4
     92e:	0501                	c.addi	a0,0
     930:	0301                	c.addi	t1,0
     932:	0901                	c.addi	s2,0
     934:	0018                	.2byte	0x18
     936:	0301                	c.addi	t1,0
     938:	0904                	c.addi4spn	s1,sp,144
     93a:	0010                	.2byte	0x10
     93c:	0501                	c.addi	a0,0
     93e:	0309                	c.addi	t1,2
     940:	0908                	c.addi4spn	a0,sp,144
     942:	0004                	.2byte	0x4
     944:	0501                	c.addi	a0,0
     946:	0320                	c.addi4spn	s0,sp,392
     948:	0900                	c.addi4spn	s0,sp,144
     94a:	0004                	.2byte	0x4
     94c:	0501                	c.addi	a0,0
     94e:	031e                	c.slli	t1,0x7
     950:	0900                	c.addi4spn	s0,sp,144
     952:	0004                	.2byte	0x4
     954:	0501                	c.addi	a0,0
     956:	0306                	c.slli	t1,0x1
     958:	00040903          	lb	s2,0(s0)
     95c:	0501                	c.addi	a0,0
     95e:	031e                	c.slli	t1,0x7
     960:	0900                	c.addi4spn	s0,sp,144
     962:	0004                	.2byte	0x4
     964:	0501                	c.addi	a0,0
     966:	0305                	c.addi	t1,1
     968:	0900                	c.addi4spn	s0,sp,144
     96a:	0004                	.2byte	0x4
     96c:	0401                	c.addi	s0,0
     96e:	031a0503          	lb	a0,49(s4)
     972:	095f 000c 0501      	.byte	0x5f, 0x09, 0x0c, 0x00, 0x01, 0x05
     978:	0310                	c.addi4spn	a2,sp,384
     97a:	0901                	c.addi	s2,0
     97c:	0008                	.2byte	0x8
     97e:	0501                	c.addi	a0,0
     980:	0301                	c.addi	t1,0
     982:	0901                	c.addi	s2,0
     984:	000c                	.2byte	0xc
     986:	0501                	c.addi	a0,0
     988:	031a                	c.slli	t1,0x6
     98a:	097e                	c.slli	s2,0x1f
     98c:	000c                	.2byte	0xc
     98e:	0501                	c.addi	a0,0
     990:	0310                	c.addi4spn	a2,sp,384
     992:	0901                	c.addi	s2,0
     994:	0008                	.2byte	0x8
     996:	0501                	c.addi	a0,0
     998:	0301                	c.addi	t1,0
     99a:	0901                	c.addi	s2,0
     99c:	000c                	.2byte	0xc
     99e:	0401                	c.addi	s0,0
     9a0:	0501                	c.addi	a0,0
     9a2:	0302                	c.slli64	t1
     9a4:	0004092b          	shgp	zero,8210 # 0x44aa <__global_pointer$+0x2012>
     9a8:	0501                	c.addi	a0,0
     9aa:	0301                	c.addi	t1,0
     9ac:	0901                	c.addi	s2,0
     9ae:	0008                	.2byte	0x8
     9b0:	0901                	c.addi	s2,0
     9b2:	000c                	.2byte	0xc
     9b4:	0100                	c.addi4spn	s0,sp,128
     9b6:	dd01                	c.beqz	a0,0x8ce <__nds__rotr+0x2>
     9b8:	0001                	c.nop
     9ba:	0400                	c.addi4spn	s0,sp,512
     9bc:	c600                	c.sw	s0,8(a2)
     9be:	0000                	c.unimp
     9c0:	0100                	c.addi4spn	s0,sp,128
     9c2:	0101                	c.addi	sp,0
     9c4:	000d0efb          	.4byte	0xd0efb
     9c8:	0101                	c.addi	sp,0
     9ca:	0101                	c.addi	sp,0
     9cc:	0000                	c.unimp
     9ce:	0100                	c.addi4spn	s0,sp,128
     9d0:	0000                	c.unimp
     9d2:	6201                	.2byte	0x6201
     9d4:	612f7073          	csrci	0x612,30
     9d8:	3365                	c.jal	0x780 <__nds__wsbh+0x18>
     9da:	3035                	c.jal	0x206 <amoxorw_func+0x36>
     9dc:	2f00                	.2byte	0x2f00
     9de:	2f74706f          	j	0x484d4 <__global_pointer$+0x4603c>
     9e2:	646e                	.2byte	0x646e
     9e4:	6c323373          	csrrc	t1,0x6c3,tp
     9e8:	2d65                	c.jal	0x10a0 <printi+0x11c>
     9ea:	6c65                	c.lui	s8,0x19
     9ec:	2d66                	.2byte	0x2d66
     9ee:	636d                	c.lui	t1,0x1b
     9f0:	6c75                	c.lui	s8,0x1d
     9f2:	6269                	c.lui	tp,0x1a
     9f4:	762d                	c.lui	a2,0xfffeb
     9f6:	2f35                	c.jal	0x1132 <print+0x82>
     9f8:	696c                	.2byte	0x696c
     9fa:	2f62                	.2byte	0x2f62
     9fc:	2f636367          	.4byte	0x2f636367
     a00:	6972                	.2byte	0x6972
     a02:	33766373          	csrrsi	t1,mhpmevent23,12
     a06:	2d32                	.2byte	0x2d32
     a08:	6c65                	c.lui	s8,0x19
     a0a:	2f66                	.2byte	0x2f66
     a0c:	3231                	c.jal	0x318 <amominuw_func+0x10>
     a0e:	322e                	.2byte	0x322e
     a10:	302e                	.2byte	0x302e
     a12:	636e692f          	.4byte	0x636e692f
     a16:	756c                	.2byte	0x756c
     a18:	6564                	.2byte	0x6564
     a1a:	2f00                	.2byte	0x2f00
     a1c:	2f74706f          	j	0x48512 <__global_pointer$+0x4607a>
     a20:	646e                	.2byte	0x646e
     a22:	6c323373          	csrrc	t1,0x6c3,tp
     a26:	2d65                	c.jal	0x10de <print+0x2e>
     a28:	6c65                	c.lui	s8,0x19
     a2a:	2d66                	.2byte	0x2d66
     a2c:	636d                	c.lui	t1,0x1b
     a2e:	6c75                	c.lui	s8,0x1d
     a30:	6269                	c.lui	tp,0x1a
     a32:	762d                	c.lui	a2,0xfffeb
     a34:	2f35                	c.jal	0x1170 <print+0xc0>
     a36:	6972                	.2byte	0x6972
     a38:	33766373          	csrrsi	t1,mhpmevent23,12
     a3c:	2d32                	.2byte	0x2d32
     a3e:	6c65                	c.lui	s8,0x19
     a40:	2f66                	.2byte	0x2f66
     a42:	2d737973          	csrrci	s2,0x2d7,6
     a46:	6e69                	c.lui	t3,0x1a
     a48:	64756c63          	bltu	a0,t2,0x10a0 <printi+0x11c>
     a4c:	0065                	c.nop	25
     a4e:	6900                	.2byte	0x6900
     a50:	746e                	.2byte	0x746e
     a52:	7265                	c.lui	tp,0xffff9
     a54:	7572                	.2byte	0x7572
     a56:	7470                	.2byte	0x7470
     a58:	632e                	.2byte	0x632e
     a5a:	0100                	c.addi4spn	s0,sp,128
     a5c:	0000                	c.unimp
     a5e:	646e                	.2byte	0x646e
     a60:	6e695f73          	csrrwi	t5,0x6e6,18
     a64:	7274                	.2byte	0x7274
     a66:	6e69                	c.lui	t3,0x1a
     a68:	2e636973          	csrrsi	s2,0x2e6,6
     a6c:	0068                	c.addi4spn	a0,sp,12
     a6e:	0002                	c.slli64	zero
     a70:	7000                	.2byte	0x7000
     a72:	696c                	.2byte	0x696c
     a74:	00682e63          	.4byte	0x682e63
     a78:	0001                	c.nop
     a7a:	7300                	.2byte	0x7300
     a7c:	6474                	.2byte	0x6474
     a7e:	6f69                	c.lui	t5,0x1a
     a80:	682e                	.2byte	0x682e
     a82:	0300                	c.addi4spn	s0,sp,384
     a84:	0000                	c.unimp
     a86:	0400                	c.addi4spn	s0,sp,512
     a88:	0502                	c.slli64	a0
     a8a:	0001                	c.nop
     a8c:	0205                	c.addi	tp,1 # 0xffff9001 <boot_loader+0x7fff9001>
     a8e:	08cc                	c.addi4spn	a1,sp,84
     a90:	0000                	c.unimp
     a92:	0519                	c.addi	a0,6
     a94:	0310                	c.addi4spn	a2,sp,384
     a96:	0901                	c.addi	s2,0
     a98:	000c                	.2byte	0xc
     a9a:	0501                	c.addi	a0,0
     a9c:	0318                	c.addi4spn	a4,sp,384
     a9e:	0901                	c.addi	s2,0
     aa0:	000c                	.2byte	0xc
     aa2:	0501                	c.addi	a0,0
     aa4:	0301                	c.addi	t1,0 # 0x1b000 <__global_pointer$+0x18b68>
     aa6:	0901                	c.addi	s2,0
     aa8:	0020                	c.addi4spn	s0,sp,8
     aaa:	0301                	c.addi	t1,0
     aac:	000c0903          	lb	s2,0(s8) # 0x19000 <__global_pointer$+0x16b68>
     ab0:	0501                	c.addi	a0,0
     ab2:	0310                	c.addi4spn	a2,sp,384
     ab4:	0901                	c.addi	s2,0
     ab6:	0008                	.2byte	0x8
     ab8:	0501                	c.addi	a0,0
     aba:	0318                	c.addi4spn	a4,sp,384
     abc:	0901                	c.addi	s2,0
     abe:	000c                	.2byte	0xc
     ac0:	0501                	c.addi	a0,0
     ac2:	0310                	c.addi4spn	a2,sp,384
     ac4:	0900                	c.addi4spn	s0,sp,144
     ac6:	0008                	.2byte	0x8
     ac8:	0501                	c.addi	a0,0
     aca:	0318                	c.addi4spn	a4,sp,384
     acc:	0901                	c.addi	s2,0
     ace:	0008                	.2byte	0x8
     ad0:	0501                	c.addi	a0,0
     ad2:	0310                	c.addi4spn	a2,sp,384
     ad4:	0900                	c.addi4spn	s0,sp,144
     ad6:	0008                	.2byte	0x8
     ad8:	0301                	c.addi	t1,0
     ada:	0901                	c.addi	s2,0
     adc:	0008                	.2byte	0x8
     ade:	0501                	c.addi	a0,0
     ae0:	030e                	c.slli	t1,0x3
     ae2:	0901                	c.addi	s2,0
     ae4:	000c                	.2byte	0xc
     ae6:	0501                	c.addi	a0,0
     ae8:	0314                	c.addi4spn	a3,sp,384
     aea:	0900                	c.addi4spn	s0,sp,144
     aec:	0008                	.2byte	0x8
     aee:	0501                	c.addi	a0,0
     af0:	0326                	c.slli	t1,0x9
     af2:	0900                	c.addi4spn	s0,sp,144
     af4:	0008                	.2byte	0x8
     af6:	0501                	c.addi	a0,0
     af8:	0320                	c.addi4spn	s0,sp,392
     afa:	0900                	c.addi4spn	s0,sp,144
     afc:	0008                	.2byte	0x8
     afe:	0501                	c.addi	a0,0
     b00:	09000333          	.4byte	0x9000333
     b04:	0004                	.2byte	0x4
     b06:	0501                	c.addi	a0,0
     b08:	032d                	c.addi	t1,11
     b0a:	0900                	c.addi4spn	s0,sp,144
     b0c:	0008                	.2byte	0x8
     b0e:	0501                	c.addi	a0,0
     b10:	0301                	c.addi	t1,0
     b12:	0901                	c.addi	s2,0
     b14:	0004                	.2byte	0x4
     b16:	0401                	c.addi	s0,0
     b18:	0301                	c.addi	t1,0
     b1a:	0904                	c.addi4spn	s1,sp,144
     b1c:	000c                	.2byte	0xc
     b1e:	0501                	c.addi	a0,0
     b20:	0302                	c.slli64	t1
     b22:	0901                	c.addi	s2,0
     b24:	0008                	.2byte	0x8
     b26:	0501                	c.addi	a0,0
     b28:	0301                	c.addi	t1,0
     b2a:	0901                	c.addi	s2,0
     b2c:	0008                	.2byte	0x8
     b2e:	0301                	c.addi	t1,0
     b30:	00c9                	c.addi	ra,18
     b32:	1009                	c.nop	-30
     b34:	0100                	c.addi4spn	s0,sp,128
     b36:	0205                	c.addi	tp,1 # 0x1 <_start+0x1>
     b38:	0c090203          	lb	tp,192(s2)
     b3c:	0100                	c.addi4spn	s0,sp,128
     b3e:	0d05                	c.addi	s10,1 # 0xb001 <__global_pointer$+0x8b69>
     b40:	04090303          	lb	t1,64(s2)
     b44:	0100                	c.addi4spn	s0,sp,128
     b46:	0205                	c.addi	tp,1 # 0x1 <_start+0x1>
     b48:	14090003          	lb	zero,320(s2)
     b4c:	0100                	c.addi4spn	s0,sp,128
     b4e:	0304                	c.addi4spn	s1,sp,384
     b50:	1a05                	c.addi	s4,-31
     b52:	0c091003          	lh	zero,192(s2)
     b56:	0100                	c.addi4spn	s0,sp,128
     b58:	4a05                	c.li	s4,1
     b5a:	08090303          	lb	t1,128(s2)
     b5e:	0100                	c.addi4spn	s0,sp,128
     b60:	5305                	c.li	t1,-31
     b62:	08097f03          	.4byte	0x8097f03
     b66:	0100                	c.addi4spn	s0,sp,128
     b68:	1a05                	c.addi	s4,-31
     b6a:	0c097f03          	.4byte	0xc097f03
     b6e:	0100                	c.addi4spn	s0,sp,128
     b70:	0f05                	c.addi	t5,1 # 0x1a001 <__global_pointer$+0x17b69>
     b72:	04090403          	lb	s0,64(s2)
     b76:	0100                	c.addi4spn	s0,sp,128
     b78:	0105                	c.addi	sp,1
     b7a:	0c090103          	lb	sp,192(s2)
     b7e:	0100                	c.addi4spn	s0,sp,128
     b80:	0104                	c.addi4spn	s1,sp,128
     b82:	0205                	c.addi	tp,1 # 0x1 <_start+0x1>
     b84:	04096f03          	.4byte	0x4096f03
     b88:	0100                	c.addi4spn	s0,sp,128
     b8a:	0105                	c.addi	sp,1
     b8c:	04090103          	lb	sp,64(s2)
     b90:	0100                	c.addi4spn	s0,sp,128
     b92:	1009                	c.nop	-30
     b94:	0000                	c.unimp
     b96:	0101                	c.addi	sp,0
     b98:	02d4                	c.addi4spn	a3,sp,324
     b9a:	0000                	c.unimp
     b9c:	0004                	.2byte	0x4
     b9e:	008c                	c.addi4spn	a1,sp,64
     ba0:	0000                	c.unimp
     ba2:	0101                	c.addi	sp,0
     ba4:	fb01                	c.bnez	a4,0xab4 <__nds__wsbh+0x58>
     ba6:	0d0e                	c.slli	s10,0x3
     ba8:	0100                	c.addi4spn	s0,sp,128
     baa:	0101                	c.addi	sp,0
     bac:	0001                	c.nop
     bae:	0000                	c.unimp
     bb0:	0001                	c.nop
     bb2:	0100                	c.addi4spn	s0,sp,128
     bb4:	7362                	.2byte	0x7362
     bb6:	2f70                	.2byte	0x2f70
     bb8:	696c                	.2byte	0x696c
     bba:	0062                	c.slli	zero,0x18
     bbc:	74706f2f          	.4byte	0x74706f2f
     bc0:	73646e2f          	.4byte	0x73646e2f
     bc4:	656c3233          	.4byte	0x656c3233
     bc8:	652d                	c.lui	a0,0xb
     bca:	666c                	.2byte	0x666c
     bcc:	6d2d                	c.lui	s10,0xb
     bce:	696c7563          	bgeu	s8,s6,0x1258 <print+0x1a8>
     bd2:	2d62                	.2byte	0x2d62
     bd4:	3576                	.2byte	0x3576
     bd6:	62696c2f          	.4byte	0x62696c2f
     bda:	6363672f          	.4byte	0x6363672f
     bde:	7369722f          	.4byte	0x7369722f
     be2:	32337663          	bgeu	t1,gp,0xf0e <prints+0x76>
     be6:	652d                	c.lui	a0,0xb
     be8:	666c                	.2byte	0x666c
     bea:	2e32312f          	.4byte	0x2e32312f
     bee:	2e32                	.2byte	0x2e32
     bf0:	2f30                	.2byte	0x2f30
     bf2:	6e69                	c.lui	t3,0x1a
     bf4:	64756c63          	bltu	a0,t2,0x124c <print+0x19c>
     bf8:	0065                	c.nop	25
     bfa:	7362                	.2byte	0x7362
     bfc:	2f70                	.2byte	0x2f70
     bfe:	6561                	c.lui	a0,0x18
     c00:	00303533          	snez	a0,gp
     c04:	7500                	.2byte	0x7500
     c06:	7261                	c.lui	tp,0xffff8
     c08:	2e74                	.2byte	0x2e74
     c0a:	00010063          	beqz	sp,0xc0a <uart_puts+0x46>
     c0e:	6e00                	.2byte	0x6e00
     c10:	7364                	.2byte	0x7364
     c12:	695f 746e 6972      	.byte	0x5f, 0x69, 0x6e, 0x74, 0x72, 0x69
     c18:	736e                	.2byte	0x736e
     c1a:	6369                	c.lui	t1,0x1a
     c1c:	682e                	.2byte	0x682e
     c1e:	0200                	c.addi4spn	s0,sp,256
     c20:	0000                	c.unimp
     c22:	6561                	c.lui	a0,0x18
     c24:	2e303533          	.4byte	0x2e303533
     c28:	0068                	c.addi4spn	a0,sp,12
     c2a:	00000003          	lb	zero,0(zero) # 0x0 <_start>
     c2e:	0204                	c.addi4spn	s1,sp,256
     c30:	0105                	c.addi	sp,1
     c32:	0500                	c.addi4spn	s0,sp,640
     c34:	1802                	c.slli	a6,0x20
     c36:	000a                	c.slli	zero,0x2
     c38:	1900                	c.addi4spn	s0,sp,176
     c3a:	1005                	c.nop	-31
     c3c:	0c090103          	lb	sp,192(s2)
     c40:	0100                	c.addi4spn	s0,sp,128
     c42:	1805                	c.addi	a6,-31
     c44:	0c090103          	lb	sp,192(s2)
     c48:	0100                	c.addi4spn	s0,sp,128
     c4a:	0105                	c.addi	sp,1
     c4c:	20090103          	lb	sp,512(s2)
     c50:	0100                	c.addi4spn	s0,sp,128
     c52:	0c090303          	lb	t1,192(s2)
     c56:	0100                	c.addi4spn	s0,sp,128
     c58:	1005                	c.nop	-31
     c5a:	08090103          	lb	sp,128(s2)
     c5e:	0100                	c.addi4spn	s0,sp,128
     c60:	1805                	c.addi	a6,-31
     c62:	0c090103          	lb	sp,192(s2)
     c66:	0100                	c.addi4spn	s0,sp,128
     c68:	1005                	c.nop	-31
     c6a:	08090003          	lb	zero,128(s2)
     c6e:	0100                	c.addi4spn	s0,sp,128
     c70:	1805                	c.addi	a6,-31
     c72:	08090103          	lb	sp,128(s2)
     c76:	0100                	c.addi4spn	s0,sp,128
     c78:	1005                	c.nop	-31
     c7a:	08090003          	lb	zero,128(s2)
     c7e:	0100                	c.addi4spn	s0,sp,128
     c80:	08090103          	lb	sp,128(s2)
     c84:	0100                	c.addi4spn	s0,sp,128
     c86:	0e05                	c.addi	t3,1 # 0x1a001 <__global_pointer$+0x17b69>
     c88:	0c090103          	lb	sp,192(s2)
     c8c:	0100                	c.addi4spn	s0,sp,128
     c8e:	1405                	c.addi	s0,-31
     c90:	08090003          	lb	zero,128(s2)
     c94:	0100                	c.addi4spn	s0,sp,128
     c96:	2605                	c.jal	0xfb6 <printi+0x32>
     c98:	08090003          	lb	zero,128(s2)
     c9c:	0100                	c.addi4spn	s0,sp,128
     c9e:	2005                	c.jal	0xcbe <__nds__wsbh+0x6>
     ca0:	08090003          	lb	zero,128(s2)
     ca4:	0100                	c.addi4spn	s0,sp,128
     ca6:	3305                	c.jal	0x9c6 <mext_interrupt+0x22>
     ca8:	04090003          	lb	zero,64(s2)
     cac:	0100                	c.addi4spn	s0,sp,128
     cae:	2d05                	c.jal	0x12de <print+0x22e>
     cb0:	08090003          	lb	zero,128(s2)
     cb4:	0100                	c.addi4spn	s0,sp,128
     cb6:	0105                	c.addi	sp,1
     cb8:	04090103          	lb	sp,64(s2)
     cbc:	0100                	c.addi4spn	s0,sp,128
     cbe:	0104                	c.addi4spn	s1,sp,128
     cc0:	0c090903          	lb	s2,192(s2)
     cc4:	0100                	c.addi4spn	s0,sp,128
     cc6:	0a05                	c.addi	s4,1
     cc8:	08090203          	lb	tp,128(s2)
     ccc:	0100                	c.addi4spn	s0,sp,128
     cce:	1005                	c.nop	-31
     cd0:	0c090003          	lb	zero,192(s2)
     cd4:	0100                	c.addi4spn	s0,sp,128
     cd6:	1305                	c.addi	t1,-31 # 0x19fe1 <__global_pointer$+0x17b49>
     cd8:	08090303          	lb	t1,128(s2)
     cdc:	0100                	c.addi4spn	s0,sp,128
     cde:	2705                	c.jal	0x13fe <snprintf+0x16>
     ce0:	1c090003          	lb	zero,448(s2)
     ce4:	0100                	c.addi4spn	s0,sp,128
     ce6:	0a05                	c.addi	s4,1
     ce8:	04090003          	lb	zero,64(s2)
     cec:	0100                	c.addi4spn	s0,sp,128
     cee:	2d05                	c.jal	0x131e <print+0x26e>
     cf0:	04090003          	lb	zero,64(s2)
     cf4:	0100                	c.addi4spn	s0,sp,128
     cf6:	1005                	c.nop	-31
     cf8:	04090003          	lb	zero,64(s2)
     cfc:	0100                	c.addi4spn	s0,sp,128
     cfe:	1305                	c.addi	t1,-31
     d00:	04090103          	lb	sp,64(s2)
     d04:	0100                	c.addi4spn	s0,sp,128
     d06:	2705                	c.jal	0x1426 <snprintf+0x3e>
     d08:	20090003          	lb	zero,512(s2)
     d0c:	0100                	c.addi4spn	s0,sp,128
     d0e:	0a05                	c.addi	s4,1
     d10:	04090003          	lb	zero,64(s2)
     d14:	0100                	c.addi4spn	s0,sp,128
     d16:	2d05                	c.jal	0x1346 <print+0x296>
     d18:	04090003          	lb	zero,64(s2)
     d1c:	0100                	c.addi4spn	s0,sp,128
     d1e:	1005                	c.nop	-31
     d20:	04090003          	lb	zero,64(s2)
     d24:	0100                	c.addi4spn	s0,sp,128
     d26:	0a05                	c.addi	s4,1
     d28:	04090303          	lb	t1,64(s2)
     d2c:	0100                	c.addi4spn	s0,sp,128
     d2e:	1005                	c.nop	-31
     d30:	04090003          	lb	zero,64(s2)
     d34:	0100                	c.addi4spn	s0,sp,128
     d36:	0a05                	c.addi	s4,1
     d38:	08090303          	lb	t1,128(s2)
     d3c:	0100                	c.addi4spn	s0,sp,128
     d3e:	1005                	c.nop	-31
     d40:	04090003          	lb	zero,64(s2)
     d44:	0100                	c.addi4spn	s0,sp,128
     d46:	0105                	c.addi	sp,1
     d48:	08090103          	lb	sp,128(s2)
     d4c:	0100                	c.addi4spn	s0,sp,128
     d4e:	0c090403          	lb	s0,192(s2)
     d52:	0100                	c.addi4spn	s0,sp,128
     d54:	0805                	c.addi	a6,1
     d56:	00090303          	lb	t1,0(s2)
     d5a:	0100                	c.addi4spn	s0,sp,128
     d5c:	1205                	c.addi	tp,-31 # 0xffff7fe1 <boot_loader+0x7fff7fe1>
     d5e:	0200                	c.addi4spn	s0,sp,256
     d60:	0104                	c.addi4spn	s1,sp,128
     d62:	04090003          	lb	zero,64(s2)
     d66:	0100                	c.addi4spn	s0,sp,128
     d68:	1805                	c.addi	a6,-31
     d6a:	0200                	c.addi4spn	s0,sp,256
     d6c:	0104                	c.addi4spn	s1,sp,128
     d6e:	08090003          	lb	zero,128(s2)
     d72:	0100                	c.addi4spn	s0,sp,128
     d74:	2a05                	c.jal	0xea4 <prints+0xc>
     d76:	0200                	c.addi4spn	s0,sp,256
     d78:	0104                	c.addi4spn	s1,sp,128
     d7a:	04090003          	lb	zero,64(s2)
     d7e:	0100                	c.addi4spn	s0,sp,128
     d80:	1105                	c.addi	sp,-31
     d82:	04090203          	lb	tp,64(s2)
     d86:	0100                	c.addi4spn	s0,sp,128
     d88:	0105                	c.addi	sp,1
     d8a:	08090103          	lb	sp,128(s2)
     d8e:	0100                	c.addi4spn	s0,sp,128
     d90:	08090403          	lb	s0,128(s2)
     d94:	0100                	c.addi4spn	s0,sp,128
     d96:	0805                	c.addi	a6,1
     d98:	08090303          	lb	t1,128(s2)
     d9c:	0100                	c.addi4spn	s0,sp,128
     d9e:	1205                	c.addi	tp,-31 # 0xffffffe1 <boot_loader+0x7fffffe1>
     da0:	0200                	c.addi4spn	s0,sp,256
     da2:	0104                	c.addi4spn	s1,sp,128
     da4:	04090003          	lb	zero,64(s2)
     da8:	0100                	c.addi4spn	s0,sp,128
     daa:	1805                	c.addi	a6,-31
     dac:	0200                	c.addi4spn	s0,sp,256
     dae:	0104                	c.addi4spn	s1,sp,128
     db0:	08090003          	lb	zero,128(s2)
     db4:	0100                	c.addi4spn	s0,sp,128
     db6:	2b05                	c.jal	0x12e6 <print+0x236>
     db8:	0200                	c.addi4spn	s0,sp,256
     dba:	0104                	c.addi4spn	s1,sp,128
     dbc:	04090003          	lb	zero,64(s2)
     dc0:	0100                	c.addi4spn	s0,sp,128
     dc2:	0a05                	c.addi	s4,1
     dc4:	04090203          	lb	tp,64(s2)
     dc8:	0100                	c.addi4spn	s0,sp,128
     dca:	1005                	c.nop	-31
     dcc:	04090003          	lb	zero,64(s2)
     dd0:	0100                	c.addi4spn	s0,sp,128
     dd2:	0105                	c.addi	sp,1
     dd4:	08090103          	lb	sp,128(s2)
     dd8:	0100                	c.addi4spn	s0,sp,128
     dda:	0c090403          	lb	s0,192(s2)
     dde:	0100                	c.addi4spn	s0,sp,128
     de0:	0605                	c.addi	a2,1 # 0xfffeb001 <boot_loader+0x7ffeb001>
     de2:	0c090103          	lb	sp,192(s2)
     de6:	0100                	c.addi4spn	s0,sp,128
     de8:	0805                	c.addi	a6,1
     dea:	04090203          	lb	tp,64(s2)
     dee:	0100                	c.addi4spn	s0,sp,128
     df0:	0d05                	c.addi	s10,1 # 0xb001 <__global_pointer$+0x8b69>
     df2:	04090203          	lb	tp,64(s2)
     df6:	0100                	c.addi4spn	s0,sp,128
     df8:	0305                	c.addi	t1,1
     dfa:	08090003          	lb	zero,128(s2)
     dfe:	0100                	c.addi4spn	s0,sp,128
     e00:	0705                	c.addi	a4,1
     e02:	08090203          	lb	tp,128(s2)
     e06:	0100                	c.addi4spn	s0,sp,128
     e08:	0605                	c.addi	a2,1
     e0a:	08090003          	lb	zero,128(s2)
     e0e:	0100                	c.addi4spn	s0,sp,128
     e10:	0405                	c.addi	s0,1
     e12:	08090203          	lb	tp,128(s2)
     e16:	0100                	c.addi4spn	s0,sp,128
     e18:	08090303          	lb	t1,128(s2)
     e1c:	0100                	c.addi4spn	s0,sp,128
     e1e:	0605                	c.addi	a2,1
     e20:	0c090103          	lb	sp,192(s2)
     e24:	0100                	c.addi4spn	s0,sp,128
     e26:	0905                	c.addi	s2,1
     e28:	0c097603          	.4byte	0xc097603
     e2c:	0100                	c.addi4spn	s0,sp,128
     e2e:	0c090d03          	lb	s10,192(s2)
     e32:	0100                	c.addi4spn	s0,sp,128
     e34:	0105                	c.addi	sp,1
     e36:	04090103          	lb	sp,64(s2)
     e3a:	0100                	c.addi4spn	s0,sp,128
     e3c:	10090403          	lb	s0,256(s2)
     e40:	0100                	c.addi4spn	s0,sp,128
     e42:	0205                	c.addi	tp,1 # 0x1 <_start+0x1>
     e44:	0c090103          	lb	sp,192(s2)
     e48:	0100                	c.addi4spn	s0,sp,128
     e4a:	0505                	c.addi	a0,1 # 0x18001 <__global_pointer$+0x15b69>
     e4c:	08090203          	lb	tp,128(s2)
     e50:	0100                	c.addi4spn	s0,sp,128
     e52:	0305                	c.addi	t1,1
     e54:	0c090203          	lb	tp,192(s2)
     e58:	0100                	c.addi4spn	s0,sp,128
     e5a:	0905                	c.addi	s2,1
     e5c:	08090303          	lb	t1,128(s2)
     e60:	0100                	c.addi4spn	s0,sp,128
     e62:	0105                	c.addi	sp,1
     e64:	04090103          	lb	sp,64(s2)
     e68:	0100                	c.addi4spn	s0,sp,128
     e6a:	1009                	c.nop	-30
     e6c:	0000                	c.unimp
     e6e:	0101                	c.addi	sp,0
     e70:	01e4                	c.addi4spn	s1,sp,204
     e72:	0000                	c.unimp
     e74:	0004                	.2byte	0x4
     e76:	0078                	c.addi4spn	a4,sp,12
     e78:	0000                	c.unimp
     e7a:	0101                	c.addi	sp,0
     e7c:	fb01                	c.bnez	a4,0xd8c <rdmcycle+0x54>
     e7e:	0d0e                	c.slli	s10,0x3
     e80:	0100                	c.addi4spn	s0,sp,128
     e82:	0101                	c.addi	sp,0
     e84:	0001                	c.nop
     e86:	0000                	c.unimp
     e88:	0001                	c.nop
     e8a:	0100                	c.addi4spn	s0,sp,128
     e8c:	7362                	.2byte	0x7362
     e8e:	2f70                	.2byte	0x2f70
     e90:	696c                	.2byte	0x696c
     e92:	0062                	c.slli	zero,0x18
     e94:	74706f2f          	.4byte	0x74706f2f
     e98:	73646e2f          	.4byte	0x73646e2f
     e9c:	656c3233          	.4byte	0x656c3233
     ea0:	652d                	c.lui	a0,0xb
     ea2:	666c                	.2byte	0x666c
     ea4:	6d2d                	c.lui	s10,0xb
     ea6:	696c7563          	bgeu	s8,s6,0x1530 <__divsf3+0xf4>
     eaa:	2d62                	.2byte	0x2d62
     eac:	3576                	.2byte	0x3576
     eae:	62696c2f          	.4byte	0x62696c2f
     eb2:	6363672f          	.4byte	0x6363672f
     eb6:	7369722f          	.4byte	0x7369722f
     eba:	32337663          	bgeu	t1,gp,0x11e6 <print+0x136>
     ebe:	652d                	c.lui	a0,0xb
     ec0:	666c                	.2byte	0x666c
     ec2:	2e32312f          	.4byte	0x2e32312f
     ec6:	2e32                	.2byte	0x2e32
     ec8:	2f30                	.2byte	0x2f30
     eca:	6e69                	c.lui	t3,0x1a
     ecc:	64756c63          	bltu	a0,t2,0x1524 <__divsf3+0xe8>
     ed0:	0065                	c.nop	25
     ed2:	6400                	.2byte	0x6400
     ed4:	6c65                	c.lui	s8,0x19
     ed6:	7961                	c.lui	s2,0xffff8
     ed8:	632e                	.2byte	0x632e
     eda:	0100                	c.addi4spn	s0,sp,128
     edc:	0000                	c.unimp
     ede:	646e                	.2byte	0x646e
     ee0:	6e695f73          	csrrwi	t5,0x6e6,18
     ee4:	7274                	.2byte	0x7274
     ee6:	6e69                	c.lui	t3,0x1a
     ee8:	2e636973          	csrrsi	s2,0x2e6,6
     eec:	0068                	c.addi4spn	a0,sp,12
     eee:	0002                	c.slli64	zero
     ef0:	0000                	c.unimp
     ef2:	0204                	c.addi4spn	s1,sp,256
     ef4:	0105                	c.addi	sp,1
     ef6:	0500                	c.addi4spn	s0,sp,640
     ef8:	7402                	.2byte	0x7402
     efa:	000c                	.2byte	0xc
     efc:	1900                	c.addi4spn	s0,sp,176
     efe:	1005                	c.nop	-31
     f00:	0c090103          	lb	sp,192(s2) # 0xffff80c0 <boot_loader+0x7fff80c0>
     f04:	0100                	c.addi4spn	s0,sp,128
     f06:	1805                	c.addi	a6,-31
     f08:	0c090103          	lb	sp,192(s2)
     f0c:	0100                	c.addi4spn	s0,sp,128
     f0e:	0105                	c.addi	sp,1
     f10:	20090103          	lb	sp,512(s2)
     f14:	0100                	c.addi4spn	s0,sp,128
     f16:	0c090303          	lb	t1,192(s2)
     f1a:	0100                	c.addi4spn	s0,sp,128
     f1c:	1005                	c.nop	-31
     f1e:	08090103          	lb	sp,128(s2)
     f22:	0100                	c.addi4spn	s0,sp,128
     f24:	1805                	c.addi	a6,-31
     f26:	0c090103          	lb	sp,192(s2)
     f2a:	0100                	c.addi4spn	s0,sp,128
     f2c:	1005                	c.nop	-31
     f2e:	08090003          	lb	zero,128(s2)
     f32:	0100                	c.addi4spn	s0,sp,128
     f34:	1805                	c.addi	a6,-31
     f36:	08090103          	lb	sp,128(s2)
     f3a:	0100                	c.addi4spn	s0,sp,128
     f3c:	1005                	c.nop	-31
     f3e:	08090003          	lb	zero,128(s2)
     f42:	0100                	c.addi4spn	s0,sp,128
     f44:	08090103          	lb	sp,128(s2)
     f48:	0100                	c.addi4spn	s0,sp,128
     f4a:	0e05                	c.addi	t3,1 # 0x1a001 <__global_pointer$+0x17b69>
     f4c:	0c090103          	lb	sp,192(s2)
     f50:	0100                	c.addi4spn	s0,sp,128
     f52:	1405                	c.addi	s0,-31
     f54:	08090003          	lb	zero,128(s2)
     f58:	0100                	c.addi4spn	s0,sp,128
     f5a:	2605                	c.jal	0x127a <print+0x1ca>
     f5c:	08090003          	lb	zero,128(s2)
     f60:	0100                	c.addi4spn	s0,sp,128
     f62:	2005                	c.jal	0xf82 <prints+0xea>
     f64:	08090003          	lb	zero,128(s2)
     f68:	0100                	c.addi4spn	s0,sp,128
     f6a:	3305                	c.jal	0xc8a <__nds__rotr+0x16>
     f6c:	04090003          	lb	zero,64(s2)
     f70:	0100                	c.addi4spn	s0,sp,128
     f72:	2d05                	c.jal	0x15a2 <__fixsfsi+0xe>
     f74:	08090003          	lb	zero,128(s2)
     f78:	0100                	c.addi4spn	s0,sp,128
     f7a:	0105                	c.addi	sp,1
     f7c:	04090103          	lb	sp,64(s2)
     f80:	0100                	c.addi4spn	s0,sp,128
     f82:	0104                	c.addi4spn	s1,sp,128
     f84:	0c090503          	lb	a0,192(s2)
     f88:	0100                	c.addi4spn	s0,sp,128
     f8a:	0905                	c.addi	s2,1
     f8c:	00090103          	lb	sp,0(s2)
     f90:	0100                	c.addi4spn	s0,sp,128
     f92:	0105                	c.addi	sp,1
     f94:	04090103          	lb	sp,64(s2)
     f98:	0100                	c.addi4spn	s0,sp,128
     f9a:	08090303          	lb	t1,128(s2)
     f9e:	0100                	c.addi4spn	s0,sp,128
     fa0:	1605                	c.addi	a2,-31
     fa2:	04090403          	lb	s0,64(s2)
     fa6:	0100                	c.addi4spn	s0,sp,128
     fa8:	08090103          	lb	sp,128(s2)
     fac:	0100                	c.addi4spn	s0,sp,128
     fae:	0d05                	c.addi	s10,1 # 0xb001 <__global_pointer$+0x8b69>
     fb0:	08090203          	lb	tp,128(s2)
     fb4:	0100                	c.addi4spn	s0,sp,128
     fb6:	0605                	c.addi	a2,1
     fb8:	04090003          	lb	zero,64(s2)
     fbc:	0100                	c.addi4spn	s0,sp,128
     fbe:	0c05                	c.addi	s8,1 # 0x19001 <__global_pointer$+0x16b69>
     fc0:	08090203          	lb	tp,128(s2)
     fc4:	0100                	c.addi4spn	s0,sp,128
     fc6:	2305                	c.jal	0x14e6 <__divsf3+0xaa>
     fc8:	0c090003          	lb	zero,192(s2)
     fcc:	0100                	c.addi4spn	s0,sp,128
     fce:	2a05                	c.jal	0x10fe <print+0x4e>
     fd0:	08090003          	lb	zero,128(s2)
     fd4:	0100                	c.addi4spn	s0,sp,128
     fd6:	0105                	c.addi	sp,1
     fd8:	1c090603          	lb	a2,448(s2)
     fdc:	0100                	c.addi4spn	s0,sp,128
     fde:	10090403          	lb	s0,256(s2)
     fe2:	0100                	c.addi4spn	s0,sp,128
     fe4:	1005                	c.nop	-31
     fe6:	0c090103          	lb	sp,192(s2)
     fea:	0100                	c.addi4spn	s0,sp,128
     fec:	1a05                	c.addi	s4,-31
     fee:	0c090003          	lb	zero,192(s2)
     ff2:	0100                	c.addi4spn	s0,sp,128
     ff4:	2205                	c.jal	0x1114 <print+0x64>
     ff6:	10090003          	lb	zero,256(s2)
     ffa:	0100                	c.addi4spn	s0,sp,128
     ffc:	1b05                	c.addi	s6,-31 # 0xfffdffe1 <boot_loader+0x7ffdffe1>
     ffe:	08090003          	lb	zero,128(s2)
    1002:	0100                	c.addi4spn	s0,sp,128
    1004:	1a05                	c.addi	s4,-31
    1006:	0c090003          	lb	zero,192(s2)
    100a:	0100                	c.addi4spn	s0,sp,128
    100c:	0905                	c.addi	s2,1
    100e:	10090003          	lb	zero,256(s2)
    1012:	0100                	c.addi4spn	s0,sp,128
    1014:	0105                	c.addi	sp,1
    1016:	0c090103          	lb	sp,192(s2)
    101a:	0100                	c.addi4spn	s0,sp,128
    101c:	14090403          	lb	s0,320(s2)
    1020:	0100                	c.addi4spn	s0,sp,128
    1022:	0e05                	c.addi	t3,1
    1024:	08090103          	lb	sp,128(s2)
    1028:	0100                	c.addi4spn	s0,sp,128
    102a:	0205                	c.addi	tp,1 # 0x1 <_start+0x1>
    102c:	14090003          	lb	zero,320(s2)
    1030:	0100                	c.addi4spn	s0,sp,128
    1032:	3e05                	c.jal	0xb62 <uart_init+0x92>
    1034:	0200                	c.addi4spn	s0,sp,256
    1036:	0304                	c.addi4spn	s1,sp,384
    1038:	04090003          	lb	zero,64(s2)
    103c:	0100                	c.addi4spn	s0,sp,128
    103e:	3005                	c.jal	0x85e <system_init+0x2>
    1040:	0200                	c.addi4spn	s0,sp,256
    1042:	0104                	c.addi4spn	s1,sp,128
    1044:	0c090003          	lb	zero,192(s2)
    1048:	0100                	c.addi4spn	s0,sp,128
    104a:	0105                	c.addi	sp,1
    104c:	08090103          	lb	sp,128(s2)
    1050:	0100                	c.addi4spn	s0,sp,128
    1052:	1009                	c.nop	-30
    1054:	0000                	c.unimp
    1056:	0101                	c.addi	sp,0
    1058:	01e0                	c.addi4spn	s0,sp,204
    105a:	0000                	c.unimp
    105c:	0004                	.2byte	0x4
    105e:	002a                	c.slli	zero,0xa
    1060:	0000                	c.unimp
    1062:	0101                	c.addi	sp,0
    1064:	fb01                	c.bnez	a4,0xf74 <prints+0xdc>
    1066:	0d0e                	c.slli	s10,0x3
    1068:	0100                	c.addi4spn	s0,sp,128
    106a:	0101                	c.addi	sp,0
    106c:	0001                	c.nop
    106e:	0000                	c.unimp
    1070:	0001                	c.nop
    1072:	0100                	c.addi4spn	s0,sp,128
    1074:	7362                	.2byte	0x7362
    1076:	2f70                	.2byte	0x2f70
    1078:	6561                	c.lui	a0,0x18
    107a:	00303533          	snez	a0,gp
    107e:	6c00                	.2byte	0x6c00
    1080:	6564616f          	jal	sp,0x476d6 <__global_pointer$+0x4523e>
    1084:	2e72                	.2byte	0x2e72
    1086:	00010063          	beqz	sp,0x1086 <printi+0x102>
    108a:	0000                	c.unimp
    108c:	0105                	c.addi	sp,1
    108e:	0500                	c.addi4spn	s0,sp,640
    1090:	0002                	c.slli64	zero
    1092:	0000                	c.unimp
    1094:	0380                	c.addi4spn	s0,sp,448
    1096:	0118                	c.addi4spn	a4,sp,128
    1098:	0505                	c.addi	a0,1 # 0x18001 <__global_pointer$+0x15b69>
    109a:	00090103          	lb	sp,0(s2)
    109e:	0100                	c.addi4spn	s0,sp,128
    10a0:	0205                	c.addi	tp,1 # 0x1 <_start+0x1>
    10a2:	04090503          	lb	a0,64(s2)
    10a6:	0100                	c.addi4spn	s0,sp,128
    10a8:	0a05                	c.addi	s4,1
    10aa:	00090503          	lb	a0,0(s2)
    10ae:	0100                	c.addi4spn	s0,sp,128
    10b0:	4e05                	c.li	t3,1
    10b2:	08090003          	lb	zero,128(s2)
    10b6:	0100                	c.addi4spn	s0,sp,128
    10b8:	2c05                	c.jal	0x12e8 <print+0x238>
    10ba:	04090003          	lb	zero,64(s2)
    10be:	0100                	c.addi4spn	s0,sp,128
    10c0:	4e05                	c.li	t3,1
    10c2:	08090003          	lb	zero,128(s2)
    10c6:	0100                	c.addi4spn	s0,sp,128
    10c8:	0705                	c.addi	a4,1
    10ca:	04090003          	lb	zero,64(s2)
    10ce:	0100                	c.addi4spn	s0,sp,128
    10d0:	1e05                	c.addi	t3,-31
    10d2:	04090203          	lb	tp,64(s2)
    10d6:	0100                	c.addi4spn	s0,sp,128
    10d8:	3e05                	c.jal	0xc08 <uart_puts+0x44>
    10da:	08090003          	lb	zero,128(s2)
    10de:	0100                	c.addi4spn	s0,sp,128
    10e0:	3c05                	c.jal	0xb10 <uart_init+0x40>
    10e2:	08090003          	lb	zero,128(s2)
    10e6:	0100                	c.addi4spn	s0,sp,128
    10e8:	0a05                	c.addi	s4,1
    10ea:	04090003          	lb	zero,64(s2)
    10ee:	0100                	c.addi4spn	s0,sp,128
    10f0:	04090103          	lb	sp,64(s2)
    10f4:	0100                	c.addi4spn	s0,sp,128
    10f6:	0905                	c.addi	s2,1
    10f8:	08090203          	lb	tp,128(s2)
    10fc:	0100                	c.addi4spn	s0,sp,128
    10fe:	0205                	c.addi	tp,1 # 0x1 <_start+0x1>
    1100:	04090003          	lb	zero,64(s2)
    1104:	0100                	c.addi4spn	s0,sp,128
    1106:	1805                	c.addi	a6,-31
    1108:	0200                	c.addi4spn	s0,sp,256
    110a:	0304                	c.addi4spn	s1,sp,384
    110c:	04090203          	lb	tp,64(s2)
    1110:	0100                	c.addi4spn	s0,sp,128
    1112:	0b05                	c.addi	s6,1
    1114:	0200                	c.addi4spn	s0,sp,256
    1116:	0304                	c.addi4spn	s1,sp,384
    1118:	08090003          	lb	zero,128(s2)
    111c:	0100                	c.addi4spn	s0,sp,128
    111e:	1005                	c.nop	-31
    1120:	0200                	c.addi4spn	s0,sp,256
    1122:	0304                	c.addi4spn	s1,sp,384
    1124:	08090003          	lb	zero,128(s2)
    1128:	0100                	c.addi4spn	s0,sp,128
    112a:	0e05                	c.addi	t3,1
    112c:	0200                	c.addi4spn	s0,sp,256
    112e:	0304                	c.addi4spn	s1,sp,384
    1130:	04090003          	lb	zero,64(s2)
    1134:	0100                	c.addi4spn	s0,sp,128
    1136:	1905                	c.addi	s2,-31
    1138:	0200                	c.addi4spn	s0,sp,256
    113a:	0304                	c.addi4spn	s1,sp,384
    113c:	04097e03          	.4byte	0x4097e03
    1140:	0100                	c.addi4spn	s0,sp,128
    1142:	1005                	c.nop	-31
    1144:	0200                	c.addi4spn	s0,sp,256
    1146:	0104                	c.addi4spn	s1,sp,128
    1148:	04090003          	lb	zero,64(s2)
    114c:	0100                	c.addi4spn	s0,sp,128
    114e:	1205                	c.addi	tp,-31 # 0xffffffe1 <boot_loader+0x7fffffe1>
    1150:	04090903          	lb	s2,64(s2)
    1154:	0100                	c.addi4spn	s0,sp,128
    1156:	0205                	c.addi	tp,1 # 0x1 <_start+0x1>
    1158:	08090103          	lb	sp,128(s2)
    115c:	0100                	c.addi4spn	s0,sp,128
    115e:	0105                	c.addi	sp,1
    1160:	04090103          	lb	sp,64(s2)
    1164:	0100                	c.addi4spn	s0,sp,128
    1166:	0409                	c.addi	s0,2
    1168:	0000                	c.unimp
    116a:	0101                	c.addi	sp,0
    116c:	0105                	c.addi	sp,1
    116e:	0500                	c.addi4spn	s0,sp,640
    1170:	0002                	c.slli64	zero
    1172:	f000                	.2byte	0xf000
    1174:	0136030f          	.4byte	0x136030f
    1178:	0505                	c.addi	a0,1
    117a:	00090103          	lb	sp,0(s2)
    117e:	0100                	c.addi4spn	s0,sp,128
    1180:	0a05                	c.addi	s4,1
    1182:	04090503          	lb	a0,64(s2)
    1186:	0100                	c.addi4spn	s0,sp,128
    1188:	4005                	c.li	zero,1
    118a:	08090003          	lb	zero,128(s2)
    118e:	0100                	c.addi4spn	s0,sp,128
    1190:	2305                	c.jal	0x16b0 <__clzsi2>
    1192:	04090003          	lb	zero,64(s2)
    1196:	0100                	c.addi4spn	s0,sp,128
    1198:	4005                	c.li	zero,1
    119a:	08090003          	lb	zero,128(s2)
    119e:	0100                	c.addi4spn	s0,sp,128
    11a0:	0705                	c.addi	a4,1
    11a2:	04090003          	lb	zero,64(s2)
    11a6:	0100                	c.addi4spn	s0,sp,128
    11a8:	1e05                	c.addi	t3,-31
    11aa:	04090203          	lb	tp,64(s2)
    11ae:	0100                	c.addi4spn	s0,sp,128
    11b0:	3e05                	c.jal	0xce0 <__nds__wsbh+0x28>
    11b2:	08090003          	lb	zero,128(s2)
    11b6:	0100                	c.addi4spn	s0,sp,128
    11b8:	3c05                	c.jal	0xbe8 <uart_puts+0x24>
    11ba:	08090003          	lb	zero,128(s2)
    11be:	0100                	c.addi4spn	s0,sp,128
    11c0:	0a05                	c.addi	s4,1
    11c2:	04090003          	lb	zero,64(s2)
    11c6:	0100                	c.addi4spn	s0,sp,128
    11c8:	04090103          	lb	sp,64(s2)
    11cc:	0100                	c.addi4spn	s0,sp,128
    11ce:	0905                	c.addi	s2,1
    11d0:	08090203          	lb	tp,128(s2)
    11d4:	0100                	c.addi4spn	s0,sp,128
    11d6:	0205                	c.addi	tp,1 # 0x1 <_start+0x1>
    11d8:	04090003          	lb	zero,64(s2)
    11dc:	0100                	c.addi4spn	s0,sp,128
    11de:	1805                	c.addi	a6,-31
    11e0:	0200                	c.addi4spn	s0,sp,256
    11e2:	0304                	c.addi4spn	s1,sp,384
    11e4:	04090203          	lb	tp,64(s2)
    11e8:	0100                	c.addi4spn	s0,sp,128
    11ea:	0b05                	c.addi	s6,1
    11ec:	0200                	c.addi4spn	s0,sp,256
    11ee:	0304                	c.addi4spn	s1,sp,384
    11f0:	08090003          	lb	zero,128(s2)
    11f4:	0100                	c.addi4spn	s0,sp,128
    11f6:	1005                	c.nop	-31
    11f8:	0200                	c.addi4spn	s0,sp,256
    11fa:	0304                	c.addi4spn	s1,sp,384
    11fc:	08090003          	lb	zero,128(s2)
    1200:	0100                	c.addi4spn	s0,sp,128
    1202:	0e05                	c.addi	t3,1
    1204:	0200                	c.addi4spn	s0,sp,256
    1206:	0304                	c.addi4spn	s1,sp,384
    1208:	04090003          	lb	zero,64(s2)
    120c:	0100                	c.addi4spn	s0,sp,128
    120e:	1905                	c.addi	s2,-31
    1210:	0200                	c.addi4spn	s0,sp,256
    1212:	0304                	c.addi4spn	s1,sp,384
    1214:	04097e03          	.4byte	0x4097e03
    1218:	0100                	c.addi4spn	s0,sp,128
    121a:	1005                	c.nop	-31
    121c:	0200                	c.addi4spn	s0,sp,256
    121e:	0104                	c.addi4spn	s1,sp,128
    1220:	04090003          	lb	zero,64(s2)
    1224:	0100                	c.addi4spn	s0,sp,128
    1226:	0205                	c.addi	tp,1 # 0x1 <_start+0x1>
    1228:	04090603          	lb	a2,64(s2)
    122c:	0100                	c.addi4spn	s0,sp,128
    122e:	0105                	c.addi	sp,1
    1230:	08090103          	lb	sp,128(s2)
    1234:	0100                	c.addi4spn	s0,sp,128
    1236:	0409                	c.addi	s0,2
    1238:	0000                	c.unimp
    123a:	0101                	c.addi	sp,0

Disassembly of section .debug_frame:

00000000 <.debug_frame>:
   0:	000c                	.2byte	0xc
   2:	0000                	c.unimp
   4:	ffffffff          	.4byte	0xffffffff
   8:	7c010003          	lb	zero,1984(sp)
   c:	0d01                	c.addi	s10,0
   e:	0002                	c.slli64	zero
  10:	0014                	.2byte	0x14
  12:	0000                	c.unimp
  14:	0000                	c.unimp
  16:	0000                	c.unimp
  18:	0040                	c.addi4spn	s0,sp,4
  1a:	0000                	c.unimp
  1c:	0044                	c.addi4spn	s1,sp,4
  1e:	0000                	c.unimp
  20:	0e44                	c.addi4spn	s1,sp,788
  22:	7c20                	.2byte	0x7c20
  24:	000e                	c.slli	zero,0x3
  26:	0000                	c.unimp
  28:	0014                	.2byte	0x14
  2a:	0000                	c.unimp
  2c:	0000                	c.unimp
  2e:	0000                	c.unimp
  30:	0084                	c.addi4spn	s1,sp,64
  32:	0000                	c.unimp
  34:	0074                	c.addi4spn	a3,sp,12
  36:	0000                	c.unimp
  38:	0e44                	c.addi4spn	s1,sp,788
  3a:	0220                	c.addi4spn	s0,sp,264
  3c:	0e6c                	c.addi4spn	a1,sp,796
  3e:	0000                	c.unimp
  40:	0018                	.2byte	0x18
  42:	0000                	c.unimp
  44:	0000                	c.unimp
  46:	0000                	c.unimp
  48:	00f8                	c.addi4spn	a4,sp,76
  4a:	0000                	c.unimp
  4c:	005c                	c.addi4spn	a5,sp,4
  4e:	0000                	c.unimp
  50:	0e44                	c.addi4spn	s1,sp,788
  52:	4410                	c.lw	a2,8(s0)
  54:	0181                	c.addi	gp,0 # 0x2498 <__global_pointer$>
  56:	4c02                	c.lwsp	s8,0(sp)
  58:	44c1                	c.li	s1,16
  5a:	000e                	c.slli	zero,0x3
  5c:	0018                	.2byte	0x18
  5e:	0000                	c.unimp
  60:	0000                	c.unimp
  62:	0000                	c.unimp
  64:	0154                	c.addi4spn	a3,sp,132
  66:	0000                	c.unimp
  68:	0040                	c.addi4spn	s0,sp,4
  6a:	0000                	c.unimp
  6c:	0e44                	c.addi4spn	s1,sp,788
  6e:	4420                	c.lw	s0,72(s0)
  70:	0181                	c.addi	gp,0 # 0x2498 <__global_pointer$>
  72:	3002                	.2byte	0x3002
  74:	44c1                	c.li	s1,16
  76:	000e                	c.slli	zero,0x3
  78:	0018                	.2byte	0x18
  7a:	0000                	c.unimp
  7c:	0000                	c.unimp
  7e:	0000                	c.unimp
  80:	0194                	c.addi4spn	a3,sp,192
  82:	0000                	c.unimp
  84:	003c                	c.addi4spn	a5,sp,8
  86:	0000                	c.unimp
  88:	0e44                	c.addi4spn	s1,sp,788
  8a:	4420                	c.lw	s0,72(s0)
  8c:	0181                	c.addi	gp,0 # 0x2498 <__global_pointer$>
  8e:	c16c                	c.sw	a1,68(a0)
  90:	0e44                	c.addi4spn	s1,sp,788
  92:	0000                	c.unimp
  94:	0018                	.2byte	0x18
  96:	0000                	c.unimp
  98:	0000                	c.unimp
  9a:	0000                	c.unimp
  9c:	01d0                	c.addi4spn	a2,sp,196
  9e:	0000                	c.unimp
  a0:	0040                	c.addi4spn	s0,sp,4
  a2:	0000                	c.unimp
  a4:	0e44                	c.addi4spn	s1,sp,788
  a6:	4420                	c.lw	s0,72(s0)
  a8:	0181                	c.addi	gp,0 # 0x2498 <__global_pointer$>
  aa:	c170                	c.sw	a2,68(a0)
  ac:	0e44                	c.addi4spn	s1,sp,788
  ae:	0000                	c.unimp
  b0:	0018                	.2byte	0x18
  b2:	0000                	c.unimp
  b4:	0000                	c.unimp
  b6:	0000                	c.unimp
  b8:	0210                	c.addi4spn	a2,sp,256
  ba:	0000                	c.unimp
  bc:	0040                	c.addi4spn	s0,sp,4
  be:	0000                	c.unimp
  c0:	0e44                	c.addi4spn	s1,sp,788
  c2:	4420                	c.lw	s0,72(s0)
  c4:	0181                	c.addi	gp,0 # 0x2498 <__global_pointer$>
  c6:	c170                	c.sw	a2,68(a0)
  c8:	0e44                	c.addi4spn	s1,sp,788
  ca:	0000                	c.unimp
  cc:	0018                	.2byte	0x18
  ce:	0000                	c.unimp
  d0:	0000                	c.unimp
  d2:	0000                	c.unimp
  d4:	0250                	c.addi4spn	a2,sp,260
  d6:	0000                	c.unimp
  d8:	0040                	c.addi4spn	s0,sp,4
  da:	0000                	c.unimp
  dc:	0e44                	c.addi4spn	s1,sp,788
  de:	4420                	c.lw	s0,72(s0)
  e0:	0181                	c.addi	gp,0 # 0x2498 <__global_pointer$>
  e2:	c170                	c.sw	a2,68(a0)
  e4:	0e44                	c.addi4spn	s1,sp,788
  e6:	0000                	c.unimp
  e8:	0018                	.2byte	0x18
  ea:	0000                	c.unimp
  ec:	0000                	c.unimp
  ee:	0000                	c.unimp
  f0:	0290                	c.addi4spn	a2,sp,320
  f2:	0000                	c.unimp
  f4:	003c                	c.addi4spn	a5,sp,8
  f6:	0000                	c.unimp
  f8:	0e44                	c.addi4spn	s1,sp,788
  fa:	4420                	c.lw	s0,72(s0)
  fc:	0181                	c.addi	gp,0 # 0x2498 <__global_pointer$>
  fe:	c16c                	c.sw	a1,68(a0)
 100:	0e44                	c.addi4spn	s1,sp,788
 102:	0000                	c.unimp
 104:	0018                	.2byte	0x18
 106:	0000                	c.unimp
 108:	0000                	c.unimp
 10a:	0000                	c.unimp
 10c:	02cc                	c.addi4spn	a1,sp,324
 10e:	0000                	c.unimp
 110:	003c                	c.addi4spn	a5,sp,8
 112:	0000                	c.unimp
 114:	0e44                	c.addi4spn	s1,sp,788
 116:	4420                	c.lw	s0,72(s0)
 118:	0181                	c.addi	gp,0 # 0x2498 <__global_pointer$>
 11a:	c16c                	c.sw	a1,68(a0)
 11c:	0e44                	c.addi4spn	s1,sp,788
 11e:	0000                	c.unimp
 120:	0018                	.2byte	0x18
 122:	0000                	c.unimp
 124:	0000                	c.unimp
 126:	0000                	c.unimp
 128:	0308                	c.addi4spn	a0,sp,384
 12a:	0000                	c.unimp
 12c:	0040                	c.addi4spn	s0,sp,4
 12e:	0000                	c.unimp
 130:	0e44                	c.addi4spn	s1,sp,788
 132:	4420                	c.lw	s0,72(s0)
 134:	0181                	c.addi	gp,0 # 0x2498 <__global_pointer$>
 136:	c170                	c.sw	a2,68(a0)
 138:	0e44                	c.addi4spn	s1,sp,788
 13a:	0000                	c.unimp
 13c:	0018                	.2byte	0x18
 13e:	0000                	c.unimp
 140:	0000                	c.unimp
 142:	0000                	c.unimp
 144:	0348                	c.addi4spn	a0,sp,388
 146:	0000                	c.unimp
 148:	0040                	c.addi4spn	s0,sp,4
 14a:	0000                	c.unimp
 14c:	0e44                	c.addi4spn	s1,sp,788
 14e:	4420                	c.lw	s0,72(s0)
 150:	0181                	c.addi	gp,0 # 0x2498 <__global_pointer$>
 152:	c170                	c.sw	a2,68(a0)
 154:	0e44                	c.addi4spn	s1,sp,788
 156:	0000                	c.unimp
 158:	000c                	.2byte	0xc
 15a:	0000                	c.unimp
 15c:	ffffffff          	.4byte	0xffffffff
 160:	7c010003          	lb	zero,1984(sp)
 164:	0d01                	c.addi	s10,0
 166:	0002                	c.slli64	zero
 168:	0018                	.2byte	0x18
 16a:	0000                	c.unimp
 16c:	0158                	c.addi4spn	a4,sp,132
 16e:	0000                	c.unimp
 170:	0388                	c.addi4spn	a0,sp,448
 172:	0000                	c.unimp
 174:	0028                	c.addi4spn	a0,sp,8
 176:	0000                	c.unimp
 178:	0e44                	c.addi4spn	s1,sp,788
 17a:	4410                	c.lw	a2,8(s0)
 17c:	0181                	c.addi	gp,0 # 0x2498 <__global_pointer$>
 17e:	c158                	c.sw	a4,4(a0)
 180:	0e44                	c.addi4spn	s1,sp,788
 182:	0000                	c.unimp
 184:	0014                	.2byte	0x14
 186:	0000                	c.unimp
 188:	0158                	c.addi4spn	a4,sp,132
 18a:	0000                	c.unimp
 18c:	03b0                	c.addi4spn	a2,sp,456
 18e:	0000                	c.unimp
 190:	001c                	.2byte	0x1c
 192:	0000                	c.unimp
 194:	0e44                	c.addi4spn	s1,sp,788
 196:	5410                	c.lw	a2,40(s0)
 198:	000e                	c.slli	zero,0x3
 19a:	0000                	c.unimp
 19c:	000c                	.2byte	0xc
 19e:	0000                	c.unimp
 1a0:	ffffffff          	.4byte	0xffffffff
 1a4:	7c010003          	lb	zero,1984(sp)
 1a8:	0d01                	c.addi	s10,0
 1aa:	0002                	c.slli64	zero
 1ac:	0014                	.2byte	0x14
 1ae:	0000                	c.unimp
 1b0:	019c                	c.addi4spn	a5,sp,192
 1b2:	0000                	c.unimp
 1b4:	03cc                	c.addi4spn	a1,sp,452
 1b6:	0000                	c.unimp
 1b8:	0044                	c.addi4spn	s1,sp,4
 1ba:	0000                	c.unimp
 1bc:	0e44                	c.addi4spn	s1,sp,788
 1be:	7c20                	.2byte	0x7c20
 1c0:	000e                	c.slli	zero,0x3
 1c2:	0000                	c.unimp
 1c4:	0014                	.2byte	0x14
 1c6:	0000                	c.unimp
 1c8:	019c                	c.addi4spn	a5,sp,192
 1ca:	0000                	c.unimp
 1cc:	0410                	c.addi4spn	a2,sp,512
 1ce:	0000                	c.unimp
 1d0:	0074                	c.addi4spn	a3,sp,12
 1d2:	0000                	c.unimp
 1d4:	0e44                	c.addi4spn	s1,sp,788
 1d6:	0220                	c.addi4spn	s0,sp,264
 1d8:	0e6c                	c.addi4spn	a1,sp,796
 1da:	0000                	c.unimp
 1dc:	000c                	.2byte	0xc
 1de:	0000                	c.unimp
 1e0:	019c                	c.addi4spn	a5,sp,192
 1e2:	0000                	c.unimp
 1e4:	0484                	c.addi4spn	s1,sp,576
 1e6:	0000                	c.unimp
 1e8:	0010                	.2byte	0x10
 1ea:	0000                	c.unimp
 1ec:	000c                	.2byte	0xc
 1ee:	0000                	c.unimp
 1f0:	019c                	c.addi4spn	a5,sp,192
 1f2:	0000                	c.unimp
 1f4:	0494                	c.addi4spn	a3,sp,576
 1f6:	0000                	c.unimp
 1f8:	000c                	.2byte	0xc
 1fa:	0000                	c.unimp
 1fc:	0018                	.2byte	0x18
 1fe:	0000                	c.unimp
 200:	019c                	c.addi4spn	a5,sp,192
 202:	0000                	c.unimp
 204:	04a0                	c.addi4spn	s0,sp,584
 206:	0000                	c.unimp
 208:	0048                	c.addi4spn	a0,sp,4
 20a:	0000                	c.unimp
 20c:	0e44                	c.addi4spn	s1,sp,788
 20e:	4430                	c.lw	a2,72(s0)
 210:	0181                	c.addi	gp,0 # 0x2498 <__global_pointer$>
 212:	3802                	.2byte	0x3802
 214:	44c1                	c.li	s1,16
 216:	000e                	c.slli	zero,0x3
 218:	0018                	.2byte	0x18
 21a:	0000                	c.unimp
 21c:	019c                	c.addi4spn	a5,sp,192
 21e:	0000                	c.unimp
 220:	04e8                	c.addi4spn	a0,sp,588
 222:	0000                	c.unimp
 224:	003c                	c.addi4spn	a5,sp,8
 226:	0000                	c.unimp
 228:	0e44                	c.addi4spn	s1,sp,788
 22a:	4420                	c.lw	s0,72(s0)
 22c:	0181                	c.addi	gp,0 # 0x2498 <__global_pointer$>
 22e:	c16c                	c.sw	a1,68(a0)
 230:	0e44                	c.addi4spn	s1,sp,788
 232:	0000                	c.unimp
 234:	0058                	c.addi4spn	a4,sp,4
 236:	0000                	c.unimp
 238:	019c                	c.addi4spn	a5,sp,192
 23a:	0000                	c.unimp
 23c:	0524                	c.addi4spn	s1,sp,648
 23e:	0000                	c.unimp
 240:	0200                	c.addi4spn	s0,sp,256
 242:	0000                	c.unimp
 244:	0e44                	c.addi4spn	s1,sp,788
 246:	0270                	c.addi4spn	a2,sp,268
 248:	8140                	exec.it	#544     !
 24a:	8501                	c.srai64	a0
 24c:	8602                	c.jr	a2
 24e:	8a048703          	lb	a4,-1888(s1)
 252:	8b05                	c.andi	a4,1
 254:	8c06                	c.mv	s8,ra
 256:	8e088d07          	.4byte	0x8e088d07
 25a:	8f09                	c.sub	a4,a0
 25c:	900a                	c.add	zero,sp
 25e:	9c0c910b          	addigp	sp,-73280 # 0xffff0658 <boot_loader+0x7fff0658>
 262:	9d0d                	.2byte	0x9d0d
 264:	9e0e                	c.add	t3,gp
 266:	03109f0f          	.4byte	0x3109f0f
 26a:	0178                	c.addi4spn	a4,sp,140
 26c:	44c1                	c.li	s1,16
 26e:	44c5                	c.li	s1,17
 270:	44c6                	c.lwsp	s1,80(sp)
 272:	44ca44c7          	.4byte	0x44ca44c7
 276:	44cc44cb          	.4byte	0x44cc44cb
 27a:	44cd                	c.li	s1,19
 27c:	44ce                	c.lwsp	s1,208(sp)
 27e:	44d044cf          	.4byte	0x44d044cf
 282:	44d1                	c.li	s1,20
 284:	44dc                	c.lw	a5,12(s1)
 286:	44dd                	c.li	s1,23
 288:	44de                	c.lwsp	s1,212(sp)
 28a:	44df 000e 0000      	.byte	0xdf, 0x44, 0x0e, 0x00, 0x00, 0x00
 290:	000c                	.2byte	0xc
 292:	0000                	c.unimp
 294:	ffffffff          	.4byte	0xffffffff
 298:	7c010003          	lb	zero,1984(sp)
 29c:	0d01                	c.addi	s10,0
 29e:	0002                	c.slli64	zero
 2a0:	0014                	.2byte	0x14
 2a2:	0000                	c.unimp
 2a4:	0290                	c.addi4spn	a2,sp,320
 2a6:	0000                	c.unimp
 2a8:	0724                	c.addi4spn	s1,sp,904
 2aa:	0000                	c.unimp
 2ac:	0044                	c.addi4spn	s1,sp,4
 2ae:	0000                	c.unimp
 2b0:	0e44                	c.addi4spn	s1,sp,788
 2b2:	7c20                	.2byte	0x7c20
 2b4:	000e                	c.slli	zero,0x3
 2b6:	0000                	c.unimp
 2b8:	0014                	.2byte	0x14
 2ba:	0000                	c.unimp
 2bc:	0290                	c.addi4spn	a2,sp,320
 2be:	0000                	c.unimp
 2c0:	0768                	c.addi4spn	a0,sp,908
 2c2:	0000                	c.unimp
 2c4:	0074                	c.addi4spn	a3,sp,12
 2c6:	0000                	c.unimp
 2c8:	0e44                	c.addi4spn	s1,sp,788
 2ca:	0220                	c.addi4spn	s0,sp,264
 2cc:	0e6c                	c.addi4spn	a1,sp,796
 2ce:	0000                	c.unimp
 2d0:	000c                	.2byte	0xc
 2d2:	0000                	c.unimp
 2d4:	0290                	c.addi4spn	a2,sp,320
 2d6:	0000                	c.unimp
 2d8:	07dc                	c.addi4spn	a5,sp,964
 2da:	0000                	c.unimp
 2dc:	0040                	c.addi4spn	s0,sp,4
 2de:	0000                	c.unimp
 2e0:	0018                	.2byte	0x18
 2e2:	0000                	c.unimp
 2e4:	0290                	c.addi4spn	a2,sp,320
 2e6:	0000                	c.unimp
 2e8:	081c                	c.addi4spn	a5,sp,16
 2ea:	0000                	c.unimp
 2ec:	0040                	c.addi4spn	s0,sp,4
 2ee:	0000                	c.unimp
 2f0:	0e44                	c.addi4spn	s1,sp,788
 2f2:	4420                	c.lw	s0,72(s0)
 2f4:	0181                	c.addi	gp,0 # 0x2498 <__global_pointer$>
 2f6:	3002                	.2byte	0x3002
 2f8:	44c1                	c.li	s1,16
 2fa:	000e                	c.slli	zero,0x3
 2fc:	0014                	.2byte	0x14
 2fe:	0000                	c.unimp
 300:	0290                	c.addi4spn	a2,sp,320
 302:	0000                	c.unimp
 304:	085c                	c.addi4spn	a5,sp,20
 306:	0000                	c.unimp
 308:	0070                	c.addi4spn	a2,sp,12
 30a:	0000                	c.unimp
 30c:	0e44                	c.addi4spn	s1,sp,788
 30e:	0210                	c.addi4spn	a2,sp,256
 310:	0e68                	c.addi4spn	a0,sp,796
 312:	0000                	c.unimp
 314:	000c                	.2byte	0xc
 316:	0000                	c.unimp
 318:	ffffffff          	.4byte	0xffffffff
 31c:	7c010003          	lb	zero,1984(sp)
 320:	0d01                	c.addi	s10,0
 322:	0002                	c.slli64	zero
 324:	0014                	.2byte	0x14
 326:	0000                	c.unimp
 328:	0314                	c.addi4spn	a3,sp,384
 32a:	0000                	c.unimp
 32c:	08cc                	c.addi4spn	a1,sp,84
 32e:	0000                	c.unimp
 330:	0044                	c.addi4spn	s1,sp,4
 332:	0000                	c.unimp
 334:	0e44                	c.addi4spn	s1,sp,788
 336:	7c20                	.2byte	0x7c20
 338:	000e                	c.slli	zero,0x3
 33a:	0000                	c.unimp
 33c:	0014                	.2byte	0x14
 33e:	0000                	c.unimp
 340:	0314                	c.addi4spn	a3,sp,384
 342:	0000                	c.unimp
 344:	0910                	c.addi4spn	a2,sp,144
 346:	0000                	c.unimp
 348:	0074                	c.addi4spn	a3,sp,12
 34a:	0000                	c.unimp
 34c:	0e44                	c.addi4spn	s1,sp,788
 34e:	0220                	c.addi4spn	s0,sp,264
 350:	0e6c                	c.addi4spn	a1,sp,796
 352:	0000                	c.unimp
 354:	0018                	.2byte	0x18
 356:	0000                	c.unimp
 358:	0314                	c.addi4spn	a3,sp,384
 35a:	0000                	c.unimp
 35c:	0984                	c.addi4spn	s1,sp,208
 35e:	0000                	c.unimp
 360:	0020                	c.addi4spn	s0,sp,8
 362:	0000                	c.unimp
 364:	0e44                	c.addi4spn	s1,sp,788
 366:	4410                	c.lw	a2,8(s0)
 368:	0181                	c.addi	gp,0 # 0x2498 <__global_pointer$>
 36a:	c150                	c.sw	a2,4(a0)
 36c:	0e44                	c.addi4spn	s1,sp,788
 36e:	0000                	c.unimp
 370:	0018                	.2byte	0x18
 372:	0000                	c.unimp
 374:	0314                	c.addi4spn	a3,sp,384
 376:	0000                	c.unimp
 378:	09a4                	c.addi4spn	s1,sp,216
 37a:	0000                	c.unimp
 37c:	0074                	c.addi4spn	a3,sp,12
 37e:	0000                	c.unimp
 380:	0e44                	c.addi4spn	s1,sp,788
 382:	4430                	c.lw	a2,72(s0)
 384:	0181                	c.addi	gp,0 # 0x2498 <__global_pointer$>
 386:	6402                	.2byte	0x6402
 388:	44c1                	c.li	s1,16
 38a:	000e                	c.slli	zero,0x3
 38c:	000c                	.2byte	0xc
 38e:	0000                	c.unimp
 390:	ffffffff          	.4byte	0xffffffff
 394:	7c010003          	lb	zero,1984(sp)
 398:	0d01                	c.addi	s10,0
 39a:	0002                	c.slli64	zero
 39c:	0014                	.2byte	0x14
 39e:	0000                	c.unimp
 3a0:	038c                	c.addi4spn	a1,sp,448
 3a2:	0000                	c.unimp
 3a4:	0a18                	c.addi4spn	a4,sp,272
 3a6:	0000                	c.unimp
 3a8:	0044                	c.addi4spn	s1,sp,4
 3aa:	0000                	c.unimp
 3ac:	0e44                	c.addi4spn	s1,sp,788
 3ae:	7c20                	.2byte	0x7c20
 3b0:	000e                	c.slli	zero,0x3
 3b2:	0000                	c.unimp
 3b4:	0014                	.2byte	0x14
 3b6:	0000                	c.unimp
 3b8:	038c                	c.addi4spn	a1,sp,448
 3ba:	0000                	c.unimp
 3bc:	0a5c                	c.addi4spn	a5,sp,276
 3be:	0000                	c.unimp
 3c0:	0074                	c.addi4spn	a3,sp,12
 3c2:	0000                	c.unimp
 3c4:	0e44                	c.addi4spn	s1,sp,788
 3c6:	0220                	c.addi4spn	s0,sp,264
 3c8:	0e6c                	c.addi4spn	a1,sp,796
 3ca:	0000                	c.unimp
 3cc:	0014                	.2byte	0x14
 3ce:	0000                	c.unimp
 3d0:	038c                	c.addi4spn	a1,sp,448
 3d2:	0000                	c.unimp
 3d4:	0ad0                	c.addi4spn	a2,sp,340
 3d6:	0000                	c.unimp
 3d8:	009c                	c.addi4spn	a5,sp,64
 3da:	0000                	c.unimp
 3dc:	0e44                	c.addi4spn	s1,sp,788
 3de:	0210                	c.addi4spn	a2,sp,256
 3e0:	0e94                	c.addi4spn	a3,sp,848
 3e2:	0000                	c.unimp
 3e4:	000c                	.2byte	0xc
 3e6:	0000                	c.unimp
 3e8:	038c                	c.addi4spn	a1,sp,448
 3ea:	0000                	c.unimp
 3ec:	0b6c                	c.addi4spn	a1,sp,412
 3ee:	0000                	c.unimp
 3f0:	0024                	c.addi4spn	s1,sp,8
 3f2:	0000                	c.unimp
 3f4:	0014                	.2byte	0x14
 3f6:	0000                	c.unimp
 3f8:	038c                	c.addi4spn	a1,sp,448
 3fa:	0000                	c.unimp
 3fc:	0b90                	c.addi4spn	a2,sp,464
 3fe:	0000                	c.unimp
 400:	0034                	c.addi4spn	a3,sp,8
 402:	0000                	c.unimp
 404:	0e44                	c.addi4spn	s1,sp,788
 406:	6c10                	.2byte	0x6c10
 408:	000e                	c.slli	zero,0x3
 40a:	0000                	c.unimp
 40c:	0018                	.2byte	0x18
 40e:	0000                	c.unimp
 410:	038c                	c.addi4spn	a1,sp,448
 412:	0000                	c.unimp
 414:	0bc4                	c.addi4spn	s1,sp,468
 416:	0000                	c.unimp
 418:	0074                	c.addi4spn	a3,sp,12
 41a:	0000                	c.unimp
 41c:	0e44                	c.addi4spn	s1,sp,788
 41e:	4430                	c.lw	a2,72(s0)
 420:	0181                	c.addi	gp,0 # 0x2498 <__global_pointer$>
 422:	6402                	.2byte	0x6402
 424:	44c1                	c.li	s1,16
 426:	000e                	c.slli	zero,0x3
 428:	0018                	.2byte	0x18
 42a:	0000                	c.unimp
 42c:	038c                	c.addi4spn	a1,sp,448
 42e:	0000                	c.unimp
 430:	0c38                	c.addi4spn	a4,sp,536
 432:	0000                	c.unimp
 434:	003c                	c.addi4spn	a5,sp,8
 436:	0000                	c.unimp
 438:	0e44                	c.addi4spn	s1,sp,788
 43a:	4420                	c.lw	s0,72(s0)
 43c:	0181                	c.addi	gp,0 # 0x2498 <__global_pointer$>
 43e:	c16c                	c.sw	a1,68(a0)
 440:	0e44                	c.addi4spn	s1,sp,788
 442:	0000                	c.unimp
 444:	000c                	.2byte	0xc
 446:	0000                	c.unimp
 448:	ffffffff          	.4byte	0xffffffff
 44c:	7c010003          	lb	zero,1984(sp)
 450:	0d01                	c.addi	s10,0
 452:	0002                	c.slli64	zero
 454:	0014                	.2byte	0x14
 456:	0000                	c.unimp
 458:	0444                	c.addi4spn	s1,sp,516
 45a:	0000                	c.unimp
 45c:	0c74                	c.addi4spn	a3,sp,540
 45e:	0000                	c.unimp
 460:	0044                	c.addi4spn	s1,sp,4
 462:	0000                	c.unimp
 464:	0e44                	c.addi4spn	s1,sp,788
 466:	7c20                	.2byte	0x7c20
 468:	000e                	c.slli	zero,0x3
 46a:	0000                	c.unimp
 46c:	0014                	.2byte	0x14
 46e:	0000                	c.unimp
 470:	0444                	c.addi4spn	s1,sp,516
 472:	0000                	c.unimp
 474:	0cb8                	c.addi4spn	a4,sp,600
 476:	0000                	c.unimp
 478:	0074                	c.addi4spn	a3,sp,12
 47a:	0000                	c.unimp
 47c:	0e44                	c.addi4spn	s1,sp,788
 47e:	0220                	c.addi4spn	s0,sp,264
 480:	0e6c                	c.addi4spn	a1,sp,796
 482:	0000                	c.unimp
 484:	000c                	.2byte	0xc
 486:	0000                	c.unimp
 488:	0444                	c.addi4spn	s1,sp,516
 48a:	0000                	c.unimp
 48c:	0d2c                	c.addi4spn	a1,sp,664
 48e:	0000                	c.unimp
 490:	000c                	.2byte	0xc
 492:	0000                	c.unimp
 494:	0014                	.2byte	0x14
 496:	0000                	c.unimp
 498:	0444                	c.addi4spn	s1,sp,516
 49a:	0000                	c.unimp
 49c:	0d38                	c.addi4spn	a4,sp,664
 49e:	0000                	c.unimp
 4a0:	0060                	c.addi4spn	s0,sp,12
 4a2:	0000                	c.unimp
 4a4:	0e44                	c.addi4spn	s1,sp,788
 4a6:	0210                	c.addi4spn	a2,sp,256
 4a8:	0e58                	c.addi4spn	a4,sp,788
 4aa:	0000                	c.unimp
 4ac:	001c                	.2byte	0x1c
 4ae:	0000                	c.unimp
 4b0:	0444                	c.addi4spn	s1,sp,516
 4b2:	0000                	c.unimp
 4b4:	0d98                	c.addi4spn	a4,sp,720
 4b6:	0000                	c.unimp
 4b8:	006c                	c.addi4spn	a1,sp,12
 4ba:	0000                	c.unimp
 4bc:	0e44                	c.addi4spn	s1,sp,788
 4be:	4810                	c.lw	a2,16(s0)
 4c0:	0181                	c.addi	gp,0 # 0x2498 <__global_pointer$>
 4c2:	0288                	c.addi4spn	a0,sp,320
 4c4:	5402                	c.lwsp	s0,32(sp)
 4c6:	44c1                	c.li	s1,16
 4c8:	44c8                	c.lw	a0,12(s1)
 4ca:	000e                	c.slli	zero,0x3
 4cc:	0014                	.2byte	0x14
 4ce:	0000                	c.unimp
 4d0:	0444                	c.addi4spn	s1,sp,516
 4d2:	0000                	c.unimp
 4d4:	0e04                	c.addi4spn	s1,sp,784
 4d6:	0000                	c.unimp
 4d8:	0044                	c.addi4spn	s1,sp,4
 4da:	0000                	c.unimp
 4dc:	0e44                	c.addi4spn	s1,sp,788
 4de:	7c10                	.2byte	0x7c10
 4e0:	000e                	c.slli	zero,0x3
 4e2:	0000                	c.unimp
 4e4:	000c                	.2byte	0xc
 4e6:	0000                	c.unimp
 4e8:	ffffffff          	.4byte	0xffffffff
 4ec:	7c010003          	lb	zero,1984(sp)
 4f0:	0d01                	c.addi	s10,0
 4f2:	0002                	c.slli64	zero
 4f4:	000c                	.2byte	0xc
 4f6:	0000                	c.unimp
 4f8:	04e4                	c.addi4spn	s1,sp,588
 4fa:	0000                	c.unimp
 4fc:	0000                	c.unimp
 4fe:	8000                	exec.it	#0     !
 500:	0078                	c.addi4spn	a4,sp,12
 502:	0000                	c.unimp
 504:	000c                	.2byte	0xc
 506:	0000                	c.unimp
 508:	04e4                	c.addi4spn	s1,sp,588
 50a:	0000                	c.unimp
 50c:	0000                	c.unimp
 50e:	0ff0                	c.addi4spn	a2,sp,988
 510:	0074                	c.addi4spn	a3,sp,12
	...

Disassembly of section .debug_str:

00000000 <.debug_str>:
       0:	5f5f 646e 5f73      	.byte	0x5f, 0x5f, 0x6e, 0x64, 0x73, 0x5f
       6:	725f 746f 0072      	.byte	0x5f, 0x72, 0x6f, 0x74, 0x72, 0x00
       c:	6d61                	c.lui	s10,0x18
       e:	6e696d6f          	jal	s10,0x966f4 <__global_pointer$+0x9425c>
      12:	75665f77          	.4byte	0x75665f77
      16:	636e                	.2byte	0x636e
      18:	4100                	c.lw	s0,0(a0)
      1a:	49555143          	.4byte	0x49555143
      1e:	4552                	c.lwsp	a0,20(sp)
      20:	6100                	.2byte	0x6100
      22:	6f6d                	c.lui	t5,0x1b
      24:	5f77726f          	jal	tp,0x77e1a <__global_pointer$+0x75982>
      28:	7566                	.2byte	0x7566
      2a:	636e                	.2byte	0x636e
      2c:	6f00                	.2byte	0x6f00
      2e:	646c                	.2byte	0x646c
      30:	0076                	c.slli	zero,0x1d
      32:	6972                	.2byte	0x6972
      34:	5f766373          	csrrsi	t1,0x5f7,12
      38:	6564726f          	jal	tp,0x4768e <__global_pointer$+0x451f6>
      3c:	0072                	c.slli	zero,0x1c
      3e:	6175                	c.addi16sp	sp,368
      40:	7472                	.2byte	0x7472
      42:	695f 696e 0074      	.byte	0x5f, 0x69, 0x6e, 0x69, 0x74, 0x00
      48:	76706d63          	bltu	zero,t2,0x7c2 <__nds__wsbh+0x5a>
      4c:	6c00                	.2byte	0x6c00
      4e:	20676e6f          	jal	t3,0x76254 <__global_pointer$+0x73dbc>
      52:	6f6c                	.2byte	0x6f6c
      54:	676e                	.2byte	0x676e
      56:	6920                	.2byte	0x6920
      58:	746e                	.2byte	0x746e
      5a:	5200                	c.lw	s0,32(a2)
      5c:	4c45                	c.li	s8,17
      5e:	4145                	c.li	sp,17
      60:	61004553          	.4byte	0x61004553
      64:	6f6d                	c.lui	t5,0x1b
      66:	616d                	c.addi16sp	sp,240
      68:	7578                	.2byte	0x7578
      6a:	75665f77          	.4byte	0x75665f77
      6e:	636e                	.2byte	0x636e
      70:	7800                	.2byte	0x7800
      72:	0076726f          	jal	tp,0x67878 <__global_pointer$+0x653e0>
      76:	726f6873          	csrrsi	a6,mhpmevent6h,30
      7a:	2074                	.2byte	0x2074
      7c:	6e75                	c.lui	t3,0x1d
      7e:	6e676973          	csrrsi	s2,0x6e6,14
      82:	6465                	c.lui	s0,0x19
      84:	6920                	.2byte	0x6920
      86:	746e                	.2byte	0x746e
      88:	6100                	.2byte	0x6100
      8a:	6464                	.2byte	0x6464
      8c:	0076                	c.slli	zero,0x1d
      8e:	6d61                	c.lui	s10,0x18
      90:	78616d6f          	jal	s10,0x16816 <__global_pointer$+0x1437e>
      94:	75665f77          	.4byte	0x75665f77
      98:	636e                	.2byte	0x636e
      9a:	7500                	.2byte	0x7500
      9c:	736e                	.2byte	0x736e
      9e:	6769                	c.lui	a4,0x1a
      a0:	656e                	.2byte	0x656e
      a2:	2064                	.2byte	0x2064
      a4:	72616863          	bltu	sp,t1,0x7d4 <__nds__wsbh+0x6c>
      a8:	6d00                	.2byte	0x6d00
      aa:	6961                	c.lui	s2,0x18
      ac:	006e                	c.slli	zero,0x1b
      ae:	6d61                	c.lui	s10,0x18
      b0:	6464616f          	jal	sp,0x466f6 <__global_pointer$+0x4425e>
      b4:	75665f77          	.4byte	0x75665f77
      b8:	636e                	.2byte	0x636e
      ba:	5f00                	c.lw	s0,56(a4)
      bc:	6e5f 7364 5f5f      	.byte	0x5f, 0x6e, 0x64, 0x73, 0x5f, 0x5f
      c2:	68627377          	.4byte	0x68627377
      c6:	6e00                	.2byte	0x6e00
      c8:	7765                	c.lui	a4,0xffff9
      ca:	0076                	c.slli	zero,0x1d
      cc:	6d61                	c.lui	s10,0x18
      ce:	726f786f          	jal	a6,0xf77f4 <__global_pointer$+0xf535c>
      d2:	75665f77          	.4byte	0x75665f77
      d6:	636e                	.2byte	0x636e
      d8:	6c00                	.2byte	0x6c00
      da:	20676e6f          	jal	t3,0x762e0 <__global_pointer$+0x73e48>
      de:	6f6c                	.2byte	0x6f6c
      e0:	676e                	.2byte	0x676e
      e2:	7520                	.2byte	0x7520
      e4:	736e                	.2byte	0x736e
      e6:	6769                	c.lui	a4,0x1a
      e8:	656e                	.2byte	0x656e
      ea:	2064                	.2byte	0x2064
      ec:	6e69                	c.lui	t3,0x1a
      ee:	0074                	c.addi4spn	a3,sp,12
      f0:	6568                	.2byte	0x6568
      f2:	6c6c                	.2byte	0x6c6c
      f4:	6f775f6f          	jal	t5,0x75fea <__global_pointer$+0x73b52>
      f8:	6c72                	.2byte	0x6c72
      fa:	2e64                	.2byte	0x2e64
      fc:	6d610063          	beq	sp,s6,0x7bc <__nds__wsbh+0x54>
     100:	6e696d6f          	jal	s10,0x967e6 <__global_pointer$+0x9434e>
     104:	7775                	c.lui	a4,0xffffd
     106:	665f 6e75 0063      	.byte	0x5f, 0x66, 0x75, 0x6e, 0x63, 0x00
     10c:	6d61                	c.lui	s10,0x18
     10e:	646e616f          	jal	sp,0xe6754 <__global_pointer$+0xe42bc>
     112:	75665f77          	.4byte	0x75665f77
     116:	636e                	.2byte	0x636e
     118:	5500                	c.lw	s0,40(a0)
     11a:	4f4e                	c.lwsp	t5,208(sp)
     11c:	4452                	c.lwsp	s0,20(sp)
     11e:	5245                	c.li	tp,-15
     120:	7000                	.2byte	0x7000
     122:	6972                	.2byte	0x6972
     124:	746e                	.2byte	0x746e
     126:	0066                	c.slli	zero,0x19
     128:	55514553          	.4byte	0x55514553
     12c:	4e45                	c.li	t3,17
     12e:	4954                	c.lw	a3,20(a0)
     130:	4c41                	c.li	s8,16
     132:	7300                	.2byte	0x7300
     134:	6f68                	.2byte	0x6f68
     136:	7472                	.2byte	0x7472
     138:	6920                	.2byte	0x6920
     13a:	746e                	.2byte	0x746e
     13c:	6100                	.2byte	0x6100
     13e:	6f6d                	c.lui	t5,0x1b
     140:	70617773          	csrrci	a4,0x706,2
     144:	75665f77          	.4byte	0x75665f77
     148:	636e                	.2byte	0x636e
     14a:	6100                	.2byte	0x6100
     14c:	646e                	.2byte	0x646e
     14e:	0076                	c.slli	zero,0x1d
     150:	6d6f682f          	.4byte	0x6d6f682f
     154:	2f65                	c.jal	0x90c <__nds__rotr+0x40>
     156:	33646f63          	bltu	s0,s6,0x494 <mswi_handler>
     15a:	2f72                	.2byte	0x2f72
     15c:	6144                	.2byte	0x6144
     15e:	6174                	.2byte	0x6174
     160:	656c452f          	.4byte	0x656c452f
     164:	6f72746b          	.4byte	0x6f72746b
     168:	696e                	.2byte	0x696e
     16a:	762f616b          	.4byte	0x762f616b
     16e:	6468                	.2byte	0x6468
     170:	5f6c                	c.lw	a1,124(a4)
     172:	6c70                	.2byte	0x6c70
     174:	7961                	c.lui	s2,0xffff8
     176:	756f7267          	.4byte	0x756f7267
     17a:	646e                	.2byte	0x646e
     17c:	67656d2f          	.4byte	0x67656d2f
     180:	3161                	c.jal	0xfffffe08 <boot_loader+0x7ffffe08>
     182:	2f6b3833          	.4byte	0x2f6b3833
     186:	7270                	.2byte	0x7270
     188:	63656a6f          	jal	s4,0x567be <__global_pointer$+0x54326>
     18c:	3274                	.2byte	0x3274
     18e:	615f 3365 3035      	.byte	0x5f, 0x61, 0x65, 0x33, 0x35, 0x30
     194:	725f 7369 5f63      	.byte	0x5f, 0x72, 0x69, 0x73, 0x63, 0x5f
     19a:	6f697067          	.4byte	0x6f697067
     19e:	5f77732f          	.4byte	0x5f77732f
     1a2:	7461                	c.lui	s0,0xffff8
     1a4:	63696d6f          	jal	s10,0x967da <__global_pointer$+0x94342>
     1a8:	665f 616c 6873      	.byte	0x5f, 0x66, 0x6c, 0x61, 0x73, 0x68
     1ae:	6c00                	.2byte	0x6c00
     1b0:	20676e6f          	jal	t3,0x763b6 <__global_pointer$+0x73f1e>
     1b4:	6f64                	.2byte	0x6f64
     1b6:	6275                	c.lui	tp,0x1d
     1b8:	656c                	.2byte	0x656c
     1ba:	4700                	c.lw	s0,8(a4)
     1bc:	554e                	c.lwsp	a0,240(sp)
     1be:	4320                	c.lw	s0,64(a4)
     1c0:	3731                	c.jal	0xcc <__nds__wsbh+0x48>
     1c2:	3120                	.2byte	0x3120
     1c4:	2e32                	.2byte	0x2e32
     1c6:	2e32                	.2byte	0x2e32
     1c8:	2030                	.2byte	0x2030
     1ca:	6d2d                	c.lui	s10,0xb
     1cc:	7461                	c.lui	s0,0xffff8
     1ce:	63696d6f          	jal	s10,0x96804 <__global_pointer$+0x9436c>
     1d2:	2d20                	.2byte	0x2d20
     1d4:	746d                	c.lui	s0,0xffffb
     1d6:	6e75                	c.lui	t3,0x1d
     1d8:	3d65                	c.jal	0x90 <__nds__wsbh+0xc>
     1da:	6e61                	c.lui	t3,0x18
     1dc:	6564                	.2byte	0x6564
     1de:	35322d73          	csrrs	s10,0x353,tp
     1e2:	732d                	c.lui	t1,0xfffeb
     1e4:	7265                	c.lui	tp,0xffff9
     1e6:	6569                	c.lui	a0,0x1a
     1e8:	6d2d2073          	csrs	0x6d2,s10
     1ec:	6261                	c.lui	tp,0x18
     1ee:	3d69                	c.jal	0x88 <__nds__wsbh+0x4>
     1f0:	6c69                	c.lui	s8,0x1a
     1f2:	3370                	.2byte	0x3370
     1f4:	2032                	.2byte	0x2032
     1f6:	6d2d                	c.lui	s10,0xb
     1f8:	7369                	c.lui	t1,0xffffa
     1fa:	2d61                	c.jal	0x892 <system_init+0x36>
     1fc:	63657073          	csrci	0x636,10
     200:	323d                	c.jal	0xfffffb2e <boot_loader+0x7ffffb2e>
     202:	322e                	.2byte	0x322e
     204:	2d20                	.2byte	0x2d20
     206:	616d                	c.addi16sp	sp,240
     208:	6372                	.2byte	0x6372
     20a:	3d68                	.2byte	0x3d68
     20c:	7672                	.2byte	0x7672
     20e:	32693233          	.4byte	0x32693233
     212:	3070                	.2byte	0x3070
     214:	6d5f 7032 5f30      	.byte	0x5f, 0x6d, 0x32, 0x70, 0x30, 0x5f
     21a:	3261                	c.jal	0xfffffba2 <boot_loader+0x7ffffba2>
     21c:	3070                	.2byte	0x3070
     21e:	785f 6e61 6564      	.byte	0x5f, 0x78, 0x61, 0x6e, 0x64, 0x65
     224:	30703573          	csrrc	a0,mtvt,zero
     228:	2d20                	.2byte	0x2d20
     22a:	662d2067          	.4byte	0x662d2067
     22e:	6f6e                	.2byte	0x6f6e
     230:	6d2d                	c.lui	s10,0xb
     232:	7461                	c.lui	s0,0xffff8
     234:	2d68                	.2byte	0x2d68
     236:	7265                	c.lui	tp,0xffff9
     238:	6e72                	.2byte	0x6e72
     23a:	662d206f          	j	0xd289c <__global_pointer$+0xd0404>
     23e:	656d                	c.lui	a0,0x1b
     240:	67617373          	csrrci	t1,0x676,2
     244:	2d65                	c.jal	0x8fc <__nds__rotr+0x30>
     246:	656c                	.2byte	0x656c
     248:	676e                	.2byte	0x676e
     24a:	6874                	.2byte	0x6874
     24c:	303d                	c.jal	0xfffffa7a <boot_loader+0x7ffffa7a>
     24e:	2d20                	.2byte	0x2d20
     250:	6f66                	.2byte	0x6f66
     252:	696d                	c.lui	s2,0x1b
     254:	2d74                	.2byte	0x2d74
     256:	7266                	.2byte	0x7266
     258:	6d61                	c.lui	s10,0x18
     25a:	2d65                	c.jal	0x912 <__nds__wsbh+0x2>
     25c:	6f70                	.2byte	0x6f70
     25e:	6e69                	c.lui	t3,0x1a
     260:	6574                	.2byte	0x6574
     262:	2072                	.2byte	0x2072
     264:	662d                	c.lui	a2,0xb
     266:	6f6e                	.2byte	0x6f6e
     268:	732d                	c.lui	t1,0xfffeb
     26a:	7274                	.2byte	0x7274
     26c:	6369                	c.lui	t1,0x1a
     26e:	2d74                	.2byte	0x2d74
     270:	6c61                	c.lui	s8,0x18
     272:	6169                	c.addi16sp	sp,208
     274:	676e6973          	csrrsi	s2,0x676,28
     278:	2d20                	.2byte	0x2d20
     27a:	6e66                	.2byte	0x6e66
     27c:	75622d6f          	jal	s10,0x229d2 <__global_pointer$+0x2053a>
     280:	6c69                	c.lui	s8,0x1a
     282:	6974                	.2byte	0x6974
     284:	006e                	c.slli	zero,0x1b
     286:	6572                	.2byte	0x6572
     288:	5f746573          	csrrsi	a0,0x5f7,8
     28c:	6168                	.2byte	0x6168
     28e:	646e                	.2byte	0x646e
     290:	656c                	.2byte	0x656c
     292:	0072                	c.slli	zero,0x1c
     294:	7362                	.2byte	0x7362
     296:	2f70                	.2byte	0x2f70
     298:	6561                	c.lui	a0,0x18
     29a:	2f303533          	.4byte	0x2f303533
     29e:	6572                	.2byte	0x6572
     2a0:	2e746573          	csrrsi	a0,0x2e7,8
     2a4:	72610063          	beq	sp,t1,0x9c4 <mext_interrupt+0x20>
     2a8:	5f003367          	.4byte	0x5f003367
     2ac:	645f 6f73 685f      	.byte	0x5f, 0x64, 0x73, 0x6f, 0x5f, 0x68
     2b2:	6e61                	c.lui	t3,0x18
     2b4:	6c64                	.2byte	0x6c64
     2b6:	0065                	c.nop	25
     2b8:	7261                	c.lui	tp,0xffff8
     2ba:	61003167          	.4byte	0x61003167
     2be:	6772                	.2byte	0x6772
     2c0:	0032                	c.slli	zero,0xc
     2c2:	74735f63          	bge	t1,t2,0xa20 <__nds__rotr+0x8>
     2c6:	7261                	c.lui	tp,0xffff8
     2c8:	7574                	.2byte	0x7574
     2ca:	0070                	c.addi4spn	a2,sp,12
     2cc:	74737973          	csrrci	s2,mseccfg,6
     2d0:	6d65                	c.lui	s10,0x19
     2d2:	695f 696e 0074      	.byte	0x5f, 0x69, 0x6e, 0x69, 0x74, 0x00
     2d8:	5f5f 7863 5f61      	.byte	0x5f, 0x5f, 0x63, 0x78, 0x61, 0x5f
     2de:	7461                	c.lui	s0,0xffff8
     2e0:	7865                	c.lui	a6,0xffff9
     2e2:	7469                	c.lui	s0,0xffffa
     2e4:	5f00                	c.lw	s0,56(a4)
     2e6:	6c5f 6269 5f63      	.byte	0x5f, 0x6c, 0x69, 0x62, 0x63, 0x5f
     2ec:	6e69                	c.lui	t3,0x1a
     2ee:	7469                	c.lui	s0,0xffffa
     2f0:	615f 7272 7961      	.byte	0x5f, 0x61, 0x72, 0x72, 0x61, 0x79
     2f6:	4e00                	c.lw	s0,24(a2)
     2f8:	5344                	c.lw	s1,36(a4)
     2fa:	535f 4f43 4e55      	.byte	0x5f, 0x53, 0x43, 0x4f, 0x55, 0x4e
     300:	4554                	c.lw	a3,12(a0)
     302:	4f52                	c.lwsp	t5,20(sp)
     304:	4656                	c.lwsp	a2,84(sp)
     306:	4e00                	c.lw	s0,24(a2)
     308:	5344                	c.lw	s1,36(a4)
     30a:	4d5f 5048 454d      	.byte	0x5f, 0x4d, 0x48, 0x50, 0x4d, 0x45
     310:	4556                	c.lwsp	a0,84(sp)
     312:	544e                	c.lwsp	s0,240(sp)
     314:	4e004833          	.4byte	0x4e004833
     318:	5344                	c.lw	s1,36(a4)
     31a:	4d5f 4e45 4356      	.byte	0x5f, 0x4d, 0x45, 0x4e, 0x56, 0x43
     320:	4746                	c.lwsp	a4,80(sp)
     322:	0048                	c.addi4spn	a0,sp,4
     324:	444e                	c.lwsp	s0,208(sp)
     326:	494d5f53          	.4byte	0x494d5f53
     32a:	0045                	c.nop	17
     32c:	444e                	c.lwsp	s0,208(sp)
     32e:	59435f53          	.4byte	0x59435f53
     332:	00454c43          	.4byte	0x454c43
     336:	444e                	c.lwsp	s0,208(sp)
     338:	494d5f53          	.4byte	0x494d5f53
     33c:	0050                	c.addi4spn	a2,sp,4
     33e:	444e                	c.lwsp	s0,208(sp)
     340:	444d5f53          	.4byte	0x444d5f53
     344:	435f4d43          	.4byte	0x435f4d43
     348:	4746                	c.lwsp	a4,80(sp)
     34a:	4e00                	c.lw	s0,24(a2)
     34c:	5344                	c.lw	s1,36(a4)
     34e:	4d5f 5453 5441      	.byte	0x5f, 0x4d, 0x53, 0x54, 0x41, 0x54
     354:	4545                	c.li	a0,17
     356:	314e                	.2byte	0x314e
     358:	0048                	c.addi4spn	a0,sp,4
     35a:	444e                	c.lwsp	s0,208(sp)
     35c:	524d5f53          	.4byte	0x524d5f53
     360:	4156                	c.lwsp	sp,84(sp)
     362:	4352                	c.lwsp	t1,20(sp)
     364:	5f48                	c.lw	a0,60(a4)
     366:	32474643          	.4byte	0x32474643
     36a:	4e00                	c.lw	s0,24(a2)
     36c:	5344                	c.lw	s1,36(a4)
     36e:	485f 4d50 4f43      	.byte	0x5f, 0x48, 0x50, 0x4d, 0x43, 0x4f
     374:	4e55                	c.li	t3,21
     376:	4554                	c.lw	a3,12(a0)
     378:	3152                	.2byte	0x3152
     37a:	4836                	c.lwsp	a6,76(sp)
     37c:	4e00                	c.lw	s0,24(a2)
     37e:	5344                	c.lw	s1,36(a4)
     380:	495f 4f43 4e55      	.byte	0x5f, 0x49, 0x43, 0x4f, 0x55, 0x4e
     386:	0054                	c.addi4spn	a3,sp,4
     388:	444e                	c.lwsp	s0,208(sp)
     38a:	434d5f53          	.4byte	0x434d5f53
     38e:	52544e4f          	.4byte	0x52544e4f
     392:	4e004c4f          	.4byte	0x4e004c4f
     396:	5344                	c.lw	s1,36(a4)
     398:	4d5f 5048 454d      	.byte	0x5f, 0x4d, 0x48, 0x50, 0x4d, 0x45
     39e:	4556                	c.lwsp	a0,84(sp)
     3a0:	544e                	c.lwsp	s0,240(sp)
     3a2:	4834                	c.lw	a3,80(s0)
     3a4:	4e00                	c.lw	s0,24(a2)
     3a6:	5344                	c.lw	s1,36(a4)
     3a8:	495f 534e 5254      	.byte	0x5f, 0x49, 0x4e, 0x53, 0x54, 0x52
     3ae:	5445                	c.li	s0,-15
     3b0:	4e00                	c.lw	s0,24(a2)
     3b2:	5344                	c.lw	s1,36(a4)
     3b4:	4d5f 5048 434d      	.byte	0x5f, 0x4d, 0x48, 0x50, 0x4d, 0x43
     3ba:	544e554f          	.4byte	0x544e554f
     3be:	5245                	c.li	tp,-15
     3c0:	4e004837          	lui	a6,0x4e004
     3c4:	5344                	c.lw	s1,36(a4)
     3c6:	4d5f 5349 0041      	.byte	0x5f, 0x4d, 0x49, 0x53, 0x41, 0x00
     3cc:	444e                	c.lwsp	s0,208(sp)
     3ce:	4d505f53          	.4byte	0x4d505f53
     3d2:	4141                	c.li	sp,16
     3d4:	4444                	c.lw	s1,12(s0)
     3d6:	3152                	.2byte	0x3152
     3d8:	4e00                	c.lw	s0,24(a2)
     3da:	5344                	c.lw	s1,36(a4)
     3dc:	485f 4d50 4f43      	.byte	0x5f, 0x48, 0x50, 0x4d, 0x43, 0x4f
     3e2:	4e55                	c.li	t3,21
     3e4:	4554                	c.lw	a3,12(a0)
     3e6:	3252                	.2byte	0x3252
     3e8:	0035                	c.nop	13
     3ea:	444e                	c.lwsp	s0,208(sp)
     3ec:	4d505f53          	.4byte	0x4d505f53
     3f0:	4141                	c.li	sp,16
     3f2:	4444                	c.lw	s1,12(s0)
     3f4:	3352                	.2byte	0x3352
     3f6:	4e00                	c.lw	s0,24(a2)
     3f8:	5344                	c.lw	s1,36(a4)
     3fa:	505f 414d 4441      	.byte	0x5f, 0x50, 0x4d, 0x41, 0x41, 0x44
     400:	5244                	c.lw	s1,36(a2)
     402:	0034                	c.addi4spn	a3,sp,8
     404:	444e                	c.lwsp	s0,208(sp)
     406:	4d505f53          	.4byte	0x4d505f53
     40a:	4141                	c.li	sp,16
     40c:	4444                	c.lw	s1,12(s0)
     40e:	3552                	.2byte	0x3552
     410:	4e00                	c.lw	s0,24(a2)
     412:	5344                	c.lw	s1,36(a4)
     414:	505f 414d 4441      	.byte	0x5f, 0x50, 0x4d, 0x41, 0x41, 0x44
     41a:	5244                	c.lw	s1,36(a2)
     41c:	0036                	c.slli	zero,0xd
     41e:	444e                	c.lwsp	s0,208(sp)
     420:	4d505f53          	.4byte	0x4d505f53
     424:	4141                	c.li	sp,16
     426:	4444                	c.lw	s1,12(s0)
     428:	3752                	.2byte	0x3752
     42a:	4e00                	c.lw	s0,24(a2)
     42c:	5344                	c.lw	s1,36(a4)
     42e:	505f 414d 4441      	.byte	0x5f, 0x50, 0x4d, 0x41, 0x41, 0x44
     434:	5244                	c.lw	s1,36(a2)
     436:	0038                	c.addi4spn	a4,sp,8
     438:	444e                	c.lwsp	s0,208(sp)
     43a:	4d505f53          	.4byte	0x4d505f53
     43e:	4141                	c.li	sp,16
     440:	4444                	c.lw	s1,12(s0)
     442:	3952                	.2byte	0x3952
     444:	4e00                	c.lw	s0,24(a2)
     446:	5344                	c.lw	s1,36(a4)
     448:	505f 504d 4441      	.byte	0x5f, 0x50, 0x4d, 0x50, 0x41, 0x44
     44e:	5244                	c.lw	s1,36(a2)
     450:	3832                	.2byte	0x3832
     452:	4e00                	c.lw	s0,24(a2)
     454:	5344                	c.lw	s1,36(a4)
     456:	4d5f 444e 5853      	.byte	0x5f, 0x4d, 0x4e, 0x44, 0x53, 0x58
     45c:	525f 4144 4154      	.byte	0x5f, 0x52, 0x44, 0x41, 0x54, 0x41
     462:	4e00                	c.lw	s0,24(a2)
     464:	5344                	c.lw	s1,36(a4)
     466:	4d5f 5453 5441      	.byte	0x5f, 0x4d, 0x53, 0x54, 0x41, 0x54
     46c:	4545                	c.li	a0,17
     46e:	324e                	.2byte	0x324e
     470:	0048                	c.addi4spn	a0,sp,4
     472:	444e                	c.lwsp	s0,208(sp)
     474:	444d5f53          	.4byte	0x444d5f53
     478:	53554143          	.4byte	0x53554143
     47c:	0045                	c.nop	17
     47e:	69616c63          	bltu	sp,s6,0xb16 <uart_init+0x46>
     482:	5f6d                	c.li	t5,-5
     484:	6461                	c.lui	s0,0x18
     486:	7264                	.2byte	0x7264
     488:	4e00                	c.lw	s0,24(a2)
     48a:	5344                	c.lw	s1,36(a4)
     48c:	4d5f 5053 425f      	.byte	0x5f, 0x4d, 0x53, 0x50, 0x5f, 0x42
     492:	5341                	c.li	t1,-16
     494:	0045                	c.nop	17
     496:	444e                	c.lwsp	s0,208(sp)
     498:	484d5f53          	.4byte	0x484d5f53
     49c:	4d50                	c.lw	a2,28(a0)
     49e:	5645                	c.li	a2,-15
     4a0:	4e45                	c.li	t3,17
     4a2:	3554                	.2byte	0x3554
     4a4:	0048                	c.addi4spn	a0,sp,4
     4a6:	444e                	c.lwsp	s0,208(sp)
     4a8:	55505f53          	.4byte	0x55505f53
     4ac:	454d4853          	.4byte	0x454d4853
     4b0:	4350                	c.lw	a2,4(a4)
     4b2:	4e00                	c.lw	s0,24(a2)
     4b4:	5344                	c.lw	s1,36(a4)
     4b6:	4d5f 4e49 5453      	.byte	0x5f, 0x4d, 0x49, 0x4e, 0x53, 0x54
     4bc:	4552                	c.lwsp	a0,20(sp)
     4be:	4854                	c.lw	a3,20(s0)
     4c0:	4e00                	c.lw	s0,24(a2)
     4c2:	5344                	c.lw	s1,36(a4)
     4c4:	4d5f 5453 5441      	.byte	0x5f, 0x4d, 0x53, 0x54, 0x41, 0x54
     4ca:	4545                	c.li	a0,17
     4cc:	334e                	.2byte	0x334e
     4ce:	0048                	c.addi4spn	a0,sp,4
     4d0:	444e                	c.lwsp	s0,208(sp)
     4d2:	434d5f53          	.4byte	0x434d5f53
     4d6:	4b4c                	c.lw	a1,20(a4)
     4d8:	435f 4c54 4e00      	.byte	0x5f, 0x43, 0x54, 0x4c, 0x00, 0x4e
     4de:	5344                	c.lw	s1,36(a4)
     4e0:	4d5f 5048 454d      	.byte	0x5f, 0x4d, 0x48, 0x50, 0x4d, 0x45
     4e6:	4556                	c.lwsp	a0,84(sp)
     4e8:	544e                	c.lwsp	s0,240(sp)
     4ea:	4836                	c.lwsp	a6,76(sp)
     4ec:	4e00                	c.lw	s0,24(a2)
     4ee:	5344                	c.lw	s1,36(a4)
     4f0:	435f 4359 454c      	.byte	0x5f, 0x43, 0x59, 0x43, 0x4c, 0x45
     4f6:	0048                	c.addi4spn	a0,sp,4
     4f8:	444e                	c.lwsp	s0,208(sp)
     4fa:	484d5f53          	.4byte	0x484d5f53
     4fe:	4d50                	c.lw	a2,28(a0)
     500:	4e554f43          	.4byte	0x4e554f43
     504:	4554                	c.lw	a3,12(a0)
     506:	3152                	.2byte	0x3152
     508:	4e004833          	.4byte	0x4e004833
     50c:	5344                	c.lw	s1,36(a4)
     50e:	485f 4d50 4f43      	.byte	0x5f, 0x48, 0x50, 0x4d, 0x43, 0x4f
     514:	4e55                	c.li	t3,21
     516:	4554                	c.lw	a3,12(a0)
     518:	3152                	.2byte	0x3152
     51a:	0030                	c.addi4spn	a2,sp,8
     51c:	444e                	c.lwsp	s0,208(sp)
     51e:	50485f53          	.4byte	0x50485f53
     522:	434d                	c.li	t1,19
     524:	544e554f          	.4byte	0x544e554f
     528:	5245                	c.li	tp,-15
     52a:	3131                	c.jal	0x136 <NDS_SAG_LMA_MEM+0x36>
     52c:	4e00                	c.lw	s0,24(a2)
     52e:	5344                	c.lw	s1,36(a4)
     530:	485f 4d50 4f43      	.byte	0x5f, 0x48, 0x50, 0x4d, 0x43, 0x4f
     536:	4e55                	c.li	t3,21
     538:	4554                	c.lw	a3,12(a0)
     53a:	3152                	.2byte	0x3152
     53c:	0032                	c.slli	zero,0xc
     53e:	444e                	c.lwsp	s0,208(sp)
     540:	50485f53          	.4byte	0x50485f53
     544:	434d                	c.li	t1,19
     546:	544e554f          	.4byte	0x544e554f
     54a:	5245                	c.li	tp,-15
     54c:	3331                	c.jal	0x258 <amoorw_func+0x8>
     54e:	4e00                	c.lw	s0,24(a2)
     550:	5344                	c.lw	s1,36(a4)
     552:	485f 4d50 4f43      	.byte	0x5f, 0x48, 0x50, 0x4d, 0x43, 0x4f
     558:	4e55                	c.li	t3,21
     55a:	4554                	c.lw	a3,12(a0)
     55c:	3152                	.2byte	0x3152
     55e:	0034                	c.addi4spn	a3,sp,8
     560:	444e                	c.lwsp	s0,208(sp)
     562:	50485f53          	.4byte	0x50485f53
     566:	434d                	c.li	t1,19
     568:	544e554f          	.4byte	0x544e554f
     56c:	5245                	c.li	tp,-15
     56e:	3531                	c.jal	0x37a <amomaxuw_func+0x32>
     570:	4e00                	c.lw	s0,24(a2)
     572:	5344                	c.lw	s1,36(a4)
     574:	485f 4d50 4f43      	.byte	0x5f, 0x48, 0x50, 0x4d, 0x43, 0x4f
     57a:	4e55                	c.li	t3,21
     57c:	4554                	c.lw	a3,12(a0)
     57e:	3152                	.2byte	0x3152
     580:	0036                	c.slli	zero,0xd
     582:	444e                	c.lwsp	s0,208(sp)
     584:	50485f53          	.4byte	0x50485f53
     588:	434d                	c.li	t1,19
     58a:	544e554f          	.4byte	0x544e554f
     58e:	5245                	c.li	tp,-15
     590:	3731                	c.jal	0x49c <mswi_handler+0x8>
     592:	4e00                	c.lw	s0,24(a2)
     594:	5344                	c.lw	s1,36(a4)
     596:	485f 4d50 4f43      	.byte	0x5f, 0x48, 0x50, 0x4d, 0x43, 0x4f
     59c:	4e55                	c.li	t3,21
     59e:	4554                	c.lw	a3,12(a0)
     5a0:	3152                	.2byte	0x3152
     5a2:	0038                	c.addi4spn	a4,sp,8
     5a4:	444e                	c.lwsp	s0,208(sp)
     5a6:	50485f53          	.4byte	0x50485f53
     5aa:	434d                	c.li	t1,19
     5ac:	544e554f          	.4byte	0x544e554f
     5b0:	5245                	c.li	tp,-15
     5b2:	3931                	c.jal	0x1ce <amoaddw_func+0x3a>
     5b4:	4e00                	c.lw	s0,24(a2)
     5b6:	5344                	c.lw	s1,36(a4)
     5b8:	555f 4344 5541      	.byte	0x5f, 0x55, 0x44, 0x43, 0x41, 0x55
     5be:	4e004553          	.4byte	0x4e004553
     5c2:	5344                	c.lw	s1,36(a4)
     5c4:	555f 5449 0042      	.byte	0x5f, 0x55, 0x49, 0x54, 0x42, 0x00
     5ca:	444e                	c.lwsp	s0,208(sp)
     5cc:	45545f53          	.4byte	0x45545f53
     5d0:	5458                	c.lw	a4,44(s0)
     5d2:	4152                	c.lwsp	sp,20(sp)
     5d4:	4e003233          	.4byte	0x4e003233
     5d8:	5344                	c.lw	s1,36(a4)
     5da:	565f 004c 444e      	.byte	0x5f, 0x56, 0x4c, 0x00, 0x4e, 0x44
     5e0:	45535f53          	.4byte	0x45535f53
     5e4:	564e                	c.lwsp	a2,240(sp)
     5e6:	00474643          	.4byte	0x474643
     5ea:	444e                	c.lwsp	s0,208(sp)
     5ec:	484d5f53          	.4byte	0x484d5f53
     5f0:	4d50                	c.lw	a2,28(a0)
     5f2:	5645                	c.li	a2,-15
     5f4:	4e45                	c.li	t3,17
     5f6:	3754                	.2byte	0x3754
     5f8:	0048                	c.addi4spn	a0,sp,4
     5fa:	444e                	c.lwsp	s0,208(sp)
     5fc:	534d5f53          	.4byte	0x534d5f53
     600:	4154                	c.lw	a3,4(a0)
     602:	5554                	c.lw	a3,44(a0)
     604:	444e0053          	.4byte	0x444e0053
     608:	454d5f53          	.4byte	0x454d5f53
     60c:	4350                	c.lw	a2,4(a4)
     60e:	4e00                	c.lw	s0,24(a2)
     610:	5344                	c.lw	s1,36(a4)
     612:	485f 4d50 4f43      	.byte	0x5f, 0x48, 0x50, 0x4d, 0x43, 0x4f
     618:	4e55                	c.li	t3,21
     61a:	4554                	c.lw	a3,12(a0)
     61c:	3252                	.2byte	0x3252
     61e:	0030                	c.addi4spn	a2,sp,8
     620:	444e                	c.lwsp	s0,208(sp)
     622:	50485f53          	.4byte	0x50485f53
     626:	434d                	c.li	t1,19
     628:	544e554f          	.4byte	0x544e554f
     62c:	5245                	c.li	tp,-15
     62e:	3132                	.2byte	0x3132
     630:	4e00                	c.lw	s0,24(a2)
     632:	5344                	c.lw	s1,36(a4)
     634:	485f 4d50 4f43      	.byte	0x5f, 0x48, 0x50, 0x4d, 0x43, 0x4f
     63a:	4e55                	c.li	t3,21
     63c:	4554                	c.lw	a3,12(a0)
     63e:	3252                	.2byte	0x3252
     640:	0032                	c.slli	zero,0xc
     642:	444e                	c.lwsp	s0,208(sp)
     644:	50485f53          	.4byte	0x50485f53
     648:	434d                	c.li	t1,19
     64a:	544e554f          	.4byte	0x544e554f
     64e:	5245                	c.li	tp,-15
     650:	3332                	.2byte	0x3332
     652:	4e00                	c.lw	s0,24(a2)
     654:	5344                	c.lw	s1,36(a4)
     656:	485f 4d50 4f43      	.byte	0x5f, 0x48, 0x50, 0x4d, 0x43, 0x4f
     65c:	4e55                	c.li	t3,21
     65e:	4554                	c.lw	a3,12(a0)
     660:	3252                	.2byte	0x3252
     662:	0034                	c.addi4spn	a3,sp,8
     664:	444e                	c.lwsp	s0,208(sp)
     666:	50485f53          	.4byte	0x50485f53
     66a:	434d                	c.li	t1,19
     66c:	544e554f          	.4byte	0x544e554f
     670:	5245                	c.li	tp,-15
     672:	3632                	.2byte	0x3632
     674:	4e00                	c.lw	s0,24(a2)
     676:	5344                	c.lw	s1,36(a4)
     678:	485f 4d50 4f43      	.byte	0x5f, 0x48, 0x50, 0x4d, 0x43, 0x4f
     67e:	4e55                	c.li	t3,21
     680:	4554                	c.lw	a3,12(a0)
     682:	3252                	.2byte	0x3252
     684:	444e0037          	lui	zero,0x444e0
     688:	50485f53          	.4byte	0x50485f53
     68c:	434d                	c.li	t1,19
     68e:	544e554f          	.4byte	0x544e554f
     692:	5245                	c.li	tp,-15
     694:	3832                	.2byte	0x3832
     696:	4e00                	c.lw	s0,24(a2)
     698:	5344                	c.lw	s1,36(a4)
     69a:	485f 4d50 4f43      	.byte	0x5f, 0x48, 0x50, 0x4d, 0x43, 0x4f
     6a0:	4e55                	c.li	t3,21
     6a2:	4554                	c.lw	a3,12(a0)
     6a4:	3252                	.2byte	0x3252
     6a6:	0039                	c.nop	14
     6a8:	444e                	c.lwsp	s0,208(sp)
     6aa:	434d5f53          	.4byte	0x434d5f53
     6ae:	544e554f          	.4byte	0x544e554f
     6b2:	5245                	c.li	tp,-15
     6b4:	414d                	c.li	sp,19
     6b6:	4d5f4b53          	.4byte	0x4d5f4b53
     6ba:	4e00                	c.lw	s0,24(a2)
     6bc:	5344                	c.lw	s1,36(a4)
     6be:	4d5f 4f43 4e55      	.byte	0x5f, 0x4d, 0x43, 0x4f, 0x55, 0x4e
     6c4:	4554                	c.lw	a3,12(a0)
     6c6:	4d52                	c.lwsp	s10,20(sp)
     6c8:	5341                	c.li	t1,-16
     6ca:	00535f4b          	.4byte	0x535f4b
     6ce:	444e                	c.lwsp	s0,208(sp)
     6d0:	434d5f53          	.4byte	0x434d5f53
     6d4:	544e554f          	.4byte	0x544e554f
     6d8:	5245                	c.li	tp,-15
     6da:	414d                	c.li	sp,19
     6dc:	555f4b53          	.4byte	0x555f4b53
     6e0:	4e00                	c.lw	s0,24(a2)
     6e2:	5344                	c.lw	s1,36(a4)
     6e4:	4d5f 5048 454d      	.byte	0x5f, 0x4d, 0x48, 0x50, 0x4d, 0x45
     6ea:	4556                	c.lwsp	a0,84(sp)
     6ec:	544e                	c.lwsp	s0,240(sp)
     6ee:	4838                	c.lw	a4,80(s0)
     6f0:	4e00                	c.lw	s0,24(a2)
     6f2:	5344                	c.lw	s1,36(a4)
     6f4:	4d5f 5943 4c43      	.byte	0x5f, 0x4d, 0x43, 0x59, 0x43, 0x4c
     6fa:	0045                	c.nop	17
     6fc:	444e                	c.lwsp	s0,208(sp)
     6fe:	50485f53          	.4byte	0x50485f53
     702:	434d                	c.li	t1,19
     704:	544e554f          	.4byte	0x544e554f
     708:	5245                	c.li	tp,-15
     70a:	444e0033          	.4byte	0x444e0033
     70e:	50485f53          	.4byte	0x50485f53
     712:	434d                	c.li	t1,19
     714:	544e554f          	.4byte	0x544e554f
     718:	5245                	c.li	tp,-15
     71a:	0034                	c.addi4spn	a3,sp,8
     71c:	444e                	c.lwsp	s0,208(sp)
     71e:	50485f53          	.4byte	0x50485f53
     722:	434d                	c.li	t1,19
     724:	544e554f          	.4byte	0x544e554f
     728:	5245                	c.li	tp,-15
     72a:	0035                	c.nop	13
     72c:	444e                	c.lwsp	s0,208(sp)
     72e:	50485f53          	.4byte	0x50485f53
     732:	434d                	c.li	t1,19
     734:	544e554f          	.4byte	0x544e554f
     738:	5245                	c.li	tp,-15
     73a:	0036                	c.slli	zero,0xd
     73c:	444e                	c.lwsp	s0,208(sp)
     73e:	50485f53          	.4byte	0x50485f53
     742:	434d                	c.li	t1,19
     744:	544e554f          	.4byte	0x544e554f
     748:	5245                	c.li	tp,-15
     74a:	444e0037          	lui	zero,0x444e0
     74e:	50485f53          	.4byte	0x50485f53
     752:	434d                	c.li	t1,19
     754:	544e554f          	.4byte	0x544e554f
     758:	5245                	c.li	tp,-15
     75a:	0038                	c.addi4spn	a4,sp,8
     75c:	444e                	c.lwsp	s0,208(sp)
     75e:	50485f53          	.4byte	0x50485f53
     762:	434d                	c.li	t1,19
     764:	544e554f          	.4byte	0x544e554f
     768:	5245                	c.li	tp,-15
     76a:	0039                	c.nop	14
     76c:	444e                	c.lwsp	s0,208(sp)
     76e:	50485f53          	.4byte	0x50485f53
     772:	434d                	c.li	t1,19
     774:	544e554f          	.4byte	0x544e554f
     778:	5245                	c.li	tp,-15
     77a:	4e003033          	.4byte	0x4e003033
     77e:	5344                	c.lw	s1,36(a4)
     780:	485f 4d50 4f43      	.byte	0x5f, 0x48, 0x50, 0x4d, 0x43, 0x4f
     786:	4e55                	c.li	t3,21
     788:	4554                	c.lw	a3,12(a0)
     78a:	3352                	.2byte	0x3352
     78c:	0031                	c.nop	12
     78e:	444e                	c.lwsp	s0,208(sp)
     790:	4d4d5f53          	.4byte	0x4d4d5f53
     794:	5349                	c.li	t1,-14
     796:	54435f43          	.4byte	0x54435f43
     79a:	004c                	c.addi4spn	a1,sp,4
     79c:	444e                	c.lwsp	s0,208(sp)
     79e:	45555f53          	.4byte	0x45555f53
     7a2:	4350                	c.lw	a2,4(a4)
     7a4:	4e00                	c.lw	s0,24(a2)
     7a6:	5344                	c.lw	s1,36(a4)
     7a8:	4d5f 5249 5f51      	.byte	0x5f, 0x4d, 0x49, 0x52, 0x51, 0x5f
     7ae:	4e45                	c.li	t3,17
     7b0:	5254                	c.lw	a3,36(a2)
     7b2:	0059                	c.nop	22
     7b4:	444e                	c.lwsp	s0,208(sp)
     7b6:	50485f53          	.4byte	0x50485f53
     7ba:	434d                	c.li	t1,19
     7bc:	544e554f          	.4byte	0x544e554f
     7c0:	5245                	c.li	tp,-15
     7c2:	6d004833          	.4byte	0x6d004833
     7c6:	7065                	c.lui	zero,0xffff9
     7c8:	444e0063          	beq	t3,tp,0xc08 <uart_puts+0x44>
     7cc:	484d5f53          	.4byte	0x484d5f53
     7d0:	4d50                	c.lw	a2,28(a0)
     7d2:	5645                	c.li	a2,-15
     7d4:	4e45                	c.li	t3,17
     7d6:	3954                	.2byte	0x3954
     7d8:	0048                	c.addi4spn	a0,sp,4
     7da:	656d                	c.lui	a0,0x1b
     7dc:	7478                	.2byte	0x7478
     7de:	695f 746e 7265      	.byte	0x5f, 0x69, 0x6e, 0x74, 0x65, 0x72
     7e4:	7572                	.2byte	0x7572
     7e6:	7470                	.2byte	0x7470
     7e8:	4e00                	c.lw	s0,24(a2)
     7ea:	5344                	c.lw	s1,36(a4)
     7ec:	445f 4353 4152      	.byte	0x5f, 0x44, 0x53, 0x43, 0x52, 0x41
     7f2:	4354                	c.lw	a3,4(a4)
     7f4:	0048                	c.addi4spn	a0,sp,4
     7f6:	444e                	c.lwsp	s0,208(sp)
     7f8:	4d4d5f53          	.4byte	0x4d4d5f53
     7fc:	435f4353          	.4byte	0x435f4353
     800:	4746                	c.lwsp	a4,80(sp)
     802:	0032                	c.slli	zero,0xc
     804:	444e                	c.lwsp	s0,208(sp)
     806:	484d5f53          	.4byte	0x484d5f53
     80a:	4d50                	c.lw	a2,28(a0)
     80c:	5645                	c.li	a2,-15
     80e:	4e45                	c.li	t3,17
     810:	3254                	.2byte	0x3254
     812:	4838                	c.lw	a4,80(s0)
     814:	4e00                	c.lw	s0,24(a2)
     816:	5344                	c.lw	s1,36(a4)
     818:	4d5f 4c53 4449      	.byte	0x5f, 0x4d, 0x53, 0x4c, 0x49, 0x44
     81e:	4c45                	c.li	s8,17
     820:	4745                	c.li	a4,17
     822:	4e00                	c.lw	s0,24(a2)
     824:	5344                	c.lw	s1,36(a4)
     826:	535f 4549 6800      	.byte	0x5f, 0x53, 0x49, 0x45, 0x00, 0x68
     82c:	7261                	c.lui	tp,0xffff8
     82e:	5f74                	c.lw	a3,124(a4)
     830:	6469                	c.lui	s0,0x1a
     832:	6d00                	.2byte	0x6d00
     834:	74617473          	csrrci	s0,0x746,2
     838:	7375                	c.lui	t1,0xffffd
     83a:	4e00                	c.lw	s0,24(a2)
     83c:	5344                	c.lw	s1,36(a4)
     83e:	485f 4d50 4f43      	.byte	0x5f, 0x48, 0x50, 0x4d, 0x43, 0x4f
     844:	4e55                	c.li	t3,21
     846:	4554                	c.lw	a3,12(a0)
     848:	3452                	.2byte	0x3452
     84a:	0048                	c.addi4spn	a0,sp,4
     84c:	444e                	c.lwsp	s0,208(sp)
     84e:	45545f53          	.4byte	0x45545f53
     852:	5458                	c.lw	a4,44(s0)
     854:	4152                	c.lwsp	sp,20(sp)
     856:	3436                	.2byte	0x3436
     858:	4e00                	c.lw	s0,24(a2)
     85a:	5344                	c.lw	s1,36(a4)
     85c:	535f 5049 4e00      	.byte	0x5f, 0x53, 0x49, 0x50, 0x00, 0x4e
     862:	5344                	c.lw	s1,36(a4)
     864:	545f 4144 4154      	.byte	0x5f, 0x54, 0x44, 0x41, 0x54, 0x41
     86a:	0031                	c.nop	12
     86c:	444e                	c.lwsp	s0,208(sp)
     86e:	44545f53          	.4byte	0x44545f53
     872:	5441                	c.li	s0,-16
     874:	3341                	c.jal	0x5f4 <trap_entry+0xd0>
     876:	4e00                	c.lw	s0,24(a2)
     878:	5344                	c.lw	s1,36(a4)
     87a:	4d5f 4553 4343      	.byte	0x5f, 0x4d, 0x53, 0x45, 0x43, 0x43
     880:	4746                	c.lwsp	a4,80(sp)
     882:	4e00                	c.lw	s0,24(a2)
     884:	5344                	c.lw	s1,36(a4)
     886:	4d5f 4e49 5354      	.byte	0x5f, 0x4d, 0x49, 0x4e, 0x54, 0x53
     88c:	4c45                	c.li	s8,17
     88e:	4a5f 4c41 4e00      	.byte	0x5f, 0x4a, 0x41, 0x4c, 0x00, 0x4e
     894:	5344                	c.lw	s1,36(a4)
     896:	535f 4143 5355      	.byte	0x5f, 0x53, 0x43, 0x41, 0x55, 0x53
     89c:	0045                	c.nop	17
     89e:	444e                	c.lwsp	s0,208(sp)
     8a0:	43535f53          	.4byte	0x43535f53
     8a4:	544e554f          	.4byte	0x544e554f
     8a8:	5245                	c.li	tp,-15
     8aa:	414d                	c.li	sp,19
     8ac:	535f4b53          	.4byte	0x535f4b53
     8b0:	4e00                	c.lw	s0,24(a2)
     8b2:	5344                	c.lw	s1,36(a4)
     8b4:	505f 504d 4441      	.byte	0x5f, 0x50, 0x4d, 0x50, 0x41, 0x44
     8ba:	5244                	c.lw	s1,36(a2)
     8bc:	3531                	c.jal	0x6c8 <trap_entry+0x1a4>
     8be:	4e00                	c.lw	s0,24(a2)
     8c0:	5344                	c.lw	s1,36(a4)
     8c2:	555f 4142 4144      	.byte	0x5f, 0x55, 0x42, 0x41, 0x44, 0x41
     8c8:	4444                	c.lw	s1,12(s0)
     8ca:	0052                	c.slli	zero,0x14
     8cc:	444e                	c.lwsp	s0,208(sp)
     8ce:	50485f53          	.4byte	0x50485f53
     8d2:	434d                	c.li	t1,19
     8d4:	544e554f          	.4byte	0x544e554f
     8d8:	5245                	c.li	tp,-15
     8da:	4835                	c.li	a6,13
     8dc:	4e00                	c.lw	s0,24(a2)
     8de:	5344                	c.lw	s1,36(a4)
     8e0:	4d5f 4445 4c45      	.byte	0x5f, 0x4d, 0x45, 0x44, 0x45, 0x4c
     8e6:	4745                	c.li	a4,17
     8e8:	4e00                	c.lw	s0,24(a2)
     8ea:	5344                	c.lw	s1,36(a4)
     8ec:	4d5f 4650 5f54      	.byte	0x5f, 0x4d, 0x50, 0x46, 0x54, 0x5f
     8f2:	004c5443          	.4byte	0x4c5443
     8f6:	444e                	c.lwsp	s0,208(sp)
     8f8:	534d5f53          	.4byte	0x534d5f53
     8fc:	54415243          	.4byte	0x54415243
     900:	4e004843          	.4byte	0x4e004843
     904:	5344                	c.lw	s1,36(a4)
     906:	445f 4344 5541      	.byte	0x5f, 0x44, 0x44, 0x43, 0x41, 0x55
     90c:	4e004553          	.4byte	0x4e004553
     910:	5344                	c.lw	s1,36(a4)
     912:	505f 504d 4643      	.byte	0x5f, 0x50, 0x4d, 0x50, 0x43, 0x46
     918:	4e003047          	.4byte	0x4e003047
     91c:	5344                	c.lw	s1,36(a4)
     91e:	505f 504d 4643      	.byte	0x5f, 0x50, 0x4d, 0x50, 0x43, 0x46
     924:	4e003147          	.4byte	0x4e003147
     928:	5344                	c.lw	s1,36(a4)
     92a:	505f 504d 4643      	.byte	0x5f, 0x50, 0x4d, 0x50, 0x43, 0x46
     930:	4e003247          	.4byte	0x4e003247
     934:	5344                	c.lw	s1,36(a4)
     936:	505f 504d 4643      	.byte	0x5f, 0x50, 0x4d, 0x50, 0x43, 0x46
     93c:	4e003347          	.4byte	0x4e003347
     940:	5344                	c.lw	s1,36(a4)
     942:	4d5f 444e 5853      	.byte	0x5f, 0x4d, 0x4e, 0x44, 0x53, 0x58
     948:	575f 4144 4154      	.byte	0x5f, 0x57, 0x44, 0x41, 0x54, 0x41
     94e:	4e00                	c.lw	s0,24(a2)
     950:	5344                	c.lw	s1,36(a4)
     952:	485f 4d50 4f43      	.byte	0x5f, 0x48, 0x50, 0x4d, 0x43, 0x4f
     958:	4e55                	c.li	t3,21
     95a:	4554                	c.lw	a3,12(a0)
     95c:	3652                	.2byte	0x3652
     95e:	0048                	c.addi4spn	a0,sp,4
     960:	444e                	c.lwsp	s0,208(sp)
     962:	4c565f53          	.4byte	0x4c565f53
     966:	4e45                	c.li	t3,17
     968:	0042                	c.slli	zero,0x10
     96a:	444e                	c.lwsp	s0,208(sp)
     96c:	43445f53          	.4byte	0x43445f53
     970:	4e005253          	.4byte	0x4e005253
     974:	5344                	c.lw	s1,36(a4)
     976:	465f 5343 0052      	.byte	0x5f, 0x46, 0x43, 0x53, 0x52, 0x00
     97c:	444e                	c.lwsp	s0,208(sp)
     97e:	54535f53          	.4byte	0x54535f53
     982:	4156                	c.lwsp	sp,84(sp)
     984:	004c                	c.addi4spn	a1,sp,4
     986:	444e                	c.lwsp	s0,208(sp)
     988:	4d505f53          	.4byte	0x4d505f53
     98c:	4150                	c.lw	a2,4(a0)
     98e:	4444                	c.lw	s1,12(s0)
     990:	3252                	.2byte	0x3252
     992:	0035                	c.nop	13
     994:	444e                	c.lwsp	s0,208(sp)
     996:	4d505f53          	.4byte	0x4d505f53
     99a:	4150                	c.lw	a2,4(a0)
     99c:	4444                	c.lw	s1,12(s0)
     99e:	3252                	.2byte	0x3252
     9a0:	0036                	c.slli	zero,0xd
     9a2:	444e                	c.lwsp	s0,208(sp)
     9a4:	4d505f53          	.4byte	0x4d505f53
     9a8:	4150                	c.lw	a2,4(a0)
     9aa:	4444                	c.lw	s1,12(s0)
     9ac:	3252                	.2byte	0x3252
     9ae:	444e0037          	lui	zero,0x444e0
     9b2:	50485f53          	.4byte	0x50485f53
     9b6:	434d                	c.li	t1,19
     9b8:	544e554f          	.4byte	0x544e554f
     9bc:	5245                	c.li	tp,-15
     9be:	65004837          	lui	a6,0x65004
     9c2:	6378                	.2byte	0x6378
     9c4:	7065                	c.lui	zero,0xffff9
     9c6:	5f74                	c.lw	a3,124(a4)
     9c8:	6168                	.2byte	0x6168
     9ca:	646e                	.2byte	0x646e
     9cc:	656c                	.2byte	0x656c
     9ce:	0072                	c.slli	zero,0x1c
     9d0:	444e                	c.lwsp	s0,208(sp)
     9d2:	534d5f53          	.4byte	0x534d5f53
     9d6:	5641                	c.li	a2,-16
     9d8:	4345                	c.li	t1,17
     9da:	5541                	c.li	a0,-16
     9dc:	00314553          	.4byte	0x314553
     9e0:	444e                	c.lwsp	s0,208(sp)
     9e2:	534d5f53          	.4byte	0x534d5f53
     9e6:	5641                	c.li	a2,-16
     9e8:	4345                	c.li	t1,17
     9ea:	5541                	c.li	a0,-16
     9ec:	00324553          	.4byte	0x324553
     9f0:	444e                	c.lwsp	s0,208(sp)
     9f2:	53445f53          	.4byte	0x53445f53
     9f6:	54415243          	.4byte	0x54415243
     9fa:	00304843          	.4byte	0x304843
     9fe:	444e                	c.lwsp	s0,208(sp)
     a00:	43535f53          	.4byte	0x43535f53
     a04:	544e554f          	.4byte	0x544e554f
     a08:	5245                	c.li	tp,-15
     a0a:	4e45                	c.li	t3,17
     a0c:	4e00                	c.lw	s0,24(a2)
     a0e:	5344                	c.lw	s1,36(a4)
     a10:	535f 4344 5541      	.byte	0x5f, 0x53, 0x44, 0x43, 0x41, 0x55
     a16:	4e004553          	.4byte	0x4e004553
     a1a:	5344                	c.lw	s1,36(a4)
     a1c:	505f 5355 4d48      	.byte	0x5f, 0x50, 0x55, 0x53, 0x48, 0x4d
     a22:	5358                	c.lw	a4,36(a4)
     a24:	4154                	c.lw	a3,4(a0)
     a26:	5554                	c.lw	a3,44(a0)
     a28:	444e0053          	.4byte	0x444e0053
     a2c:	4c535f53          	.4byte	0x4c535f53
     a30:	4549                	c.li	a0,18
     a32:	4e00                	c.lw	s0,24(a2)
     a34:	5344                	c.lw	s1,36(a4)
     a36:	485f 4d50 4f43      	.byte	0x5f, 0x48, 0x50, 0x4d, 0x43, 0x4f
     a3c:	4e55                	c.li	t3,21
     a3e:	4554                	c.lw	a3,12(a0)
     a40:	3852                	.2byte	0x3852
     a42:	0048                	c.addi4spn	a0,sp,4
     a44:	444e                	c.lwsp	s0,208(sp)
     a46:	4c535f53          	.4byte	0x4c535f53
     a4a:	5049                	c.li	zero,-14
     a4c:	4e00                	c.lw	s0,24(a2)
     a4e:	5344                	c.lw	s1,36(a4)
     a50:	4d5f 4349 5f4d      	.byte	0x5f, 0x4d, 0x49, 0x43, 0x4d, 0x5f
     a56:	00474643          	.4byte	0x474643
     a5a:	444e                	c.lwsp	s0,208(sp)
     a5c:	484d5f53          	.4byte	0x484d5f53
     a60:	4d50                	c.lw	a2,28(a0)
     a62:	5645                	c.li	a2,-15
     a64:	4e45                	c.li	t3,17
     a66:	3254                	.2byte	0x3254
     a68:	4e004837          	lui	a6,0x4e004
     a6c:	5344                	c.lw	s1,36(a4)
     a6e:	4d5f 4343 4c54      	.byte	0x5f, 0x4d, 0x43, 0x43, 0x54, 0x4c
     a74:	4144                	c.lw	s1,4(a0)
     a76:	4154                	c.lw	a3,4(a0)
     a78:	4e00                	c.lw	s0,24(a2)
     a7a:	5344                	c.lw	s1,36(a4)
     a7c:	4d5f 5048 434d      	.byte	0x5f, 0x4d, 0x48, 0x50, 0x4d, 0x43
     a82:	544e554f          	.4byte	0x544e554f
     a86:	5245                	c.li	tp,-15
     a88:	3731                	c.jal	0x994 <default_irq_handler+0x10>
     a8a:	0048                	c.addi4spn	a0,sp,4
     a8c:	444e                	c.lwsp	s0,208(sp)
     a8e:	45535f53          	.4byte	0x45535f53
     a92:	4350                	c.lw	a2,4(a4)
     a94:	4e00                	c.lw	s0,24(a2)
     a96:	5344                	c.lw	s1,36(a4)
     a98:	4d5f 4153 4556      	.byte	0x5f, 0x4d, 0x53, 0x41, 0x56, 0x45
     a9e:	5045                	c.li	zero,-15
     aa0:	4e003143          	.4byte	0x4e003143
     aa4:	5344                	c.lw	s1,36(a4)
     aa6:	4d5f 4153 4556      	.byte	0x5f, 0x4d, 0x53, 0x41, 0x56, 0x45
     aac:	5045                	c.li	zero,-15
     aae:	4e003243          	.4byte	0x4e003243
     ab2:	5344                	c.lw	s1,36(a4)
     ab4:	4d5f 4f43 4e55      	.byte	0x5f, 0x4d, 0x43, 0x4f, 0x55, 0x4e
     aba:	4954                	c.lw	a3,20(a0)
     abc:	484e                	c.lwsp	a6,208(sp)
     abe:	4249                	c.li	tp,18
     ac0:	5449                	c.li	s0,-14
     ac2:	4e00                	c.lw	s0,24(a2)
     ac4:	5344                	c.lw	s1,36(a4)
     ac6:	505f 504d 4441      	.byte	0x5f, 0x50, 0x4d, 0x50, 0x41, 0x44
     acc:	5244                	c.lw	s1,36(a2)
     ace:	4e003233          	.4byte	0x4e003233
     ad2:	5344                	c.lw	s1,36(a4)
     ad4:	505f 504d 4441      	.byte	0x5f, 0x50, 0x4d, 0x50, 0x41, 0x44
     ada:	5244                	c.lw	s1,36(a2)
     adc:	4e003533          	.4byte	0x4e003533
     ae0:	5344                	c.lw	s1,36(a4)
     ae2:	535f 5453 5441      	.byte	0x5f, 0x53, 0x53, 0x54, 0x41, 0x54
     ae8:	4545                	c.li	a0,17
     aea:	334e                	.2byte	0x334e
     aec:	4e00                	c.lw	s0,24(a2)
     aee:	5344                	c.lw	s1,36(a4)
     af0:	545f 4d49 0045      	.byte	0x5f, 0x54, 0x49, 0x4d, 0x45, 0x00
     af6:	444e                	c.lwsp	s0,208(sp)
     af8:	50485f53          	.4byte	0x50485f53
     afc:	434d                	c.li	t1,19
     afe:	544e554f          	.4byte	0x544e554f
     b02:	5245                	c.li	tp,-15
     b04:	4839                	c.li	a6,14
     b06:	4e00                	c.lw	s0,24(a2)
     b08:	5344                	c.lw	s1,36(a4)
     b0a:	4d5f 4343 4341      	.byte	0x5f, 0x4d, 0x43, 0x43, 0x41, 0x43
     b10:	4548                	c.lw	a0,12(a0)
     b12:	435f 4c54 425f      	.byte	0x5f, 0x43, 0x54, 0x4c, 0x5f, 0x42
     b18:	5341                	c.li	t1,-16
     b1a:	0045                	c.nop	17
     b1c:	444e                	c.lwsp	s0,208(sp)
     b1e:	43565f53          	.4byte	0x43565f53
     b22:	4e005253          	.4byte	0x4e005253
     b26:	5344                	c.lw	s1,36(a4)
     b28:	4d5f 4345 5f43      	.byte	0x5f, 0x4d, 0x45, 0x43, 0x43, 0x5f
     b2e:	45444f43          	.4byte	0x45444f43
     b32:	4e00                	c.lw	s0,24(a2)
     b34:	5344                	c.lw	s1,36(a4)
     b36:	535f 4353 4152      	.byte	0x5f, 0x53, 0x53, 0x43, 0x52, 0x41
     b3c:	4354                	c.lw	a3,4(a4)
     b3e:	0048                	c.addi4spn	a0,sp,4
     b40:	444e                	c.lwsp	s0,208(sp)
     b42:	49545f53          	.4byte	0x49545f53
     b46:	454d                	c.li	a0,19
     b48:	0048                	c.addi4spn	a0,sp,4
     b4a:	444e                	c.lwsp	s0,208(sp)
     b4c:	45535f53          	.4byte	0x45535f53
     b50:	4544                	c.lw	s1,12(a0)
     b52:	454c                	c.lw	a1,12(a0)
     b54:	444e0047          	.4byte	0x444e0047
     b58:	544d5f53          	.4byte	0x544d5f53
     b5c:	4156                	c.lwsp	sp,84(sp)
     b5e:	004c                	c.addi4spn	a1,sp,4
     b60:	444e                	c.lwsp	s0,208(sp)
     b62:	4d505f53          	.4byte	0x4d505f53
     b66:	4141                	c.li	sp,16
     b68:	4444                	c.lw	s1,12(s0)
     b6a:	3052                	.2byte	0x3052
     b6c:	4e00                	c.lw	s0,24(a2)
     b6e:	5344                	c.lw	s1,36(a4)
     b70:	505f 414d 4441      	.byte	0x5f, 0x50, 0x4d, 0x41, 0x41, 0x44
     b76:	5244                	c.lw	s1,36(a2)
     b78:	0032                	c.slli	zero,0xc
     b7a:	444e                	c.lwsp	s0,208(sp)
     b7c:	50535f53          	.4byte	0x50535f53
     b80:	4254                	c.lw	a3,4(a2)
     b82:	0052                	c.slli	zero,0x14
     b84:	444e                	c.lwsp	s0,208(sp)
     b86:	484d5f53          	.4byte	0x484d5f53
     b8a:	4d50                	c.lw	a2,28(a0)
     b8c:	4e554f43          	.4byte	0x4e554f43
     b90:	4554                	c.lw	a3,12(a0)
     b92:	3152                	.2byte	0x3152
     b94:	4831                	c.li	a6,12
     b96:	4e00                	c.lw	s0,24(a2)
     b98:	5344                	c.lw	s1,36(a4)
     b9a:	4d5f 5048 454d      	.byte	0x5f, 0x4d, 0x48, 0x50, 0x4d, 0x45
     ba0:	4556                	c.lwsp	a0,84(sp)
     ba2:	544e                	c.lwsp	s0,240(sp)
     ba4:	444e0033          	.4byte	0x444e0033
     ba8:	484d5f53          	.4byte	0x484d5f53
     bac:	4d50                	c.lw	a2,28(a0)
     bae:	5645                	c.li	a2,-15
     bb0:	4e45                	c.li	t3,17
     bb2:	3454                	.2byte	0x3454
     bb4:	4e00                	c.lw	s0,24(a2)
     bb6:	5344                	c.lw	s1,36(a4)
     bb8:	485f 4d50 4f43      	.byte	0x5f, 0x48, 0x50, 0x4d, 0x43, 0x4f
     bbe:	4e55                	c.li	t3,21
     bc0:	4554                	c.lw	a3,12(a0)
     bc2:	3152                	.2byte	0x3152
     bc4:	4830                	c.lw	a2,80(s0)
     bc6:	4e00                	c.lw	s0,24(a2)
     bc8:	5344                	c.lw	s1,36(a4)
     bca:	4d5f 5048 454d      	.byte	0x5f, 0x4d, 0x48, 0x50, 0x4d, 0x45
     bd0:	4556                	c.lwsp	a0,84(sp)
     bd2:	544e                	c.lwsp	s0,240(sp)
     bd4:	0038                	c.addi4spn	a4,sp,8
     bd6:	444e                	c.lwsp	s0,208(sp)
     bd8:	484d5f53          	.4byte	0x484d5f53
     bdc:	4d50                	c.lw	a2,28(a0)
     bde:	5645                	c.li	a2,-15
     be0:	4e45                	c.li	t3,17
     be2:	3954                	.2byte	0x3954
     be4:	4e00                	c.lw	s0,24(a2)
     be6:	5344                	c.lw	s1,36(a4)
     be8:	445f 4350 4e00      	.byte	0x5f, 0x44, 0x50, 0x43, 0x00, 0x4e
     bee:	5344                	c.lw	s1,36(a4)
     bf0:	4d5f 4f43 4e55      	.byte	0x5f, 0x4d, 0x43, 0x4f, 0x55, 0x4e
     bf6:	4554                	c.lw	a3,12(a0)
     bf8:	4552                	c.lwsp	a0,20(sp)
     bfa:	004e                	c.slli	zero,0x13
     bfc:	444e                	c.lwsp	s0,208(sp)
     bfe:	54565f53          	.4byte	0x54565f53
     c02:	5059                	c.li	zero,-10
     c04:	0045                	c.nop	17
     c06:	444e                	c.lwsp	s0,208(sp)
     c08:	434d5f53          	.4byte	0x434d5f53
     c0c:	4152                	c.lwsp	sp,20(sp)
     c0e:	535f4853          	.4byte	0x535f4853
     c12:	4154                	c.lw	a3,4(a0)
     c14:	4554                	c.lw	a3,12(a0)
     c16:	45564153          	.4byte	0x45564153
     c1a:	4e00                	c.lw	s0,24(a2)
     c1c:	5344                	c.lw	s1,36(a4)
     c1e:	4d5f 5050 4249      	.byte	0x5f, 0x4d, 0x50, 0x50, 0x49, 0x42
     c24:	4e00                	c.lw	s0,24(a2)
     c26:	5344                	c.lw	s1,36(a4)
     c28:	445f 4353 4152      	.byte	0x5f, 0x44, 0x53, 0x43, 0x52, 0x41
     c2e:	4354                	c.lw	a3,4(a4)
     c30:	3148                	.2byte	0x3148
     c32:	4e00                	c.lw	s0,24(a2)
     c34:	5344                	c.lw	s1,36(a4)
     c36:	535f 5453 5441      	.byte	0x5f, 0x53, 0x53, 0x54, 0x41, 0x54
     c3c:	5355                	c.li	t1,-11
     c3e:	4e00                	c.lw	s0,24(a2)
     c40:	5344                	c.lw	s1,36(a4)
     c42:	4d5f 4353 4152      	.byte	0x5f, 0x4d, 0x53, 0x43, 0x52, 0x41
     c48:	4354                	c.lw	a3,4(a4)
     c4a:	4348                	c.lw	a0,4(a4)
     c4c:	4e005753          	.4byte	0x4e005753
     c50:	5344                	c.lw	s1,36(a4)
     c52:	505f 504d 4441      	.byte	0x5f, 0x50, 0x4d, 0x50, 0x41, 0x44
     c58:	5244                	c.lw	s1,36(a2)
     c5a:	3534                	.2byte	0x3534
     c5c:	4e00                	c.lw	s0,24(a2)
     c5e:	5344                	c.lw	s1,36(a4)
     c60:	4d5f 5048 434d      	.byte	0x5f, 0x4d, 0x48, 0x50, 0x4d, 0x43
     c66:	544e554f          	.4byte	0x544e554f
     c6a:	5245                	c.li	tp,-15
     c6c:	3231                	c.jal	0x578 <trap_entry+0x54>
     c6e:	0048                	c.addi4spn	a0,sp,4
     c70:	444e                	c.lwsp	s0,208(sp)
     c72:	4d505f53          	.4byte	0x4d505f53
     c76:	4150                	c.lw	a2,4(a0)
     c78:	4444                	c.lw	s1,12(s0)
     c7a:	3452                	.2byte	0x3452
     c7c:	0039                	c.nop	14
     c7e:	444e                	c.lwsp	s0,208(sp)
     c80:	50485f53          	.4byte	0x50485f53
     c84:	434d                	c.li	t1,19
     c86:	544e554f          	.4byte	0x544e554f
     c8a:	5245                	c.li	tp,-15
     c8c:	3131                	c.jal	0x898 <system_init+0x3c>
     c8e:	0048                	c.addi4spn	a0,sp,4
     c90:	444e                	c.lwsp	s0,208(sp)
     c92:	43535f53          	.4byte	0x43535f53
     c96:	544e554f          	.4byte	0x544e554f
     c9a:	5245                	c.li	tp,-15
     c9c:	414d                	c.li	sp,19
     c9e:	4d5f4b53          	.4byte	0x4d5f4b53
     ca2:	4e00                	c.lw	s0,24(a2)
     ca4:	5344                	c.lw	s1,36(a4)
     ca6:	4d5f 4f43 4e55      	.byte	0x5f, 0x4d, 0x43, 0x4f, 0x55, 0x4e
     cac:	4554                	c.lw	a3,12(a0)
     cae:	5752                	c.lwsp	a4,52(sp)
     cb0:	4e45                	c.li	t3,17
     cb2:	4e00                	c.lw	s0,24(a2)
     cb4:	5344                	c.lw	s1,36(a4)
     cb6:	4d5f 4553 4343      	.byte	0x5f, 0x4d, 0x53, 0x45, 0x43, 0x43
     cbc:	4746                	c.lwsp	a4,80(sp)
     cbe:	0048                	c.addi4spn	a0,sp,4
     cc0:	444e                	c.lwsp	s0,208(sp)
     cc2:	43535f53          	.4byte	0x43535f53
     cc6:	544e554f          	.4byte	0x544e554f
     cca:	5245                	c.li	tp,-15
     ccc:	414d                	c.li	sp,19
     cce:	555f4b53          	.4byte	0x555f4b53
     cd2:	4e00                	c.lw	s0,24(a2)
     cd4:	5344                	c.lw	s1,36(a4)
     cd6:	565f 5453 5241      	.byte	0x5f, 0x56, 0x53, 0x54, 0x41, 0x52
     cdc:	0054                	c.addi4spn	a3,sp,4
     cde:	444e                	c.lwsp	s0,208(sp)
     ce0:	494d5f53          	.4byte	0x494d5f53
     ce4:	4d4c                	c.lw	a1,28(a0)
     ce6:	0042                	c.slli	zero,0x10
     ce8:	444e                	c.lwsp	s0,208(sp)
     cea:	434d5f53          	.4byte	0x434d5f53
     cee:	544e554f          	.4byte	0x544e554f
     cf2:	5245                	c.li	tp,-15
     cf4:	0046564f          	.4byte	0x46564f
     cf8:	444e                	c.lwsp	s0,208(sp)
     cfa:	484d5f53          	.4byte	0x484d5f53
     cfe:	4d50                	c.lw	a2,28(a0)
     d00:	4e554f43          	.4byte	0x4e554f43
     d04:	4554                	c.lw	a3,12(a0)
     d06:	3152                	.2byte	0x3152
     d08:	0030                	c.addi4spn	a2,sp,8
     d0a:	444e                	c.lwsp	s0,208(sp)
     d0c:	484d5f53          	.4byte	0x484d5f53
     d10:	4d50                	c.lw	a2,28(a0)
     d12:	4e554f43          	.4byte	0x4e554f43
     d16:	4554                	c.lw	a3,12(a0)
     d18:	3152                	.2byte	0x3152
     d1a:	0031                	c.nop	12
     d1c:	444e                	c.lwsp	s0,208(sp)
     d1e:	484d5f53          	.4byte	0x484d5f53
     d22:	4d50                	c.lw	a2,28(a0)
     d24:	4e554f43          	.4byte	0x4e554f43
     d28:	4554                	c.lw	a3,12(a0)
     d2a:	3152                	.2byte	0x3152
     d2c:	0032                	c.slli	zero,0xc
     d2e:	444e                	c.lwsp	s0,208(sp)
     d30:	484d5f53          	.4byte	0x484d5f53
     d34:	4d50                	c.lw	a2,28(a0)
     d36:	4e554f43          	.4byte	0x4e554f43
     d3a:	4554                	c.lw	a3,12(a0)
     d3c:	3152                	.2byte	0x3152
     d3e:	444e0033          	.4byte	0x444e0033
     d42:	484d5f53          	.4byte	0x484d5f53
     d46:	4d50                	c.lw	a2,28(a0)
     d48:	4e554f43          	.4byte	0x4e554f43
     d4c:	4554                	c.lw	a3,12(a0)
     d4e:	3352                	.2byte	0x3352
     d50:	4e00                	c.lw	s0,24(a2)
     d52:	5344                	c.lw	s1,36(a4)
     d54:	4d5f 5048 434d      	.byte	0x5f, 0x4d, 0x48, 0x50, 0x4d, 0x43
     d5a:	544e554f          	.4byte	0x544e554f
     d5e:	5245                	c.li	tp,-15
     d60:	0034                	c.addi4spn	a3,sp,8
     d62:	444e                	c.lwsp	s0,208(sp)
     d64:	484d5f53          	.4byte	0x484d5f53
     d68:	4d50                	c.lw	a2,28(a0)
     d6a:	4e554f43          	.4byte	0x4e554f43
     d6e:	4554                	c.lw	a3,12(a0)
     d70:	3552                	.2byte	0x3552
     d72:	4e00                	c.lw	s0,24(a2)
     d74:	5344                	c.lw	s1,36(a4)
     d76:	4d5f 5048 434d      	.byte	0x5f, 0x4d, 0x48, 0x50, 0x4d, 0x43
     d7c:	544e554f          	.4byte	0x544e554f
     d80:	5245                	c.li	tp,-15
     d82:	0036                	c.slli	zero,0xd
     d84:	444e                	c.lwsp	s0,208(sp)
     d86:	484d5f53          	.4byte	0x484d5f53
     d8a:	4d50                	c.lw	a2,28(a0)
     d8c:	4e554f43          	.4byte	0x4e554f43
     d90:	4554                	c.lw	a3,12(a0)
     d92:	3752                	.2byte	0x3752
     d94:	4e00                	c.lw	s0,24(a2)
     d96:	5344                	c.lw	s1,36(a4)
     d98:	4d5f 5048 434d      	.byte	0x5f, 0x4d, 0x48, 0x50, 0x4d, 0x43
     d9e:	544e554f          	.4byte	0x544e554f
     da2:	5245                	c.li	tp,-15
     da4:	0038                	c.addi4spn	a4,sp,8
     da6:	444e                	c.lwsp	s0,208(sp)
     da8:	484d5f53          	.4byte	0x484d5f53
     dac:	4d50                	c.lw	a2,28(a0)
     dae:	4e554f43          	.4byte	0x4e554f43
     db2:	4554                	c.lw	a3,12(a0)
     db4:	3952                	.2byte	0x3952
     db6:	4e00                	c.lw	s0,24(a2)
     db8:	5344                	c.lw	s1,36(a4)
     dba:	505f 414d 4441      	.byte	0x5f, 0x50, 0x4d, 0x41, 0x41, 0x44
     dc0:	5244                	c.lw	s1,36(a2)
     dc2:	3331                	c.jal	0xace <__nds__wsbh+0x72>
     dc4:	4e00                	c.lw	s0,24(a2)
     dc6:	5344                	c.lw	s1,36(a4)
     dc8:	505f 414d 4441      	.byte	0x5f, 0x50, 0x4d, 0x41, 0x41, 0x44
     dce:	5244                	c.lw	s1,36(a2)
     dd0:	3431                	c.jal	0x7dc <__platform_init>
     dd2:	4e00                	c.lw	s0,24(a2)
     dd4:	5344                	c.lw	s1,36(a4)
     dd6:	505f 414d 4441      	.byte	0x5f, 0x50, 0x4d, 0x41, 0x41, 0x44
     ddc:	5244                	c.lw	s1,36(a2)
     dde:	3531                	c.jal	0xbea <uart_puts+0x26>
     de0:	4e00                	c.lw	s0,24(a2)
     de2:	5344                	c.lw	s1,36(a4)
     de4:	485f 4d50 4f43      	.byte	0x5f, 0x48, 0x50, 0x4d, 0x43, 0x4f
     dea:	4e55                	c.li	t3,21
     dec:	4554                	c.lw	a3,12(a0)
     dee:	3152                	.2byte	0x3152
     df0:	4832                	c.lwsp	a6,12(sp)
     df2:	4e00                	c.lw	s0,24(a2)
     df4:	5344                	c.lw	s1,36(a4)
     df6:	555f 5654 4c41      	.byte	0x5f, 0x55, 0x54, 0x56, 0x41, 0x4c
     dfc:	4e00                	c.lw	s0,24(a2)
     dfe:	5344                	c.lw	s1,36(a4)
     e00:	4d5f 4153 4556      	.byte	0x5f, 0x4d, 0x53, 0x41, 0x56, 0x45
     e06:	54415453          	.4byte	0x54415453
     e0a:	5355                	c.li	t1,-11
     e0c:	4e00                	c.lw	s0,24(a2)
     e0e:	5344                	c.lw	s1,36(a4)
     e10:	4d5f 5654 0054      	.byte	0x5f, 0x4d, 0x54, 0x56, 0x54, 0x00
     e16:	444e                	c.lwsp	s0,208(sp)
     e18:	54495f53          	.4byte	0x54495f53
     e1c:	4952                	c.lwsp	s2,20(sp)
     e1e:	52454747          	.4byte	0x52454747
     e22:	4e00                	c.lw	s0,24(a2)
     e24:	5344                	c.lw	s1,36(a4)
     e26:	4d5f 5048 454d      	.byte	0x5f, 0x4d, 0x48, 0x50, 0x4d, 0x45
     e2c:	4556                	c.lwsp	a0,84(sp)
     e2e:	544e                	c.lwsp	s0,240(sp)
     e30:	3031                	c.jal	0x63c <trap_entry+0x118>
     e32:	0048                	c.addi4spn	a0,sp,4
     e34:	444e                	c.lwsp	s0,208(sp)
     e36:	55505f53          	.4byte	0x55505f53
     e3a:	434d4853          	.4byte	0x434d4853
     e3e:	5541                	c.li	a0,-16
     e40:	5f004553          	.4byte	0x5f004553
     e44:	6e5f 7364 5f5f      	.byte	0x5f, 0x6e, 0x64, 0x73, 0x5f, 0x5f
     e4a:	6c70                	.2byte	0x6c70
     e4c:	6369                	c.lui	t1,0x1a
     e4e:	735f 5f77 6f63      	.byte	0x5f, 0x73, 0x77, 0x5f, 0x63, 0x6f
     e54:	706d                	c.lui	zero,0xffffb
     e56:	656c                	.2byte	0x656c
     e58:	6574                	.2byte	0x6574
     e5a:	695f 746e 7265      	.byte	0x5f, 0x69, 0x6e, 0x74, 0x65, 0x72
     e60:	7572                	.2byte	0x7572
     e62:	7470                	.2byte	0x7470
     e64:	5f00                	c.lw	s0,56(a4)
     e66:	6e5f 7364 5f5f      	.byte	0x5f, 0x6e, 0x64, 0x73, 0x5f, 0x5f
     e6c:	6c70                	.2byte	0x6c70
     e6e:	6369                	c.lui	t1,0x1a
     e70:	635f 616c 6d69      	.byte	0x5f, 0x63, 0x6c, 0x61, 0x69, 0x6d
     e76:	695f 746e 7265      	.byte	0x5f, 0x69, 0x6e, 0x74, 0x65, 0x72
     e7c:	7572                	.2byte	0x7572
     e7e:	7470                	.2byte	0x7470
     e80:	4e00                	c.lw	s0,24(a2)
     e82:	5344                	c.lw	s1,36(a4)
     e84:	535f 5441 0050      	.byte	0x5f, 0x53, 0x41, 0x54, 0x50, 0x00
     e8a:	444e                	c.lwsp	s0,208(sp)
     e8c:	4e4d5f53          	.4byte	0x4e4d5f53
     e90:	4556                	c.lwsp	a0,84(sp)
     e92:	444e0043          	.4byte	0x444e0043
     e96:	4d535f53          	.4byte	0x4d535f53
     e9a:	5349                	c.li	t1,-14
     e9c:	54435f43          	.4byte	0x54435f43
     ea0:	004c                	c.addi4spn	a1,sp,4
     ea2:	444e                	c.lwsp	s0,208(sp)
     ea4:	484d5f53          	.4byte	0x484d5f53
     ea8:	4d50                	c.lw	a2,28(a0)
     eaa:	4e554f43          	.4byte	0x4e554f43
     eae:	4554                	c.lw	a3,12(a0)
     eb0:	3252                	.2byte	0x3252
     eb2:	0030                	c.addi4spn	a2,sp,8
     eb4:	444e                	c.lwsp	s0,208(sp)
     eb6:	484d5f53          	.4byte	0x484d5f53
     eba:	4d50                	c.lw	a2,28(a0)
     ebc:	4e554f43          	.4byte	0x4e554f43
     ec0:	4554                	c.lw	a3,12(a0)
     ec2:	3252                	.2byte	0x3252
     ec4:	0031                	c.nop	12
     ec6:	444e                	c.lwsp	s0,208(sp)
     ec8:	4d505f53          	.4byte	0x4d505f53
     ecc:	4150                	c.lw	a2,4(a0)
     ece:	4444                	c.lw	s1,12(s0)
     ed0:	3552                	.2byte	0x3552
     ed2:	0034                	c.addi4spn	a3,sp,8
     ed4:	444e                	c.lwsp	s0,208(sp)
     ed6:	454d5f53          	.4byte	0x454d5f53
     eda:	564e                	c.lwsp	a2,240(sp)
     edc:	00474643          	.4byte	0x474643
     ee0:	444e                	c.lwsp	s0,208(sp)
     ee2:	4d505f53          	.4byte	0x4d505f53
     ee6:	4150                	c.lw	a2,4(a0)
     ee8:	4444                	c.lw	s1,12(s0)
     eea:	3552                	.2byte	0x3552
     eec:	0035                	c.nop	13
     eee:	444e                	c.lwsp	s0,208(sp)
     ef0:	484d5f53          	.4byte	0x484d5f53
     ef4:	4d50                	c.lw	a2,28(a0)
     ef6:	4e554f43          	.4byte	0x4e554f43
     efa:	4554                	c.lw	a3,12(a0)
     efc:	3252                	.2byte	0x3252
     efe:	0035                	c.nop	13
     f00:	444e                	c.lwsp	s0,208(sp)
     f02:	484d5f53          	.4byte	0x484d5f53
     f06:	4d50                	c.lw	a2,28(a0)
     f08:	4e554f43          	.4byte	0x4e554f43
     f0c:	4554                	c.lw	a3,12(a0)
     f0e:	3252                	.2byte	0x3252
     f10:	0036                	c.slli	zero,0xd
     f12:	444e                	c.lwsp	s0,208(sp)
     f14:	484d5f53          	.4byte	0x484d5f53
     f18:	4d50                	c.lw	a2,28(a0)
     f1a:	4e554f43          	.4byte	0x4e554f43
     f1e:	4554                	c.lw	a3,12(a0)
     f20:	3252                	.2byte	0x3252
     f22:	444e0037          	lui	zero,0x444e0
     f26:	484d5f53          	.4byte	0x484d5f53
     f2a:	4d50                	c.lw	a2,28(a0)
     f2c:	4e554f43          	.4byte	0x4e554f43
     f30:	4554                	c.lw	a3,12(a0)
     f32:	3252                	.2byte	0x3252
     f34:	0038                	c.addi4spn	a4,sp,8
     f36:	444e                	c.lwsp	s0,208(sp)
     f38:	484d5f53          	.4byte	0x484d5f53
     f3c:	4d50                	c.lw	a2,28(a0)
     f3e:	4e554f43          	.4byte	0x4e554f43
     f42:	4554                	c.lw	a3,12(a0)
     f44:	3252                	.2byte	0x3252
     f46:	0039                	c.nop	14
     f48:	444e                	c.lwsp	s0,208(sp)
     f4a:	50485f53          	.4byte	0x50485f53
     f4e:	434d                	c.li	t1,19
     f50:	544e554f          	.4byte	0x544e554f
     f54:	5245                	c.li	tp,-15
     f56:	3331                	c.jal	0xc62 <outbyte+0x2a>
     f58:	0048                	c.addi4spn	a0,sp,4
     f5a:	444e                	c.lwsp	s0,208(sp)
     f5c:	484d5f53          	.4byte	0x484d5f53
     f60:	4d50                	c.lw	a2,28(a0)
     f62:	5645                	c.li	a2,-15
     f64:	4e45                	c.li	t3,17
     f66:	3154                	.2byte	0x3154
     f68:	4831                	c.li	a6,12
     f6a:	4e00                	c.lw	s0,24(a2)
     f6c:	5344                	c.lw	s1,36(a4)
     f6e:	535f 4f43 4e55      	.byte	0x5f, 0x53, 0x43, 0x4f, 0x55, 0x4e
     f74:	4954                	c.lw	a3,20(a0)
     f76:	484e                	c.lwsp	a6,208(sp)
     f78:	4249                	c.li	tp,18
     f7a:	5449                	c.li	s0,-14
     f7c:	4e00                	c.lw	s0,24(a2)
     f7e:	5344                	c.lw	s1,36(a4)
     f80:	4d5f 5654 4345      	.byte	0x5f, 0x4d, 0x54, 0x56, 0x45, 0x43
     f86:	4e00                	c.lw	s0,24(a2)
     f88:	5344                	c.lw	s1,36(a4)
     f8a:	535f 5048 454d      	.byte	0x5f, 0x53, 0x48, 0x50, 0x4d, 0x45
     f90:	4556                	c.lwsp	a0,84(sp)
     f92:	544e                	c.lwsp	s0,240(sp)
     f94:	444e0033          	.4byte	0x444e0033
     f98:	48535f53          	.4byte	0x48535f53
     f9c:	4d50                	c.lw	a2,28(a0)
     f9e:	5645                	c.li	a2,-15
     fa0:	4e45                	c.li	t3,17
     fa2:	3454                	.2byte	0x3454
     fa4:	4e00                	c.lw	s0,24(a2)
     fa6:	5344                	c.lw	s1,36(a4)
     fa8:	535f 5048 454d      	.byte	0x5f, 0x53, 0x48, 0x50, 0x4d, 0x45
     fae:	4556                	c.lwsp	a0,84(sp)
     fb0:	544e                	c.lwsp	s0,240(sp)
     fb2:	0035                	c.nop	13
     fb4:	444e                	c.lwsp	s0,208(sp)
     fb6:	48535f53          	.4byte	0x48535f53
     fba:	4d50                	c.lw	a2,28(a0)
     fbc:	5645                	c.li	a2,-15
     fbe:	4e45                	c.li	t3,17
     fc0:	3654                	.2byte	0x3654
     fc2:	4e00                	c.lw	s0,24(a2)
     fc4:	5344                	c.lw	s1,36(a4)
     fc6:	555f 5453 5441      	.byte	0x5f, 0x55, 0x53, 0x54, 0x41, 0x54
     fcc:	5355                	c.li	t1,-11
     fce:	4e00                	c.lw	s0,24(a2)
     fd0:	5344                	c.lw	s1,36(a4)
     fd2:	4d5f 5048 434d      	.byte	0x5f, 0x4d, 0x48, 0x50, 0x4d, 0x43
     fd8:	544e554f          	.4byte	0x544e554f
     fdc:	5245                	c.li	tp,-15
     fde:	4e003033          	.4byte	0x4e003033
     fe2:	5344                	c.lw	s1,36(a4)
     fe4:	4d5f 5048 434d      	.byte	0x5f, 0x4d, 0x48, 0x50, 0x4d, 0x43
     fea:	544e554f          	.4byte	0x544e554f
     fee:	5245                	c.li	tp,-15
     ff0:	4e003133          	.4byte	0x4e003133
     ff4:	5344                	c.lw	s1,36(a4)
     ff6:	4d5f 5048 434d      	.byte	0x5f, 0x4d, 0x48, 0x50, 0x4d, 0x43
     ffc:	544e554f          	.4byte	0x544e554f
    1000:	5245                	c.li	tp,-15
    1002:	3531                	c.jal	0xe0e <simple_delay_ms+0xa>
    1004:	0048                	c.addi4spn	a0,sp,4
    1006:	444e                	c.lwsp	s0,208(sp)
    1008:	50485f53          	.4byte	0x50485f53
    100c:	434d                	c.li	t1,19
    100e:	544e554f          	.4byte	0x544e554f
    1012:	5245                	c.li	tp,-15
    1014:	3431                	c.jal	0xa20 <__nds__rotr+0x8>
    1016:	0048                	c.addi4spn	a0,sp,4
    1018:	444e                	c.lwsp	s0,208(sp)
    101a:	4d505f53          	.4byte	0x4d505f53
    101e:	4150                	c.lw	a2,4(a0)
    1020:	4444                	c.lw	s1,12(s0)
    1022:	3152                	.2byte	0x3152
    1024:	0030                	c.addi4spn	a2,sp,8
    1026:	444e                	c.lwsp	s0,208(sp)
    1028:	4d505f53          	.4byte	0x4d505f53
    102c:	4150                	c.lw	a2,4(a0)
    102e:	4444                	c.lw	s1,12(s0)
    1030:	3152                	.2byte	0x3152
    1032:	0031                	c.nop	12
    1034:	444e                	c.lwsp	s0,208(sp)
    1036:	4d505f53          	.4byte	0x4d505f53
    103a:	4150                	c.lw	a2,4(a0)
    103c:	4444                	c.lw	s1,12(s0)
    103e:	3152                	.2byte	0x3152
    1040:	0032                	c.slli	zero,0xc
    1042:	444e                	c.lwsp	s0,208(sp)
    1044:	4d505f53          	.4byte	0x4d505f53
    1048:	4150                	c.lw	a2,4(a0)
    104a:	4444                	c.lw	s1,12(s0)
    104c:	3152                	.2byte	0x3152
    104e:	444e0033          	.4byte	0x444e0033
    1052:	4d505f53          	.4byte	0x4d505f53
    1056:	4150                	c.lw	a2,4(a0)
    1058:	4444                	c.lw	s1,12(s0)
    105a:	3152                	.2byte	0x3152
    105c:	0034                	c.addi4spn	a3,sp,8
    105e:	444e                	c.lwsp	s0,208(sp)
    1060:	4d505f53          	.4byte	0x4d505f53
    1064:	4150                	c.lw	a2,4(a0)
    1066:	4444                	c.lw	s1,12(s0)
    1068:	3152                	.2byte	0x3152
    106a:	0036                	c.slli	zero,0xd
    106c:	444e                	c.lwsp	s0,208(sp)
    106e:	4d505f53          	.4byte	0x4d505f53
    1072:	4150                	c.lw	a2,4(a0)
    1074:	4444                	c.lw	s1,12(s0)
    1076:	3152                	.2byte	0x3152
    1078:	444e0037          	lui	zero,0x444e0
    107c:	4d505f53          	.4byte	0x4d505f53
    1080:	4150                	c.lw	a2,4(a0)
    1082:	4444                	c.lw	s1,12(s0)
    1084:	3152                	.2byte	0x3152
    1086:	0038                	c.addi4spn	a4,sp,8
    1088:	444e                	c.lwsp	s0,208(sp)
    108a:	4d505f53          	.4byte	0x4d505f53
    108e:	4150                	c.lw	a2,4(a0)
    1090:	4444                	c.lw	s1,12(s0)
    1092:	3152                	.2byte	0x3152
    1094:	0039                	c.nop	14
    1096:	444e                	c.lwsp	s0,208(sp)
    1098:	484d5f53          	.4byte	0x484d5f53
    109c:	4d50                	c.lw	a2,28(a0)
    109e:	5645                	c.li	a2,-15
    10a0:	4e45                	c.li	t3,17
    10a2:	3154                	.2byte	0x3154
    10a4:	4832                	c.lwsp	a6,12(sp)
    10a6:	4e00                	c.lw	s0,24(a2)
    10a8:	5344                	c.lw	s1,36(a4)
    10aa:	4d5f 534d 5f43      	.byte	0x5f, 0x4d, 0x4d, 0x53, 0x43, 0x5f
    10b0:	00474643          	.4byte	0x474643
    10b4:	444e                	c.lwsp	s0,208(sp)
    10b6:	46575f53          	.4byte	0x46575f53
    10ba:	0045                	c.nop	17
    10bc:	444e                	c.lwsp	s0,208(sp)
    10be:	524d5f53          	.4byte	0x524d5f53
    10c2:	4156                	c.lwsp	sp,84(sp)
    10c4:	4352                	c.lwsp	t1,20(sp)
    10c6:	5f48                	c.lw	a0,60(a4)
    10c8:	00474643          	.4byte	0x474643
    10cc:	444e                	c.lwsp	s0,208(sp)
    10ce:	4d505f53          	.4byte	0x4d505f53
    10d2:	4150                	c.lw	a2,4(a0)
    10d4:	4444                	c.lw	s1,12(s0)
    10d6:	3052                	.2byte	0x3052
    10d8:	4e00                	c.lw	s0,24(a2)
    10da:	5344                	c.lw	s1,36(a4)
    10dc:	505f 504d 4441      	.byte	0x5f, 0x50, 0x4d, 0x50, 0x41, 0x44
    10e2:	5244                	c.lw	s1,36(a2)
    10e4:	0031                	c.nop	12
    10e6:	444e                	c.lwsp	s0,208(sp)
    10e8:	4d505f53          	.4byte	0x4d505f53
    10ec:	4150                	c.lw	a2,4(a0)
    10ee:	4444                	c.lw	s1,12(s0)
    10f0:	3252                	.2byte	0x3252
    10f2:	4e00                	c.lw	s0,24(a2)
    10f4:	5344                	c.lw	s1,36(a4)
    10f6:	505f 504d 4441      	.byte	0x5f, 0x50, 0x4d, 0x50, 0x41, 0x44
    10fc:	5244                	c.lw	s1,36(a2)
    10fe:	444e0033          	.4byte	0x444e0033
    1102:	4d505f53          	.4byte	0x4d505f53
    1106:	4150                	c.lw	a2,4(a0)
    1108:	4444                	c.lw	s1,12(s0)
    110a:	3452                	.2byte	0x3452
    110c:	4e00                	c.lw	s0,24(a2)
    110e:	5344                	c.lw	s1,36(a4)
    1110:	505f 504d 4441      	.byte	0x5f, 0x50, 0x4d, 0x50, 0x41, 0x44
    1116:	5244                	c.lw	s1,36(a2)
    1118:	0035                	c.nop	13
    111a:	444e                	c.lwsp	s0,208(sp)
    111c:	4d505f53          	.4byte	0x4d505f53
    1120:	4150                	c.lw	a2,4(a0)
    1122:	4444                	c.lw	s1,12(s0)
    1124:	3652                	.2byte	0x3652
    1126:	4e00                	c.lw	s0,24(a2)
    1128:	5344                	c.lw	s1,36(a4)
    112a:	505f 504d 4441      	.byte	0x5f, 0x50, 0x4d, 0x50, 0x41, 0x44
    1130:	5244                	c.lw	s1,36(a2)
    1132:	444e0037          	lui	zero,0x444e0
    1136:	4d505f53          	.4byte	0x4d505f53
    113a:	4150                	c.lw	a2,4(a0)
    113c:	4444                	c.lw	s1,12(s0)
    113e:	3852                	.2byte	0x3852
    1140:	4e00                	c.lw	s0,24(a2)
    1142:	5344                	c.lw	s1,36(a4)
    1144:	505f 504d 4441      	.byte	0x5f, 0x50, 0x4d, 0x50, 0x41, 0x44
    114a:	5244                	c.lw	s1,36(a2)
    114c:	0039                	c.nop	14
    114e:	444e                	c.lwsp	s0,208(sp)
    1150:	484d5f53          	.4byte	0x484d5f53
    1154:	4d50                	c.lw	a2,28(a0)
    1156:	4e554f43          	.4byte	0x4e554f43
    115a:	4554                	c.lw	a3,12(a0)
    115c:	3152                	.2byte	0x3152
    115e:	4836                	c.lwsp	a6,76(sp)
    1160:	4e00                	c.lw	s0,24(a2)
    1162:	5344                	c.lw	s1,36(a4)
    1164:	4d5f 584e 4954      	.byte	0x5f, 0x4d, 0x4e, 0x58, 0x54, 0x49
    116a:	4e00                	c.lw	s0,24(a2)
    116c:	5344                	c.lw	s1,36(a4)
    116e:	4d5f 5048 434d      	.byte	0x5f, 0x4d, 0x48, 0x50, 0x4d, 0x43
    1174:	544e554f          	.4byte	0x544e554f
    1178:	5245                	c.li	tp,-15
    117a:	3032                	.2byte	0x3032
    117c:	0048                	c.addi4spn	a0,sp,4
    117e:	444e                	c.lwsp	s0,208(sp)
    1180:	50485f53          	.4byte	0x50485f53
    1184:	434d                	c.li	t1,19
    1186:	544e554f          	.4byte	0x544e554f
    118a:	5245                	c.li	tp,-15
    118c:	3531                	c.jal	0xf98 <printi+0x14>
    118e:	0048                	c.addi4spn	a0,sp,4
    1190:	444e                	c.lwsp	s0,208(sp)
    1192:	58565f53          	.4byte	0x58565f53
    1196:	4d52                	c.lwsp	s10,20(sp)
    1198:	4e00                	c.lw	s0,24(a2)
    119a:	5344                	c.lw	s1,36(a4)
    119c:	505f 504d 4441      	.byte	0x5f, 0x50, 0x4d, 0x50, 0x41, 0x44
    11a2:	5244                	c.lw	s1,36(a2)
    11a4:	3032                	.2byte	0x3032
    11a6:	4e00                	c.lw	s0,24(a2)
    11a8:	5344                	c.lw	s1,36(a4)
    11aa:	505f 504d 4441      	.byte	0x5f, 0x50, 0x4d, 0x50, 0x41, 0x44
    11b0:	5244                	c.lw	s1,36(a2)
    11b2:	3132                	.2byte	0x3132
    11b4:	4e00                	c.lw	s0,24(a2)
    11b6:	5344                	c.lw	s1,36(a4)
    11b8:	505f 504d 4441      	.byte	0x5f, 0x50, 0x4d, 0x50, 0x41, 0x44
    11be:	5244                	c.lw	s1,36(a2)
    11c0:	3232                	.2byte	0x3232
    11c2:	4e00                	c.lw	s0,24(a2)
    11c4:	5344                	c.lw	s1,36(a4)
    11c6:	505f 504d 4441      	.byte	0x5f, 0x50, 0x4d, 0x50, 0x41, 0x44
    11cc:	5244                	c.lw	s1,36(a2)
    11ce:	3332                	.2byte	0x3332
    11d0:	4e00                	c.lw	s0,24(a2)
    11d2:	5344                	c.lw	s1,36(a4)
    11d4:	505f 504d 4441      	.byte	0x5f, 0x50, 0x4d, 0x50, 0x41, 0x44
    11da:	5244                	c.lw	s1,36(a2)
    11dc:	3432                	.2byte	0x3432
    11de:	4e00                	c.lw	s0,24(a2)
    11e0:	5344                	c.lw	s1,36(a4)
    11e2:	4d5f 5453 5441      	.byte	0x5f, 0x4d, 0x53, 0x54, 0x41, 0x54
    11e8:	4545                	c.li	a0,17
    11ea:	304e                	.2byte	0x304e
    11ec:	4e00                	c.lw	s0,24(a2)
    11ee:	5344                	c.lw	s1,36(a4)
    11f0:	4d5f 5453 5441      	.byte	0x5f, 0x4d, 0x53, 0x54, 0x41, 0x54
    11f6:	4545                	c.li	a0,17
    11f8:	314e                	.2byte	0x314e
    11fa:	4e00                	c.lw	s0,24(a2)
    11fc:	5344                	c.lw	s1,36(a4)
    11fe:	4d5f 5453 5441      	.byte	0x5f, 0x4d, 0x53, 0x54, 0x41, 0x54
    1204:	4545                	c.li	a0,17
    1206:	324e                	.2byte	0x324e
    1208:	4e00                	c.lw	s0,24(a2)
    120a:	5344                	c.lw	s1,36(a4)
    120c:	4d5f 5453 5441      	.byte	0x5f, 0x4d, 0x53, 0x54, 0x41, 0x54
    1212:	4545                	c.li	a0,17
    1214:	334e                	.2byte	0x334e
    1216:	4e00                	c.lw	s0,24(a2)
    1218:	5344                	c.lw	s1,36(a4)
    121a:	505f 504d 4441      	.byte	0x5f, 0x50, 0x4d, 0x50, 0x41, 0x44
    1220:	5244                	c.lw	s1,36(a2)
    1222:	3932                	.2byte	0x3932
    1224:	4e00                	c.lw	s0,24(a2)
    1226:	5344                	c.lw	s1,36(a4)
    1228:	4d5f 5048 454d      	.byte	0x5f, 0x4d, 0x48, 0x50, 0x4d, 0x45
    122e:	4556                	c.lwsp	a0,84(sp)
    1230:	544e                	c.lwsp	s0,240(sp)
    1232:	3331                	c.jal	0xf3e <prints+0xa6>
    1234:	0048                	c.addi4spn	a0,sp,4
    1236:	444e                	c.lwsp	s0,208(sp)
    1238:	434d5f53          	.4byte	0x434d5f53
    123c:	4341                	c.li	t1,16
    123e:	4548                	c.lw	a0,12(a0)
    1240:	435f 4c54 4e00      	.byte	0x5f, 0x43, 0x54, 0x4c, 0x00, 0x4e
    1246:	5344                	c.lw	s1,36(a4)
    1248:	505f 414d 4643      	.byte	0x5f, 0x50, 0x4d, 0x41, 0x43, 0x46
    124e:	4e003047          	.4byte	0x4e003047
    1252:	5344                	c.lw	s1,36(a4)
    1254:	505f 414d 4643      	.byte	0x5f, 0x50, 0x4d, 0x41, 0x43, 0x46
    125a:	4e003147          	.4byte	0x4e003147
    125e:	5344                	c.lw	s1,36(a4)
    1260:	505f 414d 4643      	.byte	0x5f, 0x50, 0x4d, 0x41, 0x43, 0x46
    1266:	4e003247          	.4byte	0x4e003247
    126a:	5344                	c.lw	s1,36(a4)
    126c:	505f 414d 4643      	.byte	0x5f, 0x50, 0x4d, 0x41, 0x43, 0x46
    1272:	4e003347          	.4byte	0x4e003347
    1276:	5344                	c.lw	s1,36(a4)
    1278:	4d5f 5241 4843      	.byte	0x5f, 0x4d, 0x41, 0x52, 0x43, 0x48
    127e:	4449                	c.li	s0,18
    1280:	4e00                	c.lw	s0,24(a2)
    1282:	5344                	c.lw	s1,36(a4)
    1284:	555f 5654 4345      	.byte	0x5f, 0x55, 0x54, 0x56, 0x45, 0x43
    128a:	4e00                	c.lw	s0,24(a2)
    128c:	5344                	c.lw	s1,36(a4)
    128e:	4d5f 4e49 5453      	.byte	0x5f, 0x4d, 0x49, 0x4e, 0x53, 0x54
    1294:	4552                	c.lwsp	a0,20(sp)
    1296:	0054                	c.addi4spn	a3,sp,4
    1298:	444e                	c.lwsp	s0,208(sp)
    129a:	534d5f53          	.4byte	0x534d5f53
    129e:	54415243          	.4byte	0x54415243
    12a2:	53434843          	.4byte	0x53434843
    12a6:	4e004c57          	.4byte	0x4e004c57
    12aa:	5344                	c.lw	s1,36(a4)
    12ac:	4d5f 5048 434d      	.byte	0x5f, 0x4d, 0x48, 0x50, 0x4d, 0x43
    12b2:	544e554f          	.4byte	0x544e554f
    12b6:	5245                	c.li	tp,-15
    12b8:	3132                	.2byte	0x3132
    12ba:	0048                	c.addi4spn	a0,sp,4
    12bc:	444e                	c.lwsp	s0,208(sp)
    12be:	46465f53          	.4byte	0x46465f53
    12c2:	414c                	c.lw	a1,4(a0)
    12c4:	4e005347          	.4byte	0x4e005347
    12c8:	5344                	c.lw	s1,36(a4)
    12ca:	4d5f 5048 454d      	.byte	0x5f, 0x4d, 0x48, 0x50, 0x4d, 0x45
    12d0:	4556                	c.lwsp	a0,84(sp)
    12d2:	544e                	c.lwsp	s0,240(sp)
    12d4:	0035                	c.nop	13
    12d6:	444e                	c.lwsp	s0,208(sp)
    12d8:	484d5f53          	.4byte	0x484d5f53
    12dc:	4d50                	c.lw	a2,28(a0)
    12de:	5645                	c.li	a2,-15
    12e0:	4e45                	c.li	t3,17
    12e2:	3654                	.2byte	0x3654
    12e4:	4e00                	c.lw	s0,24(a2)
    12e6:	5344                	c.lw	s1,36(a4)
    12e8:	4d5f 5048 454d      	.byte	0x5f, 0x4d, 0x48, 0x50, 0x4d, 0x45
    12ee:	4556                	c.lwsp	a0,84(sp)
    12f0:	544e                	c.lwsp	s0,240(sp)
    12f2:	444e0037          	lui	zero,0x444e0
    12f6:	4d505f53          	.4byte	0x4d505f53
    12fa:	4150                	c.lw	a2,4(a0)
    12fc:	4444                	c.lw	s1,12(s0)
    12fe:	3352                	.2byte	0x3352
    1300:	0030                	c.addi4spn	a2,sp,8
    1302:	444e                	c.lwsp	s0,208(sp)
    1304:	4d505f53          	.4byte	0x4d505f53
    1308:	4150                	c.lw	a2,4(a0)
    130a:	4444                	c.lw	s1,12(s0)
    130c:	3352                	.2byte	0x3352
    130e:	0031                	c.nop	12
    1310:	444e                	c.lwsp	s0,208(sp)
    1312:	49555f53          	.4byte	0x49555f53
    1316:	0045                	c.nop	17
    1318:	444e                	c.lwsp	s0,208(sp)
    131a:	4d505f53          	.4byte	0x4d505f53
    131e:	4150                	c.lw	a2,4(a0)
    1320:	4444                	c.lw	s1,12(s0)
    1322:	3352                	.2byte	0x3352
    1324:	444e0033          	.4byte	0x444e0033
    1328:	4d505f53          	.4byte	0x4d505f53
    132c:	4150                	c.lw	a2,4(a0)
    132e:	4444                	c.lw	s1,12(s0)
    1330:	3352                	.2byte	0x3352
    1332:	0034                	c.addi4spn	a3,sp,8
    1334:	444e                	c.lwsp	s0,208(sp)
    1336:	50485f53          	.4byte	0x50485f53
    133a:	434d                	c.li	t1,19
    133c:	544e554f          	.4byte	0x544e554f
    1340:	5245                	c.li	tp,-15
    1342:	3032                	.2byte	0x3032
    1344:	0048                	c.addi4spn	a0,sp,4
    1346:	444e                	c.lwsp	s0,208(sp)
    1348:	4d505f53          	.4byte	0x4d505f53
    134c:	4150                	c.lw	a2,4(a0)
    134e:	4444                	c.lw	s1,12(s0)
    1350:	3352                	.2byte	0x3352
    1352:	0036                	c.slli	zero,0xd
    1354:	444e                	c.lwsp	s0,208(sp)
    1356:	4d505f53          	.4byte	0x4d505f53
    135a:	4150                	c.lw	a2,4(a0)
    135c:	4444                	c.lw	s1,12(s0)
    135e:	3352                	.2byte	0x3352
    1360:	444e0037          	lui	zero,0x444e0
    1364:	4d505f53          	.4byte	0x4d505f53
    1368:	4150                	c.lw	a2,4(a0)
    136a:	4444                	c.lw	s1,12(s0)
    136c:	3352                	.2byte	0x3352
    136e:	0038                	c.addi4spn	a4,sp,8
    1370:	444e                	c.lwsp	s0,208(sp)
    1372:	4d505f53          	.4byte	0x4d505f53
    1376:	4150                	c.lw	a2,4(a0)
    1378:	4444                	c.lw	s1,12(s0)
    137a:	3352                	.2byte	0x3352
    137c:	0039                	c.nop	14
    137e:	444e                	c.lwsp	s0,208(sp)
    1380:	484d5f53          	.4byte	0x484d5f53
    1384:	4d50                	c.lw	a2,28(a0)
    1386:	4e554f43          	.4byte	0x4e554f43
    138a:	4554                	c.lw	a3,12(a0)
    138c:	3152                	.2byte	0x3152
    138e:	0035                	c.nop	13
    1390:	444e                	c.lwsp	s0,208(sp)
    1392:	54455f53          	.4byte	0x54455f53
    1396:	4952                	c.lwsp	s2,20(sp)
    1398:	52454747          	.4byte	0x52454747
    139c:	4e00                	c.lw	s0,24(a2)
    139e:	5344                	c.lw	s1,36(a4)
    13a0:	4d5f 5048 434d      	.byte	0x5f, 0x4d, 0x48, 0x50, 0x4d, 0x43
    13a6:	544e554f          	.4byte	0x544e554f
    13aa:	5245                	c.li	tp,-15
    13ac:	3631                	c.jal	0xeb8 <prints+0x20>
    13ae:	4e00                	c.lw	s0,24(a2)
    13b0:	5344                	c.lw	s1,36(a4)
    13b2:	555f 5049 4e00      	.byte	0x5f, 0x55, 0x49, 0x50, 0x00, 0x4e
    13b8:	5344                	c.lw	s1,36(a4)
    13ba:	4d5f 5048 434d      	.byte	0x5f, 0x4d, 0x48, 0x50, 0x4d, 0x43
    13c0:	544e554f          	.4byte	0x544e554f
    13c4:	5245                	c.li	tp,-15
    13c6:	3731                	c.jal	0x12d2 <print+0x222>
    13c8:	4e00                	c.lw	s0,24(a2)
    13ca:	5344                	c.lw	s1,36(a4)
    13cc:	4d5f 5048 454d      	.byte	0x5f, 0x4d, 0x48, 0x50, 0x4d, 0x45
    13d2:	4556                	c.lwsp	a0,84(sp)
    13d4:	544e                	c.lwsp	s0,240(sp)
    13d6:	3431                	c.jal	0xde2 <time+0x4a>
    13d8:	0048                	c.addi4spn	a0,sp,4
    13da:	444e                	c.lwsp	s0,208(sp)
    13dc:	484d5f53          	.4byte	0x484d5f53
    13e0:	4d50                	c.lw	a2,28(a0)
    13e2:	4e554f43          	.4byte	0x4e554f43
    13e6:	4554                	c.lw	a3,12(a0)
    13e8:	3152                	.2byte	0x3152
    13ea:	0038                	c.addi4spn	a4,sp,8
    13ec:	444e                	c.lwsp	s0,208(sp)
    13ee:	484d5f53          	.4byte	0x484d5f53
    13f2:	4d50                	c.lw	a2,28(a0)
    13f4:	4e554f43          	.4byte	0x4e554f43
    13f8:	4554                	c.lw	a3,12(a0)
    13fa:	3152                	.2byte	0x3152
    13fc:	0039                	c.nop	14
    13fe:	444e                	c.lwsp	s0,208(sp)
    1400:	49545f53          	.4byte	0x49545f53
    1404:	464e                	c.lwsp	a2,208(sp)
    1406:	444e004f          	.4byte	0x444e004f
    140a:	484d5f53          	.4byte	0x484d5f53
    140e:	4d50                	c.lw	a2,28(a0)
    1410:	4e554f43          	.4byte	0x4e554f43
    1414:	4554                	c.lw	a3,12(a0)
    1416:	3152                	.2byte	0x3152
    1418:	4838                	c.lw	a4,80(s0)
    141a:	4e00                	c.lw	s0,24(a2)
    141c:	5344                	c.lw	s1,36(a4)
    141e:	4d5f 5048 434d      	.byte	0x5f, 0x4d, 0x48, 0x50, 0x4d, 0x43
    1424:	544e554f          	.4byte	0x544e554f
    1428:	5245                	c.li	tp,-15
    142a:	3232                	.2byte	0x3232
    142c:	0048                	c.addi4spn	a0,sp,4
    142e:	444e                	c.lwsp	s0,208(sp)
    1430:	50485f53          	.4byte	0x50485f53
    1434:	434d                	c.li	t1,19
    1436:	544e554f          	.4byte	0x544e554f
    143a:	5245                	c.li	tp,-15
    143c:	3731                	c.jal	0x1348 <print+0x298>
    143e:	0048                	c.addi4spn	a0,sp,4
    1440:	444e                	c.lwsp	s0,208(sp)
    1442:	4d505f53          	.4byte	0x4d505f53
    1446:	4150                	c.lw	a2,4(a0)
    1448:	4444                	c.lw	s1,12(s0)
    144a:	3452                	.2byte	0x3452
    144c:	0030                	c.addi4spn	a2,sp,8
    144e:	444e                	c.lwsp	s0,208(sp)
    1450:	4d505f53          	.4byte	0x4d505f53
    1454:	4150                	c.lw	a2,4(a0)
    1456:	4444                	c.lw	s1,12(s0)
    1458:	3452                	.2byte	0x3452
    145a:	0031                	c.nop	12
    145c:	444e                	c.lwsp	s0,208(sp)
    145e:	4d505f53          	.4byte	0x4d505f53
    1462:	4150                	c.lw	a2,4(a0)
    1464:	4444                	c.lw	s1,12(s0)
    1466:	3452                	.2byte	0x3452
    1468:	0032                	c.slli	zero,0xc
    146a:	444e                	c.lwsp	s0,208(sp)
    146c:	4d505f53          	.4byte	0x4d505f53
    1470:	4150                	c.lw	a2,4(a0)
    1472:	4444                	c.lw	s1,12(s0)
    1474:	3452                	.2byte	0x3452
    1476:	444e0033          	.4byte	0x444e0033
    147a:	4d505f53          	.4byte	0x4d505f53
    147e:	4150                	c.lw	a2,4(a0)
    1480:	4444                	c.lw	s1,12(s0)
    1482:	3452                	.2byte	0x3452
    1484:	0034                	c.addi4spn	a3,sp,8
    1486:	444e                	c.lwsp	s0,208(sp)
    1488:	50485f53          	.4byte	0x50485f53
    148c:	434d                	c.li	t1,19
    148e:	544e554f          	.4byte	0x544e554f
    1492:	5245                	c.li	tp,-15
    1494:	3132                	.2byte	0x3132
    1496:	0048                	c.addi4spn	a0,sp,4
    1498:	444e                	c.lwsp	s0,208(sp)
    149a:	4d505f53          	.4byte	0x4d505f53
    149e:	4150                	c.lw	a2,4(a0)
    14a0:	4444                	c.lw	s1,12(s0)
    14a2:	3452                	.2byte	0x3452
    14a4:	0036                	c.slli	zero,0xd
    14a6:	444e                	c.lwsp	s0,208(sp)
    14a8:	4d505f53          	.4byte	0x4d505f53
    14ac:	4150                	c.lw	a2,4(a0)
    14ae:	4444                	c.lw	s1,12(s0)
    14b0:	3452                	.2byte	0x3452
    14b2:	444e0037          	lui	zero,0x444e0
    14b6:	4d505f53          	.4byte	0x4d505f53
    14ba:	4150                	c.lw	a2,4(a0)
    14bc:	4444                	c.lw	s1,12(s0)
    14be:	3452                	.2byte	0x3452
    14c0:	0038                	c.addi4spn	a4,sp,8
    14c2:	444e                	c.lwsp	s0,208(sp)
    14c4:	42535f53          	.4byte	0x42535f53
    14c8:	4441                	c.li	s0,16
    14ca:	4441                	c.li	s0,16
    14cc:	5244                	c.lw	s1,36(a2)
    14ce:	4e00                	c.lw	s0,24(a2)
    14d0:	5344                	c.lw	s1,36(a4)
    14d2:	4d5f 5048 454d      	.byte	0x5f, 0x4d, 0x48, 0x50, 0x4d, 0x45
    14d8:	4556                	c.lwsp	a0,84(sp)
    14da:	544e                	c.lwsp	s0,240(sp)
    14dc:	3431                	c.jal	0xee8 <prints+0x50>
    14de:	4e00                	c.lw	s0,24(a2)
    14e0:	5344                	c.lw	s1,36(a4)
    14e2:	4d5f 5048 454d      	.byte	0x5f, 0x4d, 0x48, 0x50, 0x4d, 0x45
    14e8:	4556                	c.lwsp	a0,84(sp)
    14ea:	544e                	c.lwsp	s0,240(sp)
    14ec:	3531                	c.jal	0x12f8 <print+0x248>
    14ee:	0048                	c.addi4spn	a0,sp,4
    14f0:	444e                	c.lwsp	s0,208(sp)
    14f2:	49535f53          	.4byte	0x49535f53
    14f6:	4544                	c.lw	s1,12(a0)
    14f8:	454c                	c.lw	a1,12(a0)
    14fa:	444e0047          	.4byte	0x444e0047
    14fe:	494d5f53          	.4byte	0x494d5f53
    1502:	544e                	c.lwsp	s0,240(sp)
    1504:	4854                	c.lw	a3,20(s0)
    1506:	4552                	c.lwsp	a0,20(sp)
    1508:	4e004853          	.4byte	0x4e004853
    150c:	5344                	c.lw	s1,36(a4)
    150e:	555f 4353 4152      	.byte	0x5f, 0x55, 0x53, 0x43, 0x52, 0x41
    1514:	4354                	c.lw	a3,4(a4)
    1516:	0048                	c.addi4spn	a0,sp,4
    1518:	444e                	c.lwsp	s0,208(sp)
    151a:	484d5f53          	.4byte	0x484d5f53
    151e:	4d50                	c.lw	a2,28(a0)
    1520:	4e554f43          	.4byte	0x4e554f43
    1524:	4554                	c.lw	a3,12(a0)
    1526:	3152                	.2byte	0x3152
    1528:	4839                	c.li	a6,14
    152a:	4e00                	c.lw	s0,24(a2)
    152c:	5344                	c.lw	s1,36(a4)
    152e:	4d5f 5048 434d      	.byte	0x5f, 0x4d, 0x48, 0x50, 0x4d, 0x43
    1534:	544e554f          	.4byte	0x544e554f
    1538:	5245                	c.li	tp,-15
    153a:	3332                	.2byte	0x3332
    153c:	0048                	c.addi4spn	a0,sp,4
    153e:	444e                	c.lwsp	s0,208(sp)
    1540:	50485f53          	.4byte	0x50485f53
    1544:	434d                	c.li	t1,19
    1546:	544e554f          	.4byte	0x544e554f
    154a:	5245                	c.li	tp,-15
    154c:	3831                	c.jal	0xd68 <rdmcycle+0x30>
    154e:	0048                	c.addi4spn	a0,sp,4
    1550:	444e                	c.lwsp	s0,208(sp)
    1552:	464d5f53          	.4byte	0x464d5f53
    1556:	4f49                	c.li	t5,18
    1558:	0042                	c.slli	zero,0x10
    155a:	444e                	c.lwsp	s0,208(sp)
    155c:	4d505f53          	.4byte	0x4d505f53
    1560:	4150                	c.lw	a2,4(a0)
    1562:	4444                	c.lw	s1,12(s0)
    1564:	3552                	.2byte	0x3552
    1566:	0030                	c.addi4spn	a2,sp,8
    1568:	444e                	c.lwsp	s0,208(sp)
    156a:	4d505f53          	.4byte	0x4d505f53
    156e:	4150                	c.lw	a2,4(a0)
    1570:	4444                	c.lw	s1,12(s0)
    1572:	3552                	.2byte	0x3552
    1574:	0031                	c.nop	12
    1576:	444e                	c.lwsp	s0,208(sp)
    1578:	4d505f53          	.4byte	0x4d505f53
    157c:	4150                	c.lw	a2,4(a0)
    157e:	4444                	c.lw	s1,12(s0)
    1580:	3552                	.2byte	0x3552
    1582:	0032                	c.slli	zero,0xc
    1584:	444e                	c.lwsp	s0,208(sp)
    1586:	4d505f53          	.4byte	0x4d505f53
    158a:	4150                	c.lw	a2,4(a0)
    158c:	4444                	c.lw	s1,12(s0)
    158e:	3552                	.2byte	0x3552
    1590:	444e0033          	.4byte	0x444e0033
    1594:	50485f53          	.4byte	0x50485f53
    1598:	434d                	c.li	t1,19
    159a:	544e554f          	.4byte	0x544e554f
    159e:	5245                	c.li	tp,-15
    15a0:	3232                	.2byte	0x3232
    15a2:	0048                	c.addi4spn	a0,sp,4
    15a4:	444e                	c.lwsp	s0,208(sp)
    15a6:	4d505f53          	.4byte	0x4d505f53
    15aa:	4150                	c.lw	a2,4(a0)
    15ac:	4444                	c.lw	s1,12(s0)
    15ae:	3552                	.2byte	0x3552
    15b0:	0036                	c.slli	zero,0xd
    15b2:	444e                	c.lwsp	s0,208(sp)
    15b4:	4d505f53          	.4byte	0x4d505f53
    15b8:	4150                	c.lw	a2,4(a0)
    15ba:	4444                	c.lw	s1,12(s0)
    15bc:	3552                	.2byte	0x3552
    15be:	444e0037          	lui	zero,0x444e0
    15c2:	4d505f53          	.4byte	0x4d505f53
    15c6:	4150                	c.lw	a2,4(a0)
    15c8:	4444                	c.lw	s1,12(s0)
    15ca:	3552                	.2byte	0x3552
    15cc:	0038                	c.addi4spn	a4,sp,8
    15ce:	444e                	c.lwsp	s0,208(sp)
    15d0:	4d505f53          	.4byte	0x4d505f53
    15d4:	4150                	c.lw	a2,4(a0)
    15d6:	4444                	c.lw	s1,12(s0)
    15d8:	3552                	.2byte	0x3552
    15da:	0039                	c.nop	14
    15dc:	444e                	c.lwsp	s0,208(sp)
    15de:	43535f53          	.4byte	0x43535f53
    15e2:	444c5443          	.4byte	0x444c5443
    15e6:	5441                	c.li	s0,-16
    15e8:	0041                	c.nop	16
    15ea:	444e                	c.lwsp	s0,208(sp)
    15ec:	484d5f53          	.4byte	0x484d5f53
    15f0:	4d50                	c.lw	a2,28(a0)
    15f2:	5645                	c.li	a2,-15
    15f4:	4e45                	c.li	t3,17
    15f6:	3154                	.2byte	0x3154
    15f8:	4836                	c.lwsp	a6,76(sp)
    15fa:	4e00                	c.lw	s0,24(a2)
    15fc:	5344                	c.lw	s1,36(a4)
    15fe:	4d5f 5048 454d      	.byte	0x5f, 0x4d, 0x48, 0x50, 0x4d, 0x45
    1604:	4556                	c.lwsp	a0,84(sp)
    1606:	544e                	c.lwsp	s0,240(sp)
    1608:	3032                	.2byte	0x3032
    160a:	0048                	c.addi4spn	a0,sp,4
    160c:	444e                	c.lwsp	s0,208(sp)
    160e:	494d5f53          	.4byte	0x494d5f53
    1612:	504d                	c.li	zero,-13
    1614:	4449                	c.li	s0,18
    1616:	4e00                	c.lw	s0,24(a2)
    1618:	5344                	c.lw	s1,36(a4)
    161a:	4d5f 4c44 424d      	.byte	0x5f, 0x4d, 0x44, 0x4c, 0x4d, 0x42
    1620:	6d00                	.2byte	0x6d00
    1622:	6974                	.2byte	0x6974
    1624:	656d                	c.lui	a0,0x1b
    1626:	685f 6e61 6c64      	.byte	0x5f, 0x68, 0x61, 0x6e, 0x64, 0x6c
    162c:	7265                	c.lui	tp,0xffff9
    162e:	4e00                	c.lw	s0,24(a2)
    1630:	5344                	c.lw	s1,36(a4)
    1632:	4d5f 4f43 544e      	.byte	0x5f, 0x4d, 0x43, 0x4f, 0x4e, 0x54
    1638:	5845                	c.li	a6,-15
    163a:	0054                	c.addi4spn	a3,sp,4
    163c:	444e                	c.lwsp	s0,208(sp)
    163e:	484d5f53          	.4byte	0x484d5f53
    1642:	4d50                	c.lw	a2,28(a0)
    1644:	4e554f43          	.4byte	0x4e554f43
    1648:	4554                	c.lw	a3,12(a0)
    164a:	3252                	.2byte	0x3252
    164c:	4834                	c.lw	a3,80(s0)
    164e:	4e00                	c.lw	s0,24(a2)
    1650:	5344                	c.lw	s1,36(a4)
    1652:	485f 4d50 4f43      	.byte	0x5f, 0x48, 0x50, 0x4d, 0x43, 0x4f
    1658:	4e55                	c.li	t3,21
    165a:	4554                	c.lw	a3,12(a0)
    165c:	3152                	.2byte	0x3152
    165e:	4839                	c.li	a6,14
    1660:	4e00                	c.lw	s0,24(a2)
    1662:	5344                	c.lw	s1,36(a4)
    1664:	505f 504d 4441      	.byte	0x5f, 0x50, 0x4d, 0x50, 0x41, 0x44
    166a:	5244                	c.lw	s1,36(a2)
    166c:	3036                	.2byte	0x3036
    166e:	4e00                	c.lw	s0,24(a2)
    1670:	5344                	c.lw	s1,36(a4)
    1672:	505f 504d 4441      	.byte	0x5f, 0x50, 0x4d, 0x50, 0x41, 0x44
    1678:	5244                	c.lw	s1,36(a2)
    167a:	3136                	.2byte	0x3136
    167c:	4e00                	c.lw	s0,24(a2)
    167e:	5344                	c.lw	s1,36(a4)
    1680:	505f 504d 4441      	.byte	0x5f, 0x50, 0x4d, 0x50, 0x41, 0x44
    1686:	5244                	c.lw	s1,36(a2)
    1688:	3236                	.2byte	0x3236
    168a:	4e00                	c.lw	s0,24(a2)
    168c:	5344                	c.lw	s1,36(a4)
    168e:	505f 504d 4441      	.byte	0x5f, 0x50, 0x4d, 0x50, 0x41, 0x44
    1694:	5244                	c.lw	s1,36(a2)
    1696:	3336                	.2byte	0x3336
    1698:	4e00                	c.lw	s0,24(a2)
    169a:	5344                	c.lw	s1,36(a4)
    169c:	4d5f 5048 434d      	.byte	0x5f, 0x4d, 0x48, 0x50, 0x4d, 0x43
    16a2:	544e554f          	.4byte	0x544e554f
    16a6:	5245                	c.li	tp,-15
    16a8:	4838                	c.lw	a4,80(s0)
    16aa:	4e00                	c.lw	s0,24(a2)
    16ac:	5344                	c.lw	s1,36(a4)
    16ae:	485f 4d50 4f43      	.byte	0x5f, 0x48, 0x50, 0x4d, 0x43, 0x4f
    16b4:	4e55                	c.li	t3,21
    16b6:	4554                	c.lw	a3,12(a0)
    16b8:	3252                	.2byte	0x3252
    16ba:	4e004833          	.4byte	0x4e004833
    16be:	5344                	c.lw	s1,36(a4)
    16c0:	4d5f 4556 444e      	.byte	0x5f, 0x4d, 0x56, 0x45, 0x4e, 0x44
    16c6:	4449524f          	.4byte	0x4449524f
    16ca:	4e00                	c.lw	s0,24(a2)
    16cc:	5344                	c.lw	s1,36(a4)
    16ce:	4d5f 5048 454d      	.byte	0x5f, 0x4d, 0x48, 0x50, 0x4d, 0x45
    16d4:	4556                	c.lwsp	a0,84(sp)
    16d6:	544e                	c.lwsp	s0,240(sp)
    16d8:	3731                	c.jal	0x15e4 <__fixsfsi+0x50>
    16da:	0048                	c.addi4spn	a0,sp,4
    16dc:	444e                	c.lwsp	s0,208(sp)
    16de:	484d5f53          	.4byte	0x484d5f53
    16e2:	4d50                	c.lw	a2,28(a0)
    16e4:	5645                	c.li	a2,-15
    16e6:	4e45                	c.li	t3,17
    16e8:	3254                	.2byte	0x3254
    16ea:	4831                	c.li	a6,12
    16ec:	4e00                	c.lw	s0,24(a2)
    16ee:	5344                	c.lw	s1,36(a4)
    16f0:	4d5f 5648 424d      	.byte	0x5f, 0x4d, 0x48, 0x56, 0x4d, 0x42
    16f6:	4e00                	c.lw	s0,24(a2)
    16f8:	5344                	c.lw	s1,36(a4)
    16fa:	535f 454c 5045      	.byte	0x5f, 0x53, 0x4c, 0x45, 0x45, 0x50
    1700:	4156                	c.lwsp	sp,84(sp)
    1702:	554c                	c.lw	a1,44(a0)
    1704:	0045                	c.nop	17
    1706:	444e                	c.lwsp	s0,208(sp)
    1708:	4d505f53          	.4byte	0x4d505f53
    170c:	4141                	c.li	sp,16
    170e:	4444                	c.lw	s1,12(s0)
    1710:	3152                	.2byte	0x3152
    1712:	0032                	c.slli	zero,0xc
    1714:	444e                	c.lwsp	s0,208(sp)
    1716:	4e495f53          	.4byte	0x4e495f53
    171a:	45525453          	.4byte	0x45525453
    171e:	4854                	c.lw	a3,20(s0)
    1720:	4e00                	c.lw	s0,24(a2)
    1722:	5344                	c.lw	s1,36(a4)
    1724:	4d5f 5048 434d      	.byte	0x5f, 0x4d, 0x48, 0x50, 0x4d, 0x43
    172a:	544e554f          	.4byte	0x544e554f
    172e:	5245                	c.li	tp,-15
    1730:	3532                	.2byte	0x3532
    1732:	0048                	c.addi4spn	a0,sp,4
    1734:	444e                	c.lwsp	s0,208(sp)
    1736:	484d5f53          	.4byte	0x484d5f53
    173a:	4d50                	c.lw	a2,28(a0)
    173c:	4e554f43          	.4byte	0x4e554f43
    1740:	4554                	c.lw	a3,12(a0)
    1742:	3952                	.2byte	0x3952
    1744:	0048                	c.addi4spn	a0,sp,4
    1746:	444e                	c.lwsp	s0,208(sp)
    1748:	50485f53          	.4byte	0x50485f53
    174c:	434d                	c.li	t1,19
    174e:	544e554f          	.4byte	0x544e554f
    1752:	5245                	c.li	tp,-15
    1754:	3432                	.2byte	0x3432
    1756:	0048                	c.addi4spn	a0,sp,4
    1758:	444e                	c.lwsp	s0,208(sp)
    175a:	53545f53          	.4byte	0x53545f53
    175e:	4c45                	c.li	s8,17
    1760:	4345                	c.li	t1,17
    1762:	0054                	c.addi4spn	a3,sp,4
    1764:	444e                	c.lwsp	s0,208(sp)
    1766:	484d5f53          	.4byte	0x484d5f53
    176a:	4d50                	c.lw	a2,28(a0)
    176c:	5645                	c.li	a2,-15
    176e:	4e45                	c.li	t3,17
    1770:	3154                	.2byte	0x3154
    1772:	4838                	c.lw	a4,80(s0)
    1774:	4e00                	c.lw	s0,24(a2)
    1776:	5344                	c.lw	s1,36(a4)
    1778:	4d5f 5943 4c43      	.byte	0x5f, 0x4d, 0x43, 0x59, 0x43, 0x4c
    177e:	4845                	c.li	a6,17
    1780:	4e00                	c.lw	s0,24(a2)
    1782:	5344                	c.lw	s1,36(a4)
    1784:	555f 4343 4c54      	.byte	0x5f, 0x55, 0x43, 0x43, 0x54, 0x4c
    178a:	4d4d4f43          	.4byte	0x4d4d4f43
    178e:	4e41                	c.li	t3,16
    1790:	0044                	c.addi4spn	s1,sp,4
    1792:	7274                	.2byte	0x7274
    1794:	7061                	c.lui	zero,0xffff8
    1796:	655f 746e 7972      	.byte	0x5f, 0x65, 0x6e, 0x74, 0x72, 0x79
    179c:	4e00                	c.lw	s0,24(a2)
    179e:	5344                	c.lw	s1,36(a4)
    17a0:	4d5f 5048 454d      	.byte	0x5f, 0x4d, 0x48, 0x50, 0x4d, 0x45
    17a6:	4556                	c.lwsp	a0,84(sp)
    17a8:	544e                	c.lwsp	s0,240(sp)
    17aa:	3232                	.2byte	0x3232
    17ac:	0048                	c.addi4spn	a0,sp,4
    17ae:	444e                	c.lwsp	s0,208(sp)
    17b0:	484d5f53          	.4byte	0x484d5f53
    17b4:	4d50                	c.lw	a2,28(a0)
    17b6:	4e554f43          	.4byte	0x4e554f43
    17ba:	4554                	c.lw	a3,12(a0)
    17bc:	3152                	.2byte	0x3152
    17be:	0034                	c.addi4spn	a3,sp,8
    17c0:	444e                	c.lwsp	s0,208(sp)
    17c2:	484d5f53          	.4byte	0x484d5f53
    17c6:	5241                	c.li	tp,-16
    17c8:	4954                	c.lw	a3,20(a0)
    17ca:	0044                	c.addi4spn	s1,sp,4
    17cc:	444e                	c.lwsp	s0,208(sp)
    17ce:	44545f53          	.4byte	0x44545f53
    17d2:	5441                	c.li	s0,-16
    17d4:	3241                	c.jal	0x1154 <print+0xa4>
    17d6:	4e00                	c.lw	s0,24(a2)
    17d8:	5344                	c.lw	s1,36(a4)
    17da:	4d5f 5048 434d      	.byte	0x5f, 0x4d, 0x48, 0x50, 0x4d, 0x43
    17e0:	544e554f          	.4byte	0x544e554f
    17e4:	5245                	c.li	tp,-15
    17e6:	4e004833          	.4byte	0x4e004833
    17ea:	5344                	c.lw	s1,36(a4)
    17ec:	4d5f 5348 5f50      	.byte	0x5f, 0x4d, 0x48, 0x53, 0x50, 0x5f
    17f2:	004c5443          	.4byte	0x4c5443
    17f6:	444e                	c.lwsp	s0,208(sp)
    17f8:	484d5f53          	.4byte	0x484d5f53
    17fc:	4d50                	c.lw	a2,28(a0)
    17fe:	4e554f43          	.4byte	0x4e554f43
    1802:	4554                	c.lw	a3,12(a0)
    1804:	3252                	.2byte	0x3252
    1806:	4836                	c.lwsp	a6,76(sp)
    1808:	4e00                	c.lw	s0,24(a2)
    180a:	5344                	c.lw	s1,36(a4)
    180c:	4d5f 4449 4c45      	.byte	0x5f, 0x4d, 0x49, 0x44, 0x45, 0x4c
    1812:	4745                	c.li	a4,17
    1814:	4e00                	c.lw	s0,24(a2)
    1816:	5344                	c.lw	s1,36(a4)
    1818:	4d5f 5048 434d      	.byte	0x5f, 0x4d, 0x48, 0x50, 0x4d, 0x43
    181e:	544e554f          	.4byte	0x544e554f
    1822:	5245                	c.li	tp,-15
    1824:	00483033          	sltu	zero,a6,tp
    1828:	444e                	c.lwsp	s0,208(sp)
    182a:	50485f53          	.4byte	0x50485f53
    182e:	434d                	c.li	t1,19
    1830:	544e554f          	.4byte	0x544e554f
    1834:	5245                	c.li	tp,-15
    1836:	3532                	.2byte	0x3532
    1838:	0048                	c.addi4spn	a0,sp,4
    183a:	444e                	c.lwsp	s0,208(sp)
    183c:	484d5f53          	.4byte	0x484d5f53
    1840:	4d50                	c.lw	a2,28(a0)
    1842:	5645                	c.li	a2,-15
    1844:	4e45                	c.li	t3,17
    1846:	3154                	.2byte	0x3154
    1848:	4839                	c.li	a6,14
    184a:	4e00                	c.lw	s0,24(a2)
    184c:	5344                	c.lw	s1,36(a4)
    184e:	4d5f 5048 454d      	.byte	0x5f, 0x4d, 0x48, 0x50, 0x4d, 0x45
    1854:	4556                	c.lwsp	a0,84(sp)
    1856:	544e                	c.lwsp	s0,240(sp)
    1858:	3332                	.2byte	0x3332
    185a:	0048                	c.addi4spn	a0,sp,4
    185c:	444e                	c.lwsp	s0,208(sp)
    185e:	43555f53          	.4byte	0x43555f53
    1862:	5541                	c.li	a0,-16
    1864:	4e004553          	.4byte	0x4e004553
    1868:	5344                	c.lw	s1,36(a4)
    186a:	555f 4343 4c54      	.byte	0x5f, 0x55, 0x43, 0x43, 0x54, 0x4c
    1870:	4542                	c.lwsp	a0,16(sp)
    1872:	414e4947          	.4byte	0x414e4947
    1876:	4444                	c.lw	s1,12(s0)
    1878:	0052                	c.slli	zero,0x14
    187a:	444e                	c.lwsp	s0,208(sp)
    187c:	584d5f53          	.4byte	0x584d5f53
    1880:	54415453          	.4byte	0x54415453
    1884:	5355                	c.li	t1,-11
    1886:	4e00                	c.lw	s0,24(a2)
    1888:	5344                	c.lw	s1,36(a4)
    188a:	545f 4f43 544e      	.byte	0x5f, 0x54, 0x43, 0x4f, 0x4e, 0x54
    1890:	4f52                	c.lwsp	t5,20(sp)
    1892:	004c                	c.addi4spn	a1,sp,4
    1894:	444e                	c.lwsp	s0,208(sp)
    1896:	4d4d5f53          	.4byte	0x4d4d5f53
    189a:	435f4353          	.4byte	0x435f4353
    189e:	4746                	c.lwsp	a4,80(sp)
    18a0:	444e0033          	.4byte	0x444e0033
    18a4:	484d5f53          	.4byte	0x484d5f53
    18a8:	4d50                	c.lw	a2,28(a0)
    18aa:	4e554f43          	.4byte	0x4e554f43
    18ae:	4554                	c.lw	a3,12(a0)
    18b0:	3252                	.2byte	0x3252
    18b2:	4e004837          	lui	a6,0x4e004
    18b6:	5344                	c.lw	s1,36(a4)
    18b8:	555f 4f43 4544      	.byte	0x5f, 0x55, 0x43, 0x4f, 0x44, 0x45
    18be:	4e00                	c.lw	s0,24(a2)
    18c0:	5344                	c.lw	s1,36(a4)
    18c2:	4d5f 324c 5f43      	.byte	0x5f, 0x4d, 0x4c, 0x32, 0x43, 0x5f
    18c8:	5f4c5443          	.4byte	0x5f4c5443
    18cc:	4142                	c.lwsp	sp,16(sp)
    18ce:	4e004553          	.4byte	0x4e004553
    18d2:	5344                	c.lw	s1,36(a4)
    18d4:	4d5f 5048 434d      	.byte	0x5f, 0x4d, 0x48, 0x50, 0x4d, 0x43
    18da:	544e554f          	.4byte	0x544e554f
    18de:	5245                	c.li	tp,-15
    18e0:	00483133          	sltu	sp,a6,tp
    18e4:	444e                	c.lwsp	s0,208(sp)
    18e6:	50485f53          	.4byte	0x50485f53
    18ea:	434d                	c.li	t1,19
    18ec:	544e554f          	.4byte	0x544e554f
    18f0:	5245                	c.li	tp,-15
    18f2:	3632                	.2byte	0x3632
    18f4:	0048                	c.addi4spn	a0,sp,4
    18f6:	444e                	c.lwsp	s0,208(sp)
    18f8:	50485f53          	.4byte	0x50485f53
    18fc:	434d                	c.li	t1,19
    18fe:	544e554f          	.4byte	0x544e554f
    1902:	5245                	c.li	tp,-15
    1904:	00483033          	sltu	zero,a6,tp
    1908:	444e                	c.lwsp	s0,208(sp)
    190a:	434d5f53          	.4byte	0x434d5f53
    190e:	544e554f          	.4byte	0x544e554f
    1912:	5245                	c.li	tp,-15
    1914:	4e49                	c.li	t3,18
    1916:	4554                	c.lw	a3,12(a0)
    1918:	004e                	c.slli	zero,0x13
    191a:	444e                	c.lwsp	s0,208(sp)
    191c:	484d5f53          	.4byte	0x484d5f53
    1920:	4d50                	c.lw	a2,28(a0)
    1922:	4e554f43          	.4byte	0x4e554f43
    1926:	4554                	c.lw	a3,12(a0)
    1928:	3152                	.2byte	0x3152
    192a:	4834                	c.lw	a3,80(s0)
    192c:	6200                	.2byte	0x6200
    192e:	612f7073          	csrci	0x612,30
    1932:	3365                	c.jal	0x16da <__clzsi2+0x2a>
    1934:	3035                	c.jal	0x1160 <print+0xb0>
    1936:	6172742f          	.4byte	0x6172742f
    193a:	2e70                	.2byte	0x2e70
    193c:	444e0063          	beq	t3,tp,0x1d7c <__bss_start+0xdc>
    1940:	484d5f53          	.4byte	0x484d5f53
    1944:	4d50                	c.lw	a2,28(a0)
    1946:	4e554f43          	.4byte	0x4e554f43
    194a:	4554                	c.lw	a3,12(a0)
    194c:	3452                	.2byte	0x3452
    194e:	0048                	c.addi4spn	a0,sp,4
    1950:	636d                	c.lui	t1,0x1b
    1952:	7561                	c.lui	a0,0xffff8
    1954:	4e006573          	csrrsi	a0,0x4e0,0
    1958:	5344                	c.lw	s1,36(a4)
    195a:	4d5f 5048 434d      	.byte	0x5f, 0x4d, 0x48, 0x50, 0x4d, 0x43
    1960:	544e554f          	.4byte	0x544e554f
    1964:	5245                	c.li	tp,-15
    1966:	3832                	.2byte	0x3832
    1968:	0048                	c.addi4spn	a0,sp,4
    196a:	444e                	c.lwsp	s0,208(sp)
    196c:	534d5f53          	.4byte	0x534d5f53
    1970:	5f50                	c.lw	a2,60(a4)
    1972:	4f42                	c.lwsp	t5,16(sp)
    1974:	4e55                	c.li	t3,21
    1976:	0044                	c.addi4spn	s1,sp,4
    1978:	444e                	c.lwsp	s0,208(sp)
    197a:	43535f53          	.4byte	0x43535f53
    197e:	45544e4f          	.4byte	0x45544e4f
    1982:	5458                	c.lw	a4,44(s0)
    1984:	4e00                	c.lw	s0,24(a2)
    1986:	5344                	c.lw	s1,36(a4)
    1988:	485f 4d50 4f43      	.byte	0x5f, 0x48, 0x50, 0x4d, 0x43, 0x4f
    198e:	4e55                	c.li	t3,21
    1990:	4554                	c.lw	a3,12(a0)
    1992:	3252                	.2byte	0x3252
    1994:	6d004837          	lui	a6,0x6d004
    1998:	5f697773          	csrrci	a4,0x5f6,18
    199c:	6168                	.2byte	0x6168
    199e:	646e                	.2byte	0x646e
    19a0:	656c                	.2byte	0x656c
    19a2:	0072                	c.slli	zero,0x1c
    19a4:	444e                	c.lwsp	s0,208(sp)
    19a6:	50485f53          	.4byte	0x50485f53
    19aa:	434d                	c.li	t1,19
    19ac:	544e554f          	.4byte	0x544e554f
    19b0:	5245                	c.li	tp,-15
    19b2:	00483133          	sltu	sp,a6,tp
    19b6:	6972                	.2byte	0x6972
    19b8:	5f766373          	csrrsi	t1,0x5f7,12
    19bc:	73727363          	bgeu	tp,s7,0x20e2 <__bss_start+0x442>
    19c0:	4e00                	c.lw	s0,24(a2)
    19c2:	5344                	c.lw	s1,36(a4)
    19c4:	4d5f 4153 4556      	.byte	0x5f, 0x4d, 0x53, 0x41, 0x56, 0x45
    19ca:	4344                	c.lw	s1,4(a4)
    19cc:	5541                	c.li	a0,-16
    19ce:	00314553          	.4byte	0x314553
    19d2:	444e                	c.lwsp	s0,208(sp)
    19d4:	534d5f53          	.4byte	0x534d5f53
    19d8:	5641                	c.li	a2,-16
    19da:	4445                	c.li	s0,17
    19dc:	53554143          	.4byte	0x53554143
    19e0:	3245                	c.jal	0x1380 <printf+0x34>
    19e2:	4e00                	c.lw	s0,24(a2)
    19e4:	5344                	c.lw	s1,36(a4)
    19e6:	4d5f 5048 454d      	.byte	0x5f, 0x4d, 0x48, 0x50, 0x4d, 0x45
    19ec:	4556                	c.lwsp	a0,84(sp)
    19ee:	544e                	c.lwsp	s0,240(sp)
    19f0:	3532                	.2byte	0x3532
    19f2:	0048                	c.addi4spn	a0,sp,4
    19f4:	444e                	c.lwsp	s0,208(sp)
    19f6:	484d5f53          	.4byte	0x484d5f53
    19fa:	4d50                	c.lw	a2,28(a0)
    19fc:	4e554f43          	.4byte	0x4e554f43
    1a00:	4554                	c.lw	a3,12(a0)
    1a02:	3252                	.2byte	0x3252
    1a04:	0032                	c.slli	zero,0xc
    1a06:	444e                	c.lwsp	s0,208(sp)
    1a08:	484d5f53          	.4byte	0x484d5f53
    1a0c:	4d50                	c.lw	a2,28(a0)
    1a0e:	4e554f43          	.4byte	0x4e554f43
    1a12:	4554                	c.lw	a3,12(a0)
    1a14:	3252                	.2byte	0x3252
    1a16:	444e0033          	.4byte	0x444e0033
    1a1a:	484d5f53          	.4byte	0x484d5f53
    1a1e:	4d50                	c.lw	a2,28(a0)
    1a20:	4e554f43          	.4byte	0x4e554f43
    1a24:	4554                	c.lw	a3,12(a0)
    1a26:	3252                	.2byte	0x3252
    1a28:	0034                	c.addi4spn	a3,sp,8
    1a2a:	444e                	c.lwsp	s0,208(sp)
    1a2c:	45445f53          	.4byte	0x45445f53
    1a30:	4358                	c.lw	a4,4(a4)
    1a32:	4432                	c.lwsp	s0,12(sp)
    1a34:	4742                	c.lwsp	a4,16(sp)
    1a36:	4e00                	c.lw	s0,24(a2)
    1a38:	5344                	c.lw	s1,36(a4)
    1a3a:	4d5f 5048 434d      	.byte	0x5f, 0x4d, 0x48, 0x50, 0x4d, 0x43
    1a40:	544e554f          	.4byte	0x544e554f
    1a44:	5245                	c.li	tp,-15
    1a46:	3932                	.2byte	0x3932
    1a48:	0048                	c.addi4spn	a0,sp,4
    1a4a:	444e                	c.lwsp	s0,208(sp)
    1a4c:	534d5f53          	.4byte	0x534d5f53
    1a50:	4154                	c.lw	a3,4(a0)
    1a52:	5554                	c.lw	a3,44(a0)
    1a54:	52435f53          	.4byte	0x52435f53
    1a58:	5341                	c.li	t1,-16
    1a5a:	5348                	c.lw	a0,36(a4)
    1a5c:	5641                	c.li	a2,-16
    1a5e:	0045                	c.nop	17
    1a60:	444e                	c.lwsp	s0,208(sp)
    1a62:	50485f53          	.4byte	0x50485f53
    1a66:	434d                	c.li	t1,19
    1a68:	544e554f          	.4byte	0x544e554f
    1a6c:	5245                	c.li	tp,-15
    1a6e:	3832                	.2byte	0x3832
    1a70:	0048                	c.addi4spn	a0,sp,4
    1a72:	444e                	c.lwsp	s0,208(sp)
    1a74:	43535f53          	.4byte	0x43535f53
    1a78:	544e554f          	.4byte	0x544e554f
    1a7c:	0046564f          	.4byte	0x46564f
    1a80:	444e                	c.lwsp	s0,208(sp)
    1a82:	484d5f53          	.4byte	0x484d5f53
    1a86:	4d50                	c.lw	a2,28(a0)
    1a88:	5645                	c.li	a2,-15
    1a8a:	4e45                	c.li	t3,17
    1a8c:	3254                	.2byte	0x3254
    1a8e:	4836                	c.lwsp	a6,76(sp)
    1a90:	4e00                	c.lw	s0,24(a2)
    1a92:	5344                	c.lw	s1,36(a4)
    1a94:	465f 4d52 4e00      	.byte	0x5f, 0x46, 0x52, 0x4d, 0x00, 0x4e
    1a9a:	5344                	c.lw	s1,36(a4)
    1a9c:	4d5f 5048 454d      	.byte	0x5f, 0x4d, 0x48, 0x50, 0x4d, 0x45
    1aa2:	4556                	c.lwsp	a0,84(sp)
    1aa4:	544e                	c.lwsp	s0,240(sp)
    1aa6:	00483033          	sltu	zero,a6,tp
    1aaa:	444e                	c.lwsp	s0,208(sp)
    1aac:	4d505f53          	.4byte	0x4d505f53
    1ab0:	4141                	c.li	sp,16
    1ab2:	4444                	c.lw	s1,12(s0)
    1ab4:	3152                	.2byte	0x3152
    1ab6:	0030                	c.addi4spn	a2,sp,8
    1ab8:	444e                	c.lwsp	s0,208(sp)
    1aba:	4d505f53          	.4byte	0x4d505f53
    1abe:	4141                	c.li	sp,16
    1ac0:	4444                	c.lw	s1,12(s0)
    1ac2:	3152                	.2byte	0x3152
    1ac4:	0031                	c.nop	12
    1ac6:	444e                	c.lwsp	s0,208(sp)
    1ac8:	434d5f53          	.4byte	0x434d5f53
    1acc:	5541                	c.li	a0,-16
    1ace:	4e004553          	.4byte	0x4e004553
    1ad2:	5344                	c.lw	s1,36(a4)
    1ad4:	565f 5358 5441      	.byte	0x5f, 0x56, 0x58, 0x53, 0x41, 0x54
    1ada:	4e00                	c.lw	s0,24(a2)
    1adc:	5344                	c.lw	s1,36(a4)
    1ade:	4d5f 5048 434d      	.byte	0x5f, 0x4d, 0x48, 0x50, 0x4d, 0x43
    1ae4:	544e554f          	.4byte	0x544e554f
    1ae8:	5245                	c.li	tp,-15
    1aea:	4835                	c.li	a6,13
    1aec:	4e00                	c.lw	s0,24(a2)
    1aee:	5344                	c.lw	s1,36(a4)
    1af0:	4d5f 5048 434d      	.byte	0x5f, 0x4d, 0x48, 0x50, 0x4d, 0x43
    1af6:	544e554f          	.4byte	0x544e554f
    1afa:	5245                	c.li	tp,-15
    1afc:	3031                	c.jal	0x1308 <print+0x258>
    1afe:	0048                	c.addi4spn	a0,sp,4
    1b00:	444e                	c.lwsp	s0,208(sp)
    1b02:	564d5f53          	.4byte	0x564d5f53
    1b06:	4345                	c.li	t1,17
    1b08:	435f 4746 4e00      	.byte	0x5f, 0x43, 0x46, 0x47, 0x00, 0x4e
    1b0e:	5344                	c.lw	s1,36(a4)
    1b10:	535f 5453 5441      	.byte	0x5f, 0x53, 0x53, 0x54, 0x41, 0x54
    1b16:	4545                	c.li	a0,17
    1b18:	304e                	.2byte	0x304e
    1b1a:	4e00                	c.lw	s0,24(a2)
    1b1c:	5344                	c.lw	s1,36(a4)
    1b1e:	535f 5453 5441      	.byte	0x5f, 0x53, 0x53, 0x54, 0x41, 0x54
    1b24:	4545                	c.li	a0,17
    1b26:	314e                	.2byte	0x314e
    1b28:	4e00                	c.lw	s0,24(a2)
    1b2a:	5344                	c.lw	s1,36(a4)
    1b2c:	535f 5453 5441      	.byte	0x5f, 0x53, 0x53, 0x54, 0x41, 0x54
    1b32:	4545                	c.li	a0,17
    1b34:	324e                	.2byte	0x324e
    1b36:	4e00                	c.lw	s0,24(a2)
    1b38:	5344                	c.lw	s1,36(a4)
    1b3a:	485f 4d50 4f43      	.byte	0x5f, 0x48, 0x50, 0x4d, 0x43, 0x4f
    1b40:	4e55                	c.li	t3,21
    1b42:	4554                	c.lw	a3,12(a0)
    1b44:	3252                	.2byte	0x3252
    1b46:	4839                	c.li	a6,14
    1b48:	4e00                	c.lw	s0,24(a2)
    1b4a:	5344                	c.lw	s1,36(a4)
    1b4c:	535f 5654 4345      	.byte	0x5f, 0x53, 0x54, 0x56, 0x45, 0x43
    1b52:	4e00                	c.lw	s0,24(a2)
    1b54:	5344                	c.lw	s1,36(a4)
    1b56:	4d5f 5048 454d      	.byte	0x5f, 0x4d, 0x48, 0x50, 0x4d, 0x45
    1b5c:	4556                	c.lwsp	a0,84(sp)
    1b5e:	544e                	c.lwsp	s0,240(sp)
    1b60:	3031                	c.jal	0x136c <printf+0x20>
    1b62:	4e00                	c.lw	s0,24(a2)
    1b64:	5344                	c.lw	s1,36(a4)
    1b66:	4d5f 5048 454d      	.byte	0x5f, 0x4d, 0x48, 0x50, 0x4d, 0x45
    1b6c:	4556                	c.lwsp	a0,84(sp)
    1b6e:	544e                	c.lwsp	s0,240(sp)
    1b70:	3131                	c.jal	0x177c <memset+0x68>
    1b72:	4e00                	c.lw	s0,24(a2)
    1b74:	5344                	c.lw	s1,36(a4)
    1b76:	4d5f 5048 454d      	.byte	0x5f, 0x4d, 0x48, 0x50, 0x4d, 0x45
    1b7c:	4556                	c.lwsp	a0,84(sp)
    1b7e:	544e                	c.lwsp	s0,240(sp)
    1b80:	3231                	c.jal	0x148c <__divsf3+0x50>
    1b82:	4e00                	c.lw	s0,24(a2)
    1b84:	5344                	c.lw	s1,36(a4)
    1b86:	4d5f 5048 454d      	.byte	0x5f, 0x4d, 0x48, 0x50, 0x4d, 0x45
    1b8c:	4556                	c.lwsp	a0,84(sp)
    1b8e:	544e                	c.lwsp	s0,240(sp)
    1b90:	3331                	c.jal	0x189c <__riscv_restore_0+0x5a>
    1b92:	4e00                	c.lw	s0,24(a2)
    1b94:	5344                	c.lw	s1,36(a4)
    1b96:	4d5f 5048 454d      	.byte	0x5f, 0x4d, 0x48, 0x50, 0x4d, 0x45
    1b9c:	4556                	c.lwsp	a0,84(sp)
    1b9e:	544e                	c.lwsp	s0,240(sp)
    1ba0:	3531                	c.jal	0x19ac <__riscv_restore_0+0x16a>
    1ba2:	4e00                	c.lw	s0,24(a2)
    1ba4:	5344                	c.lw	s1,36(a4)
    1ba6:	4d5f 5048 454d      	.byte	0x5f, 0x4d, 0x48, 0x50, 0x4d, 0x45
    1bac:	4556                	c.lwsp	a0,84(sp)
    1bae:	544e                	c.lwsp	s0,240(sp)
    1bb0:	3631                	c.jal	0x16bc <__clzsi2+0xc>
    1bb2:	4e00                	c.lw	s0,24(a2)
    1bb4:	5344                	c.lw	s1,36(a4)
    1bb6:	4d5f 5048 454d      	.byte	0x5f, 0x4d, 0x48, 0x50, 0x4d, 0x45
    1bbc:	4556                	c.lwsp	a0,84(sp)
    1bbe:	544e                	c.lwsp	s0,240(sp)
    1bc0:	3731                	c.jal	0x1acc <__clz_tab+0x2c>
    1bc2:	4e00                	c.lw	s0,24(a2)
    1bc4:	5344                	c.lw	s1,36(a4)
    1bc6:	4d5f 5048 454d      	.byte	0x5f, 0x4d, 0x48, 0x50, 0x4d, 0x45
    1bcc:	4556                	c.lwsp	a0,84(sp)
    1bce:	544e                	c.lwsp	s0,240(sp)
    1bd0:	3831                	c.jal	0x13ec <snprintf+0x4>
    1bd2:	4e00                	c.lw	s0,24(a2)
    1bd4:	5344                	c.lw	s1,36(a4)
    1bd6:	4d5f 5048 454d      	.byte	0x5f, 0x4d, 0x48, 0x50, 0x4d, 0x45
    1bdc:	4556                	c.lwsp	a0,84(sp)
    1bde:	544e                	c.lwsp	s0,240(sp)
    1be0:	3931                	c.jal	0x17fc <__riscv_save_10+0x6>
    1be2:	4e00                	c.lw	s0,24(a2)
    1be4:	5344                	c.lw	s1,36(a4)
    1be6:	545f 4558 5456      	.byte	0x5f, 0x54, 0x58, 0x45, 0x56, 0x54
    1bec:	4e00                	c.lw	s0,24(a2)
    1bee:	5344                	c.lw	s1,36(a4)
    1bf0:	4d5f 5048 454d      	.byte	0x5f, 0x4d, 0x48, 0x50, 0x4d, 0x45
    1bf6:	4556                	c.lwsp	a0,84(sp)
    1bf8:	544e                	c.lwsp	s0,240(sp)
    1bfa:	00483133          	sltu	sp,a6,tp
    1bfe:	444e                	c.lwsp	s0,208(sp)
    1c00:	4d555f53          	.4byte	0x4d555f53
    1c04:	5349                	c.li	t1,-14
    1c06:	54435f43          	.4byte	0x54435f43
    1c0a:	004c                	c.addi4spn	a1,sp,4
    1c0c:	444e                	c.lwsp	s0,208(sp)
    1c0e:	484d5f53          	.4byte	0x484d5f53
    1c12:	4d50                	c.lw	a2,28(a0)
    1c14:	5645                	c.li	a2,-15
    1c16:	4e45                	c.li	t3,17
    1c18:	3254                	.2byte	0x3254
    1c1a:	4834                	c.lw	a3,80(s0)
    1c1c:	4e00                	c.lw	s0,24(a2)
    1c1e:	5344                	c.lw	s1,36(a4)
    1c20:	4d5f 4343 4c54      	.byte	0x5f, 0x4d, 0x43, 0x43, 0x54, 0x4c
    1c26:	4542                	c.lwsp	a0,16(sp)
    1c28:	414e4947          	.4byte	0x414e4947
    1c2c:	4444                	c.lw	s1,12(s0)
    1c2e:	0052                	c.slli	zero,0x14
    1c30:	444e                	c.lwsp	s0,208(sp)
    1c32:	434d5f53          	.4byte	0x434d5f53
    1c36:	434c5443          	.4byte	0x434c5443
    1c3a:	414d4d4f          	.4byte	0x414d4d4f
    1c3e:	444e                	c.lwsp	s0,208(sp)
    1c40:	4e00                	c.lw	s0,24(a2)
    1c42:	5344                	c.lw	s1,36(a4)
    1c44:	4d5f 5648 5f4d      	.byte	0x5f, 0x4d, 0x48, 0x56, 0x4d, 0x5f
    1c4a:	00474643          	.4byte	0x474643
    1c4e:	444e                	c.lwsp	s0,208(sp)
    1c50:	484d5f53          	.4byte	0x484d5f53
    1c54:	4d50                	c.lw	a2,28(a0)
    1c56:	5645                	c.li	a2,-15
    1c58:	4e45                	c.li	t3,17
    1c5a:	3254                	.2byte	0x3254
    1c5c:	0030                	c.addi4spn	a2,sp,8
    1c5e:	444e                	c.lwsp	s0,208(sp)
    1c60:	484d5f53          	.4byte	0x484d5f53
    1c64:	4d50                	c.lw	a2,28(a0)
    1c66:	5645                	c.li	a2,-15
    1c68:	4e45                	c.li	t3,17
    1c6a:	3254                	.2byte	0x3254
    1c6c:	0031                	c.nop	12
    1c6e:	444e                	c.lwsp	s0,208(sp)
    1c70:	484d5f53          	.4byte	0x484d5f53
    1c74:	4d50                	c.lw	a2,28(a0)
    1c76:	5645                	c.li	a2,-15
    1c78:	4e45                	c.li	t3,17
    1c7a:	3254                	.2byte	0x3254
    1c7c:	0032                	c.slli	zero,0xc
    1c7e:	444e                	c.lwsp	s0,208(sp)
    1c80:	484d5f53          	.4byte	0x484d5f53
    1c84:	4d50                	c.lw	a2,28(a0)
    1c86:	5645                	c.li	a2,-15
    1c88:	4e45                	c.li	t3,17
    1c8a:	3254                	.2byte	0x3254
    1c8c:	444e0033          	.4byte	0x444e0033
    1c90:	484d5f53          	.4byte	0x484d5f53
    1c94:	4d50                	c.lw	a2,28(a0)
    1c96:	5645                	c.li	a2,-15
    1c98:	4e45                	c.li	t3,17
    1c9a:	3254                	.2byte	0x3254
    1c9c:	0034                	c.addi4spn	a3,sp,8
    1c9e:	444e                	c.lwsp	s0,208(sp)
    1ca0:	484d5f53          	.4byte	0x484d5f53
    1ca4:	4d50                	c.lw	a2,28(a0)
    1ca6:	5645                	c.li	a2,-15
    1ca8:	4e45                	c.li	t3,17
    1caa:	3254                	.2byte	0x3254
    1cac:	0035                	c.nop	13
    1cae:	444e                	c.lwsp	s0,208(sp)
    1cb0:	484d5f53          	.4byte	0x484d5f53
    1cb4:	4d50                	c.lw	a2,28(a0)
    1cb6:	5645                	c.li	a2,-15
    1cb8:	4e45                	c.li	t3,17
    1cba:	3254                	.2byte	0x3254
    1cbc:	0036                	c.slli	zero,0xd
    1cbe:	444e                	c.lwsp	s0,208(sp)
    1cc0:	484d5f53          	.4byte	0x484d5f53
    1cc4:	4d50                	c.lw	a2,28(a0)
    1cc6:	5645                	c.li	a2,-15
    1cc8:	4e45                	c.li	t3,17
    1cca:	3254                	.2byte	0x3254
    1ccc:	444e0037          	lui	zero,0x444e0
    1cd0:	484d5f53          	.4byte	0x484d5f53
    1cd4:	4d50                	c.lw	a2,28(a0)
    1cd6:	5645                	c.li	a2,-15
    1cd8:	4e45                	c.li	t3,17
    1cda:	3254                	.2byte	0x3254
    1cdc:	0038                	c.addi4spn	a4,sp,8
    1cde:	444e                	c.lwsp	s0,208(sp)
    1ce0:	484d5f53          	.4byte	0x484d5f53
    1ce4:	4d50                	c.lw	a2,28(a0)
    1ce6:	5645                	c.li	a2,-15
    1ce8:	4e45                	c.li	t3,17
    1cea:	3254                	.2byte	0x3254
    1cec:	0039                	c.nop	14
    1cee:	63737973          	csrrci	s2,0x637,6
    1cf2:	6c61                	c.lui	s8,0x18
    1cf4:	5f6c                	c.lw	a1,124(a4)
    1cf6:	6168                	.2byte	0x6168
    1cf8:	646e                	.2byte	0x646e
    1cfa:	656c                	.2byte	0x656c
    1cfc:	0072                	c.slli	zero,0x1c
    1cfe:	444e                	c.lwsp	s0,208(sp)
    1d00:	484d5f53          	.4byte	0x484d5f53
    1d04:	4d50                	c.lw	a2,28(a0)
    1d06:	4e554f43          	.4byte	0x4e554f43
    1d0a:	4554                	c.lw	a3,12(a0)
    1d0c:	3652                	.2byte	0x3652
    1d0e:	0048                	c.addi4spn	a0,sp,4
    1d10:	786d                	c.lui	a6,0xffffb
    1d12:	74617473          	csrrci	s0,0x746,2
    1d16:	7375                	c.lui	t1,0xffffd
    1d18:	4e00                	c.lw	s0,24(a2)
    1d1a:	5344                	c.lw	s1,36(a4)
    1d1c:	535f 4f43 4e55      	.byte	0x5f, 0x53, 0x43, 0x4f, 0x55, 0x4e
    1d22:	4554                	c.lw	a3,12(a0)
    1d24:	4952                	c.lwsp	s2,20(sp)
    1d26:	544e                	c.lwsp	s0,240(sp)
    1d28:	4e45                	c.li	t3,17
    1d2a:	4e00                	c.lw	s0,24(a2)
    1d2c:	5344                	c.lw	s1,36(a4)
    1d2e:	4d5f 4f43 464e      	.byte	0x5f, 0x4d, 0x43, 0x4f, 0x4e, 0x46
    1d34:	4749                	c.li	a4,18
    1d36:	5450                	c.lw	a2,44(s0)
    1d38:	0052                	c.slli	zero,0x14
    1d3a:	444e                	c.lwsp	s0,208(sp)
    1d3c:	534d5f53          	.4byte	0x534d5f53
    1d40:	4154                	c.lw	a3,4(a0)
    1d42:	4554                	c.lw	a3,12(a0)
    1d44:	4e45                	c.li	t3,17
    1d46:	4830                	c.lw	a2,80(s0)
    1d48:	4e00                	c.lw	s0,24(a2)
    1d4a:	5344                	c.lw	s1,36(a4)
    1d4c:	4d5f 5048 454d      	.byte	0x5f, 0x4d, 0x48, 0x50, 0x4d, 0x45
    1d52:	4556                	c.lwsp	a0,84(sp)
    1d54:	544e                	c.lwsp	s0,240(sp)
    1d56:	4e003033          	.4byte	0x4e003033
    1d5a:	5344                	c.lw	s1,36(a4)
    1d5c:	4d5f 5048 454d      	.byte	0x5f, 0x4d, 0x48, 0x50, 0x4d, 0x45
    1d62:	4556                	c.lwsp	a0,84(sp)
    1d64:	544e                	c.lwsp	s0,240(sp)
    1d66:	4e003133          	.4byte	0x4e003133
    1d6a:	5344                	c.lw	s1,36(a4)
    1d6c:	4d5f 5048 454d      	.byte	0x5f, 0x4d, 0x48, 0x50, 0x4d, 0x45
    1d72:	4556                	c.lwsp	a0,84(sp)
    1d74:	544e                	c.lwsp	s0,240(sp)
    1d76:	3932                	.2byte	0x3932
    1d78:	0048                	c.addi4spn	a0,sp,4
    1d7a:	7362                	.2byte	0x7362
    1d7c:	2f70                	.2byte	0x2f70
    1d7e:	6561                	c.lui	a0,0x18
    1d80:	2f303533          	.4byte	0x2f303533
    1d84:	72617473          	csrrci	s0,mhpmevent6h,2
    1d88:	2e74                	.2byte	0x2e74
    1d8a:	4e470053          	.4byte	0x4e470053
    1d8e:	2055                	c.jal	0x1e32 <__bss_start+0x192>
    1d90:	5341                	c.li	t1,-16
    1d92:	3220                	.2byte	0x3220
    1d94:	332e                	.2byte	0x332e
    1d96:	0038                	c.addi4spn	a4,sp,8
    1d98:	5f5f 646e 5f73      	.byte	0x5f, 0x5f, 0x6e, 0x64, 0x73, 0x5f
    1d9e:	705f 696c 5f63      	.byte	0x5f, 0x70, 0x6c, 0x69, 0x63, 0x5f
    1da4:	5f746573          	csrrsi	a0,0x5f7,8
    1da8:	6566                	.2byte	0x6566
    1daa:	7461                	c.lui	s0,0xffff8
    1dac:	7275                	c.lui	tp,0xffffd
    1dae:	0065                	c.nop	25
    1db0:	5f554d53          	.4byte	0x5f554d53
    1db4:	6552                	.2byte	0x6552
    1db6:	66654467          	.4byte	0x66654467
    1dba:	6600                	.2byte	0x6600
    1dbc:	6165                	c.addi16sp	sp,112
    1dbe:	7574                	.2byte	0x7574
    1dc0:	6572                	.2byte	0x6572
    1dc2:	705f 7274 4800      	.byte	0x5f, 0x70, 0x74, 0x72, 0x00, 0x48
    1dc8:	5241                	c.li	tp,-16
    1dca:	3154                	.2byte	0x3154
    1dcc:	525f 5345 5445      	.byte	0x5f, 0x52, 0x45, 0x53, 0x45, 0x54
    1dd2:	565f 4345 4f54      	.byte	0x5f, 0x56, 0x45, 0x43, 0x54, 0x4f
    1dd8:	0052                	c.slli	zero,0x14
    1dda:	43554d53          	.4byte	0x43554d53
    1dde:	0052                	c.slli	zero,0x14
    1de0:	5750                	c.lw	a2,44(a4)
    1de2:	5252                	c.lwsp	tp,52(sp)
    1de4:	5000                	c.lw	s0,32(s0)
    1de6:	5344                	c.lw	s1,36(a4)
    1de8:	0052                	c.slli	zero,0x14
    1dea:	54535953          	.4byte	0x54535953
    1dee:	4d45                	c.li	s10,17
    1df0:	4556                	c.lwsp	a0,84(sp)
    1df2:	0052                	c.slli	zero,0x14
    1df4:	7362                	.2byte	0x7362
    1df6:	2f70                	.2byte	0x2f70
    1df8:	6561                	c.lui	a0,0x18
    1dfa:	2f303533          	.4byte	0x2f303533
    1dfe:	6561                	c.lui	a0,0x18
    1e00:	2e303533          	.4byte	0x2e303533
    1e04:	41480063          	beq	a6,s4,0x2204 <__bss_start+0x564>
    1e08:	5452                	c.lwsp	s0,52(sp)
    1e0a:	45525f33          	.4byte	0x45525f33
    1e0e:	5f544553          	.4byte	0x5f544553
    1e12:	4556                	c.lwsp	a0,84(sp)
    1e14:	524f5443          	.4byte	0x524f5443
    1e18:	4800                	c.lw	s0,16(s0)
    1e1a:	5241                	c.li	tp,-16
    1e1c:	3254                	.2byte	0x3254
    1e1e:	525f 5345 5445      	.byte	0x5f, 0x52, 0x45, 0x53, 0x45, 0x54
    1e24:	565f 4345 4f54      	.byte	0x5f, 0x56, 0x45, 0x43, 0x54, 0x4f
    1e2a:	0052                	c.slli	zero,0x14
    1e2c:	657a6973          	csrrsi	s2,0x657,20
    1e30:	4800                	c.lw	s0,16(s0)
    1e32:	5241                	c.li	tp,-16
    1e34:	3054                	.2byte	0x3054
    1e36:	525f 5345 5445      	.byte	0x5f, 0x52, 0x45, 0x53, 0x45, 0x54
    1e3c:	565f 4345 4f54      	.byte	0x5f, 0x56, 0x45, 0x43, 0x54, 0x4f
    1e42:	0052                	c.slli	zero,0x14
    1e44:	5255                	c.li	tp,-11
    1e46:	4552                	c.lwsp	a0,20(sp)
    1e48:	42003147          	.4byte	0x42003147
    1e4c:	4452414f          	.4byte	0x4452414f
    1e50:	4449                	c.li	s0,18
    1e52:	5000                	c.lw	s0,32(s0)
    1e54:	434d                	c.li	t1,19
    1e56:	0052                	c.slli	zero,0x14
    1e58:	655f 6164 6174      	.byte	0x5f, 0x65, 0x64, 0x61, 0x74, 0x61
    1e5e:	5200                	c.lw	s0,32(a2)
    1e60:	5345                	c.li	t1,-15
    1e62:	5245                	c.li	tp,-15
    1e64:	4556                	c.lwsp	a0,84(sp)
    1e66:	3044                	.2byte	0x3044
    1e68:	5200                	c.lw	s0,32(a2)
    1e6a:	5345                	c.li	t1,-15
    1e6c:	5245                	c.li	tp,-15
    1e6e:	4556                	c.lwsp	a0,84(sp)
    1e70:	3144                	.2byte	0x3144
    1e72:	5200                	c.lw	s0,32(a2)
    1e74:	5345                	c.li	t1,-15
    1e76:	5245                	c.li	tp,-15
    1e78:	4556                	c.lwsp	a0,84(sp)
    1e7a:	3444                	.2byte	0x3444
    1e7c:	5200                	c.lw	s0,32(a2)
    1e7e:	5345                	c.li	t1,-15
    1e80:	5245                	c.li	tp,-15
    1e82:	4556                	c.lwsp	a0,84(sp)
    1e84:	3544                	.2byte	0x3544
    1e86:	5000                	c.lw	s0,32(s0)
    1e88:	444d                	c.li	s0,19
    1e8a:	5249                	c.li	tp,-14
    1e8c:	5500                	c.lw	s0,40(a0)
    1e8e:	5252                	c.lwsp	tp,52(sp)
    1e90:	4745                	c.li	a4,17
    1e92:	0030                	c.addi4spn	a2,sp,8
    1e94:	655f 646e 5700      	.byte	0x5f, 0x65, 0x6e, 0x64, 0x00, 0x57
    1e9a:	4d52                	c.lwsp	s10,20(sp)
    1e9c:	5341                	c.li	t1,-16
    1e9e:	5f5f004b          	.4byte	0x5f5f004b
    1ea2:	6c70                	.2byte	0x6c70
    1ea4:	7461                	c.lui	s0,0xffff8
    1ea6:	6f66                	.2byte	0x6f66
    1ea8:	6d72                	.2byte	0x6d72
    1eaa:	695f 696e 0074      	.byte	0x5f, 0x69, 0x6e, 0x69, 0x74, 0x00
    1eb0:	6572                	.2byte	0x6572
    1eb2:	5f746573          	csrrsi	a0,0x5f7,8
    1eb6:	6576                	.2byte	0x6576
    1eb8:	726f7463          	bgeu	t5,t1,0x25e0 <__global_pointer$+0x148>
    1ebc:	5700                	c.lw	s0,40(a4)
    1ebe:	5352                	c.lwsp	t1,52(sp)
    1ec0:	0052                	c.slli	zero,0x14
    1ec2:	5750                	c.lw	a2,44(a4)
    1ec4:	5245                	c.li	tp,-15
    1ec6:	5300                	c.lw	s0,32(a4)
    1ec8:	5359                	c.li	t1,-10
    1eca:	4554                	c.lw	a3,12(a0)
    1ecc:	434d                	c.li	t1,19
    1ece:	4746                	c.lwsp	a4,80(sp)
    1ed0:	4800                	c.lw	s0,16(s0)
    1ed2:	5241                	c.li	tp,-16
    1ed4:	5354                	c.lw	a3,36(a4)
    1ed6:	525f 5345 5445      	.byte	0x5f, 0x52, 0x45, 0x53, 0x45, 0x54
    1edc:	525f 4745 5200      	.byte	0x5f, 0x52, 0x45, 0x47, 0x00, 0x52
    1ee2:	5345                	c.li	t1,-15
    1ee4:	5245                	c.li	tp,-15
    1ee6:	4556                	c.lwsp	a0,84(sp)
    1ee8:	3244                	.2byte	0x3244
    1eea:	5200                	c.lw	s0,32(a2)
    1eec:	5345                	c.li	t1,-15
    1eee:	5245                	c.li	tp,-15
    1ef0:	4556                	c.lwsp	a0,84(sp)
    1ef2:	3344                	.2byte	0x3344
    1ef4:	5f00                	c.lw	s0,56(a4)
    1ef6:	6e5f 7364 5f5f      	.byte	0x5f, 0x6e, 0x64, 0x73, 0x5f, 0x5f
    1efc:	6c70                	.2byte	0x6c70
    1efe:	6369                	c.lui	t1,0x1a
    1f00:	635f 6d6f 6c70      	.byte	0x5f, 0x63, 0x6f, 0x6d, 0x70, 0x6c
    1f06:	7465                	c.lui	s0,0xffff9
    1f08:	5f65                	c.li	t5,-7
    1f0a:	6e69                	c.lui	t3,0x1a
    1f0c:	6574                	.2byte	0x6574
    1f0e:	7272                	.2byte	0x7272
    1f10:	7075                	c.lui	zero,0xffffd
    1f12:	0074                	c.addi4spn	a3,sp,12
    1f14:	7269                	c.lui	tp,0xffffa
    1f16:	5f71                	c.li	t5,-4
    1f18:	72756f73          	csrrsi	t5,mhpmevent7h,10
    1f1c:	69006563          	bltu	zero,a6,0x25a6 <__global_pointer$+0x10e>
    1f20:	665f7273          	csrrci	tp,0x665,30
    1f24:	6e75                	c.lui	t3,0x1d
    1f26:	73620063          	beq	tp,s6,0x2646 <__global_pointer$+0x1ae>
    1f2a:	2f70                	.2byte	0x2f70
    1f2c:	6561                	c.lui	a0,0x18
    1f2e:	2f303533          	.4byte	0x2f303533
    1f32:	6e69                	c.lui	t3,0x1a
    1f34:	6574                	.2byte	0x6574
    1f36:	7272                	.2byte	0x7272
    1f38:	7075                	c.lui	zero,0xffffd
    1f3a:	2e74                	.2byte	0x2e74
    1f3c:	65640063          	beq	s0,s6,0x257c <__global_pointer$+0xe4>
    1f40:	6166                	.2byte	0x6166
    1f42:	6c75                	c.lui	s8,0x1d
    1f44:	5f74                	c.lw	a3,124(a4)
    1f46:	7269                	c.lui	tp,0xffffa
    1f48:	5f71                	c.li	t5,-4
    1f4a:	6168                	.2byte	0x6168
    1f4c:	646e                	.2byte	0x646e
    1f4e:	656c                	.2byte	0x656c
    1f50:	0072                	c.slli	zero,0x1c
    1f52:	7362                	.2byte	0x7362
    1f54:	2f70                	.2byte	0x2f70
    1f56:	696c                	.2byte	0x696c
    1f58:	2f62                	.2byte	0x2f62
    1f5a:	6175                	c.addi16sp	sp,368
    1f5c:	7472                	.2byte	0x7472
    1f5e:	632e                	.2byte	0x632e
    1f60:	5500                	c.lw	s0,40(a0)
    1f62:	5241                	c.li	tp,-16
    1f64:	5f54                	c.lw	a3,60(a4)
    1f66:	6552                	.2byte	0x6552
    1f68:	66654467          	.4byte	0x66654467
    1f6c:	7500                	.2byte	0x7500
    1f6e:	7261                	c.lui	tp,0xffff8
    1f70:	5f74                	c.lw	a3,124(a4)
    1f72:	63746567          	.4byte	0x63746567
    1f76:	4900                	c.lw	s0,16(a0)
    1f78:	5244                	c.lw	s1,36(a2)
    1f7a:	5645                	c.li	a2,-15
    1f7c:	6200                	.2byte	0x6200
    1f7e:	7561                	c.lui	a0,0xffff8
    1f80:	7264                	.2byte	0x7264
    1f82:	7461                	c.lui	s0,0xffff8
    1f84:	0065                	c.nop	25
    1f86:	6175                	c.addi16sp	sp,368
    1f88:	7472                	.2byte	0x7472
    1f8a:	705f 7475 0063      	.byte	0x5f, 0x70, 0x75, 0x74, 0x63, 0x00
    1f90:	6274756f          	jal	a0,0x49db6 <__global_pointer$+0x4791e>
    1f94:	7479                	c.lui	s0,0xffffe
    1f96:	0065                	c.nop	25
    1f98:	6175                	c.addi16sp	sp,368
    1f9a:	7472                	.2byte	0x7472
    1f9c:	705f 7475 0073      	.byte	0x5f, 0x70, 0x75, 0x74, 0x73, 0x00
    1fa2:	5243534f          	.4byte	0x5243534f
    1fa6:	7300                	.2byte	0x7300
    1fa8:	6d69                	c.lui	s10,0x1a
    1faa:	6c70                	.2byte	0x6c70
    1fac:	5f65                	c.li	t5,-7
    1fae:	6564                	.2byte	0x6564
    1fb0:	616c                	.2byte	0x616c
    1fb2:	5f79                	c.li	t5,-2
    1fb4:	736d                	c.lui	t1,0xffffb
    1fb6:	7200                	.2byte	0x7200
    1fb8:	6d64                	.2byte	0x6d64
    1fba:	6c637963          	bgeu	t1,t1,0x268c <__global_pointer$+0x1f4>
    1fbe:	0065                	c.nop	25
    1fc0:	6974                	.2byte	0x6974
    1fc2:	656d                	c.lui	a0,0x1b
    1fc4:	6700                	.2byte	0x6700
    1fc6:	7465                	c.lui	s0,0xffff9
    1fc8:	635f 726f 5f65      	.byte	0x5f, 0x63, 0x6f, 0x72, 0x65, 0x5f
    1fce:	7266                	.2byte	0x7266
    1fd0:	7165                	c.addi16sp	sp,-400
    1fd2:	6200                	.2byte	0x6200
    1fd4:	6c2f7073          	csrci	0x6c2,30
    1fd8:	6269                	c.lui	tp,0x1a
    1fda:	6c65642f          	.4byte	0x6c65642f
    1fde:	7961                	c.lui	s2,0xffff8
    1fe0:	632e                	.2byte	0x632e
    1fe2:	6c00                	.2byte	0x6c00
    1fe4:	7264                	.2byte	0x7264
    1fe6:	655f 746e 7972      	.byte	0x5f, 0x65, 0x6e, 0x74, 0x72, 0x79
    1fec:	5f00                	c.lw	s0,56(a4)
    1fee:	665f 616c 6873      	.byte	0x5f, 0x66, 0x6c, 0x61, 0x73, 0x68
    1ff4:	735f 6174 7472      	.byte	0x5f, 0x73, 0x74, 0x61, 0x72, 0x74
    1ffa:	7300                	.2byte	0x7300
    1ffc:	6372                	.2byte	0x6372
    1ffe:	705f 7274 5f00      	.byte	0x5f, 0x70, 0x74, 0x72, 0x00, 0x5f
    2004:	6c5f 616f 6564      	.byte	0x5f, 0x6c, 0x6f, 0x61, 0x64, 0x65
    200a:	5f72                	c.lwsp	t5,60(sp)
    200c:	6d6c                	.2byte	0x6d6c
    200e:	7361                	c.lui	t1,0xffff8
    2010:	6174                	.2byte	0x6174
    2012:	7472                	.2byte	0x7472
    2014:	5f00                	c.lw	s0,56(a4)
    2016:	745f 7865 5f74      	.byte	0x5f, 0x74, 0x65, 0x78, 0x74, 0x5f
    201c:	6d6c                	.2byte	0x6d6c
    201e:	7361                	c.lui	t1,0xffff8
    2020:	6174                	.2byte	0x6174
    2022:	7472                	.2byte	0x7472
    2024:	6200                	.2byte	0x6200
    2026:	5f746f6f          	jal	t5,0x48e1c <__global_pointer$+0x46984>
    202a:	6f6c                	.2byte	0x6f6c
    202c:	6461                	c.lui	s0,0x18
    202e:	7265                	c.lui	tp,0xffff9
    2030:	5f00                	c.lw	s0,56(a4)
    2032:	745f 7865 5f74      	.byte	0x5f, 0x74, 0x65, 0x78, 0x74, 0x5f
    2038:	72617473          	csrrci	s0,mhpmevent6h,2
    203c:	0074                	c.addi4spn	a3,sp,12
    203e:	5f5f 6f6c 6461      	.byte	0x5f, 0x5f, 0x6c, 0x6f, 0x61, 0x64
    2044:	7265                	c.lui	tp,0xffff9
    2046:	6c5f 616d 6e65      	.byte	0x5f, 0x6c, 0x6d, 0x61, 0x65, 0x6e
    204c:	0064                	c.addi4spn	s1,sp,12
    204e:	7364                	.2byte	0x7364
    2050:	5f74                	c.lw	a3,124(a4)
    2052:	7470                	.2byte	0x7470
    2054:	0072                	c.slli	zero,0x1c
    2056:	5f5f 6f6c 6461      	.byte	0x5f, 0x5f, 0x6c, 0x6f, 0x61, 0x64
    205c:	7265                	c.lui	tp,0xffff9
    205e:	735f 6174 7472      	.byte	0x5f, 0x73, 0x74, 0x61, 0x72, 0x74
    2064:	6200                	.2byte	0x6200
    2066:	612f7073          	csrci	0x612,30
    206a:	3365                	c.jal	0x1e12 <__bss_start+0x172>
    206c:	3035                	c.jal	0x1898 <__riscv_restore_0+0x56>
    206e:	616f6c2f          	.4byte	0x616f6c2f
    2072:	6564                	.2byte	0x6564
    2074:	2e72                	.2byte	0x2e72
    2076:	63 00             	Address 0x00002076 is out of bounds.


Disassembly of section .debug_ranges:

00000000 <.debug_ranges>:
   0:	0000                	c.unimp
   2:	8000                	exec.it	#0     !
   4:	0078                	c.addi4spn	a4,sp,12
   6:	8000                	exec.it	#0     !
   8:	0000                	c.unimp
   a:	0ff0                	c.addi4spn	a2,sp,988
   c:	0074                	c.addi4spn	a3,sp,12
   e:	0ff0                	c.addi4spn	a2,sp,988
	...
